
STM32-RC-Car.elf:     file format elf32-littlearm

Sections:
Idx Name          Size      VMA       LMA       File off  Algn
  0 .isr_vector   000001f8  08000000  08000000  00001000  2**0
                  CONTENTS, ALLOC, LOAD, READONLY, DATA
  1 .text         000068b8  08000200  08000200  00001200  2**4
                  CONTENTS, ALLOC, LOAD, READONLY, CODE
  2 .rodata       0000032c  08006ab8  08006ab8  00007ab8  2**2
                  CONTENTS, ALLOC, LOAD, READONLY, DATA
  3 .ARM.extab    00000000  08006de4  08006de4  00008060  2**0
                  CONTENTS
  4 .ARM          00000008  08006de4  08006de4  00007de4  2**2
                  CONTENTS, ALLOC, LOAD, READONLY, DATA
  5 .preinit_array 00000000  08006dec  08006dec  00008060  2**0
                  CONTENTS, ALLOC, LOAD, DATA
  6 .init_array   00000004  08006dec  08006dec  00007dec  2**2
                  CONTENTS, ALLOC, LOAD, READONLY, DATA
  7 .fini_array   00000004  08006df0  08006df0  00007df0  2**2
                  CONTENTS, ALLOC, LOAD, READONLY, DATA
  8 .data         00000060  20000000  08006df4  00008000  2**2
                  CONTENTS, ALLOC, LOAD, DATA
  9 .bss          000054e0  20000060  08006e54  00008060  2**2
                  ALLOC
 10 ._user_heap_stack 00000600  20005540  08006e54  00008540  2**0
                  ALLOC
 11 .ARM.attributes 0000002e  00000000  00000000  00008060  2**0
                  CONTENTS, READONLY
 12 .comment      00000043  00000000  00000000  0000808e  2**0
                  CONTENTS, READONLY
 13 .debug_frame  00000314  00000000  00000000  000080d4  2**2
                  CONTENTS, READONLY, DEBUGGING, OCTETS

Disassembly of section .text:

08000200 <__do_global_dtors_aux>:
 8000200:	b510      	push	{r4, lr}
 8000202:	4c05      	ldr	r4, [pc, #20]	@ (8000218 <__do_global_dtors_aux+0x18>)
 8000204:	7823      	ldrb	r3, [r4, #0]
 8000206:	b933      	cbnz	r3, 8000216 <__do_global_dtors_aux+0x16>
 8000208:	4b04      	ldr	r3, [pc, #16]	@ (800021c <__do_global_dtors_aux+0x1c>)
 800020a:	b113      	cbz	r3, 8000212 <__do_global_dtors_aux+0x12>
 800020c:	4804      	ldr	r0, [pc, #16]	@ (8000220 <__do_global_dtors_aux+0x20>)
 800020e:	f3af 8000 	nop.w
 8000212:	2301      	movs	r3, #1
 8000214:	7023      	strb	r3, [r4, #0]
 8000216:	bd10      	pop	{r4, pc}
 8000218:	20000060 	.word	0x20000060
 800021c:	00000000 	.word	0x00000000
 8000220:	08006aa0 	.word	0x08006aa0

08000224 <frame_dummy>:
 8000224:	b508      	push	{r3, lr}
 8000226:	4b03      	ldr	r3, [pc, #12]	@ (8000234 <frame_dummy+0x10>)
 8000228:	b11b      	cbz	r3, 8000232 <frame_dummy+0xe>
 800022a:	4903      	ldr	r1, [pc, #12]	@ (8000238 <frame_dummy+0x14>)
 800022c:	4803      	ldr	r0, [pc, #12]	@ (800023c <frame_dummy+0x18>)
 800022e:	f3af 8000 	nop.w
 8000232:	bd08      	pop	{r3, pc}
 8000234:	00000000 	.word	0x00000000
 8000238:	20000064 	.word	0x20000064
 800023c:	08006aa0 	.word	0x08006aa0

08000240 <strcmp>:
 8000240:	f810 2b01 	ldrb.w	r2, [r0], #1
 8000244:	f811 3b01 	ldrb.w	r3, [r1], #1
 8000248:	2a01      	cmp	r2, #1
 800024a:	bf28      	it	cs
 800024c:	429a      	cmpcs	r2, r3
 800024e:	d0f7      	beq.n	8000240 <strcmp>
 8000250:	1ad0      	subs	r0, r2, r3
 8000252:	4770      	bx	lr

08000254 <__aeabi_uldivmod>:
 8000254:	b953      	cbnz	r3, 800026c <__aeabi_uldivmod+0x18>
 8000256:	b94a      	cbnz	r2, 800026c <__aeabi_uldivmod+0x18>
 8000258:	2900      	cmp	r1, #0
 800025a:	bf08      	it	eq
 800025c:	2800      	cmpeq	r0, #0
 800025e:	bf1c      	itt	ne
 8000260:	f04f 31ff 	movne.w	r1, #4294967295
 8000264:	f04f 30ff 	movne.w	r0, #4294967295
 8000268:	f000 b96a 	b.w	8000540 <__aeabi_idiv0>
 800026c:	f1ad 0c08 	sub.w	ip, sp, #8
 8000270:	e96d ce04 	strd	ip, lr, [sp, #-16]!
 8000274:	f000 f806 	bl	8000284 <__udivmoddi4>
 8000278:	f8dd e004 	ldr.w	lr, [sp, #4]
 800027c:	e9dd 2302 	ldrd	r2, r3, [sp, #8]
 8000280:	b004      	add	sp, #16
 8000282:	4770      	bx	lr

08000284 <__udivmoddi4>:
 8000284:	e92d 47f0 	stmdb	sp!, {r4, r5, r6, r7, r8, r9, sl, lr}
 8000288:	9d08      	ldr	r5, [sp, #32]
 800028a:	460c      	mov	r4, r1
 800028c:	2b00      	cmp	r3, #0
 800028e:	d14e      	bne.n	800032e <__udivmoddi4+0xaa>
 8000290:	4694      	mov	ip, r2
 8000292:	458c      	cmp	ip, r1
 8000294:	4686      	mov	lr, r0
 8000296:	fab2 f282 	clz	r2, r2
 800029a:	d962      	bls.n	8000362 <__udivmoddi4+0xde>
 800029c:	b14a      	cbz	r2, 80002b2 <__udivmoddi4+0x2e>
 800029e:	f1c2 0320 	rsb	r3, r2, #32
 80002a2:	4091      	lsls	r1, r2
 80002a4:	fa20 f303 	lsr.w	r3, r0, r3
 80002a8:	fa0c fc02 	lsl.w	ip, ip, r2
 80002ac:	4319      	orrs	r1, r3
 80002ae:	fa00 fe02 	lsl.w	lr, r0, r2
 80002b2:	ea4f 471c 	mov.w	r7, ip, lsr #16
 80002b6:	fa1f f68c 	uxth.w	r6, ip
 80002ba:	fbb1 f4f7 	udiv	r4, r1, r7
 80002be:	ea4f 431e 	mov.w	r3, lr, lsr #16
 80002c2:	fb07 1114 	mls	r1, r7, r4, r1
 80002c6:	ea43 4301 	orr.w	r3, r3, r1, lsl #16
 80002ca:	fb04 f106 	mul.w	r1, r4, r6
 80002ce:	4299      	cmp	r1, r3
 80002d0:	d90a      	bls.n	80002e8 <__udivmoddi4+0x64>
 80002d2:	eb1c 0303 	adds.w	r3, ip, r3
 80002d6:	f104 30ff 	add.w	r0, r4, #4294967295
 80002da:	f080 8112 	bcs.w	8000502 <__udivmoddi4+0x27e>
 80002de:	4299      	cmp	r1, r3
 80002e0:	f240 810f 	bls.w	8000502 <__udivmoddi4+0x27e>
 80002e4:	3c02      	subs	r4, #2
 80002e6:	4463      	add	r3, ip
 80002e8:	1a59      	subs	r1, r3, r1
 80002ea:	fa1f f38e 	uxth.w	r3, lr
 80002ee:	fbb1 f0f7 	udiv	r0, r1, r7
 80002f2:	fb07 1110 	mls	r1, r7, r0, r1
 80002f6:	ea43 4301 	orr.w	r3, r3, r1, lsl #16
 80002fa:	fb00 f606 	mul.w	r6, r0, r6
 80002fe:	429e      	cmp	r6, r3
 8000300:	d90a      	bls.n	8000318 <__udivmoddi4+0x94>
 8000302:	eb1c 0303 	adds.w	r3, ip, r3
 8000306:	f100 31ff 	add.w	r1, r0, #4294967295
 800030a:	f080 80fc 	bcs.w	8000506 <__udivmoddi4+0x282>
 800030e:	429e      	cmp	r6, r3
 8000310:	f240 80f9 	bls.w	8000506 <__udivmoddi4+0x282>
 8000314:	4463      	add	r3, ip
 8000316:	3802      	subs	r0, #2
 8000318:	1b9b      	subs	r3, r3, r6
 800031a:	ea40 4004 	orr.w	r0, r0, r4, lsl #16
 800031e:	2100      	movs	r1, #0
 8000320:	b11d      	cbz	r5, 800032a <__udivmoddi4+0xa6>
 8000322:	40d3      	lsrs	r3, r2
 8000324:	2200      	movs	r2, #0
 8000326:	e9c5 3200 	strd	r3, r2, [r5]
 800032a:	e8bd 87f0 	ldmia.w	sp!, {r4, r5, r6, r7, r8, r9, sl, pc}
 800032e:	428b      	cmp	r3, r1
 8000330:	d905      	bls.n	800033e <__udivmoddi4+0xba>
 8000332:	b10d      	cbz	r5, 8000338 <__udivmoddi4+0xb4>
 8000334:	e9c5 0100 	strd	r0, r1, [r5]
 8000338:	2100      	movs	r1, #0
 800033a:	4608      	mov	r0, r1
 800033c:	e7f5      	b.n	800032a <__udivmoddi4+0xa6>
 800033e:	fab3 f183 	clz	r1, r3
 8000342:	2900      	cmp	r1, #0
 8000344:	d146      	bne.n	80003d4 <__udivmoddi4+0x150>
 8000346:	42a3      	cmp	r3, r4
 8000348:	d302      	bcc.n	8000350 <__udivmoddi4+0xcc>
 800034a:	4290      	cmp	r0, r2
 800034c:	f0c0 80f0 	bcc.w	8000530 <__udivmoddi4+0x2ac>
 8000350:	1a86      	subs	r6, r0, r2
 8000352:	eb64 0303 	sbc.w	r3, r4, r3
 8000356:	2001      	movs	r0, #1
 8000358:	2d00      	cmp	r5, #0
 800035a:	d0e6      	beq.n	800032a <__udivmoddi4+0xa6>
 800035c:	e9c5 6300 	strd	r6, r3, [r5]
 8000360:	e7e3      	b.n	800032a <__udivmoddi4+0xa6>
 8000362:	2a00      	cmp	r2, #0
 8000364:	f040 8090 	bne.w	8000488 <__udivmoddi4+0x204>
 8000368:	eba1 040c 	sub.w	r4, r1, ip
 800036c:	ea4f 481c 	mov.w	r8, ip, lsr #16
 8000370:	fa1f f78c 	uxth.w	r7, ip
 8000374:	2101      	movs	r1, #1
 8000376:	fbb4 f6f8 	udiv	r6, r4, r8
 800037a:	ea4f 431e 	mov.w	r3, lr, lsr #16
 800037e:	fb08 4416 	mls	r4, r8, r6, r4
 8000382:	ea43 4304 	orr.w	r3, r3, r4, lsl #16
 8000386:	fb07 f006 	mul.w	r0, r7, r6
 800038a:	4298      	cmp	r0, r3
 800038c:	d908      	bls.n	80003a0 <__udivmoddi4+0x11c>
 800038e:	eb1c 0303 	adds.w	r3, ip, r3
 8000392:	f106 34ff 	add.w	r4, r6, #4294967295
 8000396:	d202      	bcs.n	800039e <__udivmoddi4+0x11a>
 8000398:	4298      	cmp	r0, r3
 800039a:	f200 80cd 	bhi.w	8000538 <__udivmoddi4+0x2b4>
 800039e:	4626      	mov	r6, r4
 80003a0:	1a1c      	subs	r4, r3, r0
 80003a2:	fa1f f38e 	uxth.w	r3, lr
 80003a6:	fbb4 f0f8 	udiv	r0, r4, r8
 80003aa:	fb08 4410 	mls	r4, r8, r0, r4
 80003ae:	ea43 4304 	orr.w	r3, r3, r4, lsl #16
 80003b2:	fb00 f707 	mul.w	r7, r0, r7
 80003b6:	429f      	cmp	r7, r3
 80003b8:	d908      	bls.n	80003cc <__udivmoddi4+0x148>
 80003ba:	eb1c 0303 	adds.w	r3, ip, r3
 80003be:	f100 34ff 	add.w	r4, r0, #4294967295
 80003c2:	d202      	bcs.n	80003ca <__udivmoddi4+0x146>
 80003c4:	429f      	cmp	r7, r3
 80003c6:	f200 80b0 	bhi.w	800052a <__udivmoddi4+0x2a6>
 80003ca:	4620      	mov	r0, r4
 80003cc:	1bdb      	subs	r3, r3, r7
 80003ce:	ea40 4006 	orr.w	r0, r0, r6, lsl #16
 80003d2:	e7a5      	b.n	8000320 <__udivmoddi4+0x9c>
 80003d4:	f1c1 0620 	rsb	r6, r1, #32
 80003d8:	408b      	lsls	r3, r1
 80003da:	fa22 f706 	lsr.w	r7, r2, r6
 80003de:	431f      	orrs	r7, r3
 80003e0:	fa20 fc06 	lsr.w	ip, r0, r6
 80003e4:	fa04 f301 	lsl.w	r3, r4, r1
 80003e8:	ea43 030c 	orr.w	r3, r3, ip
 80003ec:	40f4      	lsrs	r4, r6
 80003ee:	fa00 f801 	lsl.w	r8, r0, r1
 80003f2:	0c38      	lsrs	r0, r7, #16
 80003f4:	ea4f 4913 	mov.w	r9, r3, lsr #16
 80003f8:	fbb4 fef0 	udiv	lr, r4, r0
 80003fc:	fa1f fc87 	uxth.w	ip, r7
 8000400:	fb00 441e 	mls	r4, r0, lr, r4
 8000404:	ea49 4404 	orr.w	r4, r9, r4, lsl #16
 8000408:	fb0e f90c 	mul.w	r9, lr, ip
 800040c:	45a1      	cmp	r9, r4
 800040e:	fa02 f201 	lsl.w	r2, r2, r1
 8000412:	d90a      	bls.n	800042a <__udivmoddi4+0x1a6>
 8000414:	193c      	adds	r4, r7, r4
 8000416:	f10e 3aff 	add.w	sl, lr, #4294967295
 800041a:	f080 8084 	bcs.w	8000526 <__udivmoddi4+0x2a2>
 800041e:	45a1      	cmp	r9, r4
 8000420:	f240 8081 	bls.w	8000526 <__udivmoddi4+0x2a2>
 8000424:	f1ae 0e02 	sub.w	lr, lr, #2
 8000428:	443c      	add	r4, r7
 800042a:	eba4 0409 	sub.w	r4, r4, r9
 800042e:	fa1f f983 	uxth.w	r9, r3
 8000432:	fbb4 f3f0 	udiv	r3, r4, r0
 8000436:	fb00 4413 	mls	r4, r0, r3, r4
 800043a:	ea49 4404 	orr.w	r4, r9, r4, lsl #16
 800043e:	fb03 fc0c 	mul.w	ip, r3, ip
 8000442:	45a4      	cmp	ip, r4
 8000444:	d907      	bls.n	8000456 <__udivmoddi4+0x1d2>
 8000446:	193c      	adds	r4, r7, r4
 8000448:	f103 30ff 	add.w	r0, r3, #4294967295
 800044c:	d267      	bcs.n	800051e <__udivmoddi4+0x29a>
 800044e:	45a4      	cmp	ip, r4
 8000450:	d965      	bls.n	800051e <__udivmoddi4+0x29a>
 8000452:	3b02      	subs	r3, #2
 8000454:	443c      	add	r4, r7
 8000456:	ea43 400e 	orr.w	r0, r3, lr, lsl #16
 800045a:	fba0 9302 	umull	r9, r3, r0, r2
 800045e:	eba4 040c 	sub.w	r4, r4, ip
 8000462:	429c      	cmp	r4, r3
 8000464:	46ce      	mov	lr, r9
 8000466:	469c      	mov	ip, r3
 8000468:	d351      	bcc.n	800050e <__udivmoddi4+0x28a>
 800046a:	d04e      	beq.n	800050a <__udivmoddi4+0x286>
 800046c:	b155      	cbz	r5, 8000484 <__udivmoddi4+0x200>
 800046e:	ebb8 030e 	subs.w	r3, r8, lr
 8000472:	eb64 040c 	sbc.w	r4, r4, ip
 8000476:	fa04 f606 	lsl.w	r6, r4, r6
 800047a:	40cb      	lsrs	r3, r1
 800047c:	431e      	orrs	r6, r3
 800047e:	40cc      	lsrs	r4, r1
 8000480:	e9c5 6400 	strd	r6, r4, [r5]
 8000484:	2100      	movs	r1, #0
 8000486:	e750      	b.n	800032a <__udivmoddi4+0xa6>
 8000488:	f1c2 0320 	rsb	r3, r2, #32
 800048c:	fa20 f103 	lsr.w	r1, r0, r3
 8000490:	fa0c fc02 	lsl.w	ip, ip, r2
 8000494:	fa24 f303 	lsr.w	r3, r4, r3
 8000498:	4094      	lsls	r4, r2
 800049a:	430c      	orrs	r4, r1
 800049c:	ea4f 481c 	mov.w	r8, ip, lsr #16
 80004a0:	fa00 fe02 	lsl.w	lr, r0, r2
 80004a4:	fa1f f78c 	uxth.w	r7, ip
 80004a8:	fbb3 f0f8 	udiv	r0, r3, r8
 80004ac:	fb08 3110 	mls	r1, r8, r0, r3
 80004b0:	0c23      	lsrs	r3, r4, #16
 80004b2:	ea43 4301 	orr.w	r3, r3, r1, lsl #16
 80004b6:	fb00 f107 	mul.w	r1, r0, r7
 80004ba:	4299      	cmp	r1, r3
 80004bc:	d908      	bls.n	80004d0 <__udivmoddi4+0x24c>
 80004be:	eb1c 0303 	adds.w	r3, ip, r3
 80004c2:	f100 36ff 	add.w	r6, r0, #4294967295
 80004c6:	d22c      	bcs.n	8000522 <__udivmoddi4+0x29e>
 80004c8:	4299      	cmp	r1, r3
 80004ca:	d92a      	bls.n	8000522 <__udivmoddi4+0x29e>
 80004cc:	3802      	subs	r0, #2
 80004ce:	4463      	add	r3, ip
 80004d0:	1a5b      	subs	r3, r3, r1
 80004d2:	b2a4      	uxth	r4, r4
 80004d4:	fbb3 f1f8 	udiv	r1, r3, r8
 80004d8:	fb08 3311 	mls	r3, r8, r1, r3
 80004dc:	ea44 4403 	orr.w	r4, r4, r3, lsl #16
 80004e0:	fb01 f307 	mul.w	r3, r1, r7
 80004e4:	42a3      	cmp	r3, r4
 80004e6:	d908      	bls.n	80004fa <__udivmoddi4+0x276>
 80004e8:	eb1c 0404 	adds.w	r4, ip, r4
 80004ec:	f101 36ff 	add.w	r6, r1, #4294967295
 80004f0:	d213      	bcs.n	800051a <__udivmoddi4+0x296>
 80004f2:	42a3      	cmp	r3, r4
 80004f4:	d911      	bls.n	800051a <__udivmoddi4+0x296>
 80004f6:	3902      	subs	r1, #2
 80004f8:	4464      	add	r4, ip
 80004fa:	1ae4      	subs	r4, r4, r3
 80004fc:	ea41 4100 	orr.w	r1, r1, r0, lsl #16
 8000500:	e739      	b.n	8000376 <__udivmoddi4+0xf2>
 8000502:	4604      	mov	r4, r0
 8000504:	e6f0      	b.n	80002e8 <__udivmoddi4+0x64>
 8000506:	4608      	mov	r0, r1
 8000508:	e706      	b.n	8000318 <__udivmoddi4+0x94>
 800050a:	45c8      	cmp	r8, r9
 800050c:	d2ae      	bcs.n	800046c <__udivmoddi4+0x1e8>
 800050e:	ebb9 0e02 	subs.w	lr, r9, r2
 8000512:	eb63 0c07 	sbc.w	ip, r3, r7
 8000516:	3801      	subs	r0, #1
 8000518:	e7a8      	b.n	800046c <__udivmoddi4+0x1e8>
 800051a:	4631      	mov	r1, r6
 800051c:	e7ed      	b.n	80004fa <__udivmoddi4+0x276>
 800051e:	4603      	mov	r3, r0
 8000520:	e799      	b.n	8000456 <__udivmoddi4+0x1d2>
 8000522:	4630      	mov	r0, r6
 8000524:	e7d4      	b.n	80004d0 <__udivmoddi4+0x24c>
 8000526:	46d6      	mov	lr, sl
 8000528:	e77f      	b.n	800042a <__udivmoddi4+0x1a6>
 800052a:	4463      	add	r3, ip
 800052c:	3802      	subs	r0, #2
 800052e:	e74d      	b.n	80003cc <__udivmoddi4+0x148>
 8000530:	4606      	mov	r6, r0
 8000532:	4623      	mov	r3, r4
 8000534:	4608      	mov	r0, r1
 8000536:	e70f      	b.n	8000358 <__udivmoddi4+0xd4>
 8000538:	3e02      	subs	r6, #2
 800053a:	4463      	add	r3, ip
 800053c:	e730      	b.n	80003a0 <__udivmoddi4+0x11c>
 800053e:	bf00      	nop

08000540 <__aeabi_idiv0>:
 8000540:	4770      	bx	lr
 8000542:	bf00      	nop

08000544 <MX_DMA_Init>:
 8000544:	4b0e      	ldr	r3, [pc, #56]	@ (8000580 <MX_DMA_Init+0x3c>)
 8000546:	b507      	push	{r0, r1, r2, lr}
 8000548:	6b1a      	ldr	r2, [r3, #48]	@ 0x30
 800054a:	2105      	movs	r1, #5
 800054c:	2010      	movs	r0, #16
 800054e:	f442 1200 	orr.w	r2, r2, #2097152	@ 0x200000
 8000552:	631a      	str	r2, [r3, #48]	@ 0x30
 8000554:	2200      	movs	r2, #0
 8000556:	6b1b      	ldr	r3, [r3, #48]	@ 0x30
 8000558:	f403 1300 	and.w	r3, r3, #2097152	@ 0x200000
 800055c:	9301      	str	r3, [sp, #4]
 800055e:	9b01      	ldr	r3, [sp, #4]
 8000560:	f001 fd00 	bl	8001f64 <HAL_NVIC_SetPriority>
 8000564:	2010      	movs	r0, #16
 8000566:	f001 fd2f 	bl	8001fc8 <HAL_NVIC_EnableIRQ>
 800056a:	2200      	movs	r2, #0
 800056c:	2105      	movs	r1, #5
 800056e:	2011      	movs	r0, #17
 8000570:	f001 fcf8 	bl	8001f64 <HAL_NVIC_SetPriority>
 8000574:	2011      	movs	r0, #17
 8000576:	b003      	add	sp, #12
 8000578:	f85d eb04 	ldr.w	lr, [sp], #4
 800057c:	f001 bd24 	b.w	8001fc8 <HAL_NVIC_EnableIRQ>
 8000580:	40023800 	.word	0x40023800

08000584 <MX_FREERTOS_Init>:
 8000584:	f000 bed0 	b.w	8001328 <StartMultiThreads>

08000588 <MX_GPIO_Init>:
 8000588:	e92d 4ff0 	stmdb	sp!, {r4, r5, r6, r7, r8, r9, sl, fp, lr}
 800058c:	b08d      	sub	sp, #52	@ 0x34
 800058e:	2214      	movs	r2, #20
 8000590:	2100      	movs	r1, #0
 8000592:	4e69      	ldr	r6, [pc, #420]	@ (8000738 <MX_GPIO_Init+0x1b0>)
 8000594:	a807      	add	r0, sp, #28
 8000596:	f8df a1b4 	ldr.w	sl, [pc, #436]	@ 800074c <MX_GPIO_Init+0x1c4>
 800059a:	f006 fa2f 	bl	80069fc <memset>
 800059e:	4b67      	ldr	r3, [pc, #412]	@ (800073c <MX_GPIO_Init+0x1b4>)
 80005a0:	4d67      	ldr	r5, [pc, #412]	@ (8000740 <MX_GPIO_Init+0x1b8>)
 80005a2:	4630      	mov	r0, r6
 80005a4:	6b1a      	ldr	r2, [r3, #48]	@ 0x30
 80005a6:	2141      	movs	r1, #65	@ 0x41
 80005a8:	f8df b1a4 	ldr.w	fp, [pc, #420]	@ 8000750 <MX_GPIO_Init+0x1c8>
 80005ac:	2400      	movs	r4, #0
 80005ae:	f042 0210 	orr.w	r2, r2, #16
 80005b2:	f04f 0901 	mov.w	r9, #1
 80005b6:	f04f 0802 	mov.w	r8, #2
 80005ba:	2703      	movs	r7, #3
 80005bc:	631a      	str	r2, [r3, #48]	@ 0x30
 80005be:	6b1a      	ldr	r2, [r3, #48]	@ 0x30
 80005c0:	f002 0210 	and.w	r2, r2, #16
 80005c4:	9200      	str	r2, [sp, #0]
 80005c6:	9a00      	ldr	r2, [sp, #0]
 80005c8:	6b1a      	ldr	r2, [r3, #48]	@ 0x30
 80005ca:	f042 0204 	orr.w	r2, r2, #4
 80005ce:	631a      	str	r2, [r3, #48]	@ 0x30
 80005d0:	6b1a      	ldr	r2, [r3, #48]	@ 0x30
 80005d2:	f002 0204 	and.w	r2, r2, #4
 80005d6:	9201      	str	r2, [sp, #4]
 80005d8:	9a01      	ldr	r2, [sp, #4]
 80005da:	6b1a      	ldr	r2, [r3, #48]	@ 0x30
 80005dc:	f042 0280 	orr.w	r2, r2, #128	@ 0x80
 80005e0:	631a      	str	r2, [r3, #48]	@ 0x30
 80005e2:	6b1a      	ldr	r2, [r3, #48]	@ 0x30
 80005e4:	f002 0280 	and.w	r2, r2, #128	@ 0x80
 80005e8:	9202      	str	r2, [sp, #8]
 80005ea:	9a02      	ldr	r2, [sp, #8]
 80005ec:	6b1a      	ldr	r2, [r3, #48]	@ 0x30
 80005ee:	f042 0201 	orr.w	r2, r2, #1
 80005f2:	631a      	str	r2, [r3, #48]	@ 0x30
 80005f4:	6b1a      	ldr	r2, [r3, #48]	@ 0x30
 80005f6:	f002 0201 	and.w	r2, r2, #1
 80005fa:	9203      	str	r2, [sp, #12]
 80005fc:	9a03      	ldr	r2, [sp, #12]
 80005fe:	6b1a      	ldr	r2, [r3, #48]	@ 0x30
 8000600:	f042 0202 	orr.w	r2, r2, #2
 8000604:	631a      	str	r2, [r3, #48]	@ 0x30
 8000606:	6b1a      	ldr	r2, [r3, #48]	@ 0x30
 8000608:	f002 0202 	and.w	r2, r2, #2
 800060c:	9204      	str	r2, [sp, #16]
 800060e:	9a04      	ldr	r2, [sp, #16]
 8000610:	6b1a      	ldr	r2, [r3, #48]	@ 0x30
 8000612:	f042 0240 	orr.w	r2, r2, #64	@ 0x40
 8000616:	631a      	str	r2, [r3, #48]	@ 0x30
 8000618:	6b1a      	ldr	r2, [r3, #48]	@ 0x30
 800061a:	f002 0240 	and.w	r2, r2, #64	@ 0x40
 800061e:	9205      	str	r2, [sp, #20]
 8000620:	9a05      	ldr	r2, [sp, #20]
 8000622:	6b1a      	ldr	r2, [r3, #48]	@ 0x30
 8000624:	f042 0208 	orr.w	r2, r2, #8
 8000628:	631a      	str	r2, [r3, #48]	@ 0x30
 800062a:	2200      	movs	r2, #0
 800062c:	6b1b      	ldr	r3, [r3, #48]	@ 0x30
 800062e:	f003 0308 	and.w	r3, r3, #8
 8000632:	9306      	str	r3, [sp, #24]
 8000634:	9b06      	ldr	r3, [sp, #24]
 8000636:	f001 ff75 	bl	8002524 <HAL_GPIO_WritePin>
 800063a:	4650      	mov	r0, sl
 800063c:	2200      	movs	r2, #0
 800063e:	f244 0181 	movw	r1, #16513	@ 0x4081
 8000642:	f001 ff6f 	bl	8002524 <HAL_GPIO_WritePin>
 8000646:	4628      	mov	r0, r5
 8000648:	2200      	movs	r2, #0
 800064a:	2141      	movs	r1, #65	@ 0x41
 800064c:	f001 ff6a 	bl	8002524 <HAL_GPIO_WritePin>
 8000650:	4658      	mov	r0, fp
 8000652:	2200      	movs	r2, #0
 8000654:	2110      	movs	r1, #16
 8000656:	f001 ff65 	bl	8002524 <HAL_GPIO_WritePin>
 800065a:	2241      	movs	r2, #65	@ 0x41
 800065c:	a907      	add	r1, sp, #28
 800065e:	4630      	mov	r0, r6
 8000660:	260b      	movs	r6, #11
 8000662:	e9cd 2907 	strd	r2, r9, [sp, #28]
 8000666:	e9cd 4409 	strd	r4, r4, [sp, #36]	@ 0x24
 800066a:	f001 fe71 	bl	8002350 <HAL_GPIO_Init>
 800066e:	f44f 5300 	mov.w	r3, #8192	@ 0x2000
 8000672:	f44f 1104 	mov.w	r1, #2162688	@ 0x210000
 8000676:	4833      	ldr	r0, [pc, #204]	@ (8000744 <MX_GPIO_Init+0x1bc>)
 8000678:	9409      	str	r4, [sp, #36]	@ 0x24
 800067a:	e9cd 3107 	strd	r3, r1, [sp, #28]
 800067e:	a907      	add	r1, sp, #28
 8000680:	f001 fe66 	bl	8002350 <HAL_GPIO_Init>
 8000684:	2132      	movs	r1, #50	@ 0x32
 8000686:	482f      	ldr	r0, [pc, #188]	@ (8000744 <MX_GPIO_Init+0x1bc>)
 8000688:	9409      	str	r4, [sp, #36]	@ 0x24
 800068a:	e9cd 1807 	strd	r1, r8, [sp, #28]
 800068e:	a907      	add	r1, sp, #28
 8000690:	e9cd 760a 	strd	r7, r6, [sp, #40]	@ 0x28
 8000694:	f001 fe5c 	bl	8002350 <HAL_GPIO_Init>
 8000698:	2186      	movs	r1, #134	@ 0x86
 800069a:	482b      	ldr	r0, [pc, #172]	@ (8000748 <MX_GPIO_Init+0x1c0>)
 800069c:	960b      	str	r6, [sp, #44]	@ 0x2c
 800069e:	e9cd 1807 	strd	r1, r8, [sp, #28]
 80006a2:	a907      	add	r1, sp, #28
 80006a4:	e9cd 4709 	strd	r4, r7, [sp, #36]	@ 0x24
 80006a8:	f001 fe52 	bl	8002350 <HAL_GPIO_Init>
 80006ac:	f244 0181 	movw	r1, #16513	@ 0x4081
 80006b0:	4650      	mov	r0, sl
 80006b2:	e9cd 1907 	strd	r1, r9, [sp, #28]
 80006b6:	a907      	add	r1, sp, #28
 80006b8:	e9cd 4409 	strd	r4, r4, [sp, #36]	@ 0x24
 80006bc:	f001 fe48 	bl	8002350 <HAL_GPIO_Init>
 80006c0:	2241      	movs	r2, #65	@ 0x41
 80006c2:	a907      	add	r1, sp, #28
 80006c4:	4628      	mov	r0, r5
 80006c6:	e9cd 2907 	strd	r2, r9, [sp, #28]
 80006ca:	e9cd 4409 	strd	r4, r4, [sp, #36]	@ 0x24
 80006ce:	f001 fe3f 	bl	8002350 <HAL_GPIO_Init>
 80006d2:	f44f 5300 	mov.w	r3, #8192	@ 0x2000
 80006d6:	a907      	add	r1, sp, #28
 80006d8:	4650      	mov	r0, sl
 80006da:	960b      	str	r6, [sp, #44]	@ 0x2c
 80006dc:	e9cd 3807 	strd	r3, r8, [sp, #28]
 80006e0:	e9cd 4709 	strd	r4, r7, [sp, #36]	@ 0x24
 80006e4:	f001 fe34 	bl	8002350 <HAL_GPIO_Init>
 80006e8:	2380      	movs	r3, #128	@ 0x80
 80006ea:	a907      	add	r1, sp, #28
 80006ec:	4628      	mov	r0, r5
 80006ee:	9409      	str	r4, [sp, #36]	@ 0x24
 80006f0:	e9cd 3407 	strd	r3, r4, [sp, #28]
 80006f4:	f001 fe2c 	bl	8002350 <HAL_GPIO_Init>
 80006f8:	2310      	movs	r3, #16
 80006fa:	a907      	add	r1, sp, #28
 80006fc:	4658      	mov	r0, fp
 80006fe:	e9cd 3907 	strd	r3, r9, [sp, #28]
 8000702:	e9cd 4409 	strd	r4, r4, [sp, #36]	@ 0x24
 8000706:	f001 fe23 	bl	8002350 <HAL_GPIO_Init>
 800070a:	f44f 5320 	mov.w	r3, #10240	@ 0x2800
 800070e:	a907      	add	r1, sp, #28
 8000710:	4628      	mov	r0, r5
 8000712:	960b      	str	r6, [sp, #44]	@ 0x2c
 8000714:	e9cd 3807 	strd	r3, r8, [sp, #28]
 8000718:	e9cd 4709 	strd	r4, r7, [sp, #36]	@ 0x24
 800071c:	f001 fe18 	bl	8002350 <HAL_GPIO_Init>
 8000720:	4622      	mov	r2, r4
 8000722:	2105      	movs	r1, #5
 8000724:	2028      	movs	r0, #40	@ 0x28
 8000726:	f001 fc1d 	bl	8001f64 <HAL_NVIC_SetPriority>
 800072a:	2028      	movs	r0, #40	@ 0x28
 800072c:	f001 fc4c 	bl	8001fc8 <HAL_NVIC_EnableIRQ>
 8000730:	b00d      	add	sp, #52	@ 0x34
 8000732:	e8bd 8ff0 	ldmia.w	sp!, {r4, r5, r6, r7, r8, r9, sl, fp, pc}
 8000736:	bf00      	nop
 8000738:	40021000 	.word	0x40021000
 800073c:	40023800 	.word	0x40023800
 8000740:	40021800 	.word	0x40021800
 8000744:	40020800 	.word	0x40020800
 8000748:	40020000 	.word	0x40020000
 800074c:	40020400 	.word	0x40020400
 8000750:	40020c00 	.word	0x40020c00

08000754 <SystemClock_Config>:
 8000754:	b510      	push	{r4, lr}
 8000756:	b094      	sub	sp, #80	@ 0x50
 8000758:	2234      	movs	r2, #52	@ 0x34
 800075a:	2100      	movs	r1, #0
 800075c:	2402      	movs	r4, #2
 800075e:	a807      	add	r0, sp, #28
 8000760:	f006 f94c 	bl	80069fc <memset>
 8000764:	2214      	movs	r2, #20
 8000766:	2100      	movs	r1, #0
 8000768:	a802      	add	r0, sp, #8
 800076a:	f006 f947 	bl	80069fc <memset>
 800076e:	f001 ff7b 	bl	8002668 <HAL_PWR_EnableBkUpAccess>
 8000772:	4b21      	ldr	r3, [pc, #132]	@ (80007f8 <SystemClock_Config+0xa4>)
 8000774:	a807      	add	r0, sp, #28
 8000776:	6c1a      	ldr	r2, [r3, #64]	@ 0x40
 8000778:	f042 5280 	orr.w	r2, r2, #268435456	@ 0x10000000
 800077c:	641a      	str	r2, [r3, #64]	@ 0x40
 800077e:	6c1b      	ldr	r3, [r3, #64]	@ 0x40
 8000780:	4a1e      	ldr	r2, [pc, #120]	@ (80007fc <SystemClock_Config+0xa8>)
 8000782:	f003 5380 	and.w	r3, r3, #268435456	@ 0x10000000
 8000786:	9300      	str	r3, [sp, #0]
 8000788:	9b00      	ldr	r3, [sp, #0]
 800078a:	6813      	ldr	r3, [r2, #0]
 800078c:	f423 4340 	bic.w	r3, r3, #49152	@ 0xc000
 8000790:	f443 4380 	orr.w	r3, r3, #16384	@ 0x4000
 8000794:	6013      	str	r3, [r2, #0]
 8000796:	6813      	ldr	r3, [r2, #0]
 8000798:	2201      	movs	r2, #1
 800079a:	9413      	str	r4, [sp, #76]	@ 0x4c
 800079c:	f403 4340 	and.w	r3, r3, #49152	@ 0xc000
 80007a0:	9301      	str	r3, [sp, #4]
 80007a2:	9b01      	ldr	r3, [sp, #4]
 80007a4:	f44f 3380 	mov.w	r3, #65536	@ 0x10000
 80007a8:	e9cd 2307 	strd	r2, r3, [sp, #28]
 80007ac:	f44f 0380 	mov.w	r3, #4194304	@ 0x400000
 80007b0:	2260      	movs	r2, #96	@ 0x60
 80007b2:	e9cd 430d 	strd	r4, r3, [sp, #52]	@ 0x34
 80007b6:	2304      	movs	r3, #4
 80007b8:	e9cd 320f 	strd	r3, r2, [sp, #60]	@ 0x3c
 80007bc:	e9cd 4311 	strd	r4, r3, [sp, #68]	@ 0x44
 80007c0:	f001 ff92 	bl	80026e8 <HAL_RCC_OscConfig>
 80007c4:	b108      	cbz	r0, 80007ca <SystemClock_Config+0x76>
 80007c6:	b672      	cpsid	i
 80007c8:	e7fe      	b.n	80007c8 <SystemClock_Config+0x74>
 80007ca:	f001 ff55 	bl	8002678 <HAL_PWREx_EnableOverDrive>
 80007ce:	b108      	cbz	r0, 80007d4 <SystemClock_Config+0x80>
 80007d0:	b672      	cpsid	i
 80007d2:	e7fe      	b.n	80007d2 <SystemClock_Config+0x7e>
 80007d4:	230f      	movs	r3, #15
 80007d6:	9004      	str	r0, [sp, #16]
 80007d8:	2103      	movs	r1, #3
 80007da:	e9cd 3402 	strd	r3, r4, [sp, #8]
 80007de:	f44f 5380 	mov.w	r3, #4096	@ 0x1000
 80007e2:	e9cd 3005 	strd	r3, r0, [sp, #20]
 80007e6:	a802      	add	r0, sp, #8
 80007e8:	f002 f970 	bl	8002acc <HAL_RCC_ClockConfig>
 80007ec:	b108      	cbz	r0, 80007f2 <SystemClock_Config+0x9e>
 80007ee:	b672      	cpsid	i
 80007f0:	e7fe      	b.n	80007f0 <SystemClock_Config+0x9c>
 80007f2:	b014      	add	sp, #80	@ 0x50
 80007f4:	bd10      	pop	{r4, pc}
 80007f6:	bf00      	nop
 80007f8:	40023800 	.word	0x40023800
 80007fc:	40007000 	.word	0x40007000

08000800 <main>:
 8000800:	b508      	push	{r3, lr}
 8000802:	f001 fb6d 	bl	8001ee0 <HAL_Init>
 8000806:	f7ff ffa5 	bl	8000754 <SystemClock_Config>
 800080a:	f7ff febd 	bl	8000588 <MX_GPIO_Init>
 800080e:	f7ff fe99 	bl	8000544 <MX_DMA_Init>
 8000812:	f001 f9cb 	bl	8001bac <MX_USART3_UART_Init>
 8000816:	f001 faa5 	bl	8001d64 <MX_USB_OTG_FS_PCD_Init>
 800081a:	f001 f9a9 	bl	8001b70 <MX_USART2_UART_Init>
 800081e:	f000 fdad 	bl	800137c <MX_TIM1_Init>
 8000822:	f000 fde1 	bl	80013e8 <MX_TIM3_Init>
 8000826:	f000 fe13 	bl	8001450 <MX_TIM4_Init>
 800082a:	f000 fe69 	bl	8001500 <MX_TIM8_Init>
 800082e:	f001 f8e9 	bl	8001a04 <MX_TIM2_Init>
 8000832:	f000 fe41 	bl	80014b8 <MX_TIM6_Init>
 8000836:	f001 f927 	bl	8001a88 <MX_TIM5_Init>
 800083a:	f001 f969 	bl	8001b10 <MX_TIM12_Init>
 800083e:	f000 fe95 	bl	800156c <MX_TIM9_Init>
 8000842:	f04f 33ff 	mov.w	r3, #4294967295
 8000846:	222a      	movs	r2, #42	@ 0x2a
 8000848:	4908      	ldr	r1, [pc, #32]	@ (800086c <main+0x6c>)
 800084a:	4809      	ldr	r0, [pc, #36]	@ (8000870 <main+0x70>)
 800084c:	f003 fff5 	bl	800483a <HAL_UART_Transmit>
 8000850:	2201      	movs	r2, #1
 8000852:	4908      	ldr	r1, [pc, #32]	@ (8000874 <main+0x74>)
 8000854:	4808      	ldr	r0, [pc, #32]	@ (8000878 <main+0x78>)
 8000856:	f004 f923 	bl	8004aa0 <HAL_UART_Receive_IT>
 800085a:	f000 fb11 	bl	8000e80 <Init_MotorSystem>
 800085e:	f004 fae3 	bl	8004e28 <osKernelInitialize>
 8000862:	f7ff fe8f 	bl	8000584 <MX_FREERTOS_Init>
 8000866:	f004 faf9 	bl	8004e5c <osKernelStart>
 800086a:	e7fe      	b.n	800086a <main+0x6a>
 800086c:	08006ab8 	.word	0x08006ab8
 8000870:	200004d0 	.word	0x200004d0
 8000874:	200000dd 	.word	0x200000dd
 8000878:	20000558 	.word	0x20000558

0800087c <Error_Handler>:
 800087c:	b672      	cpsid	i
 800087e:	e7fe      	b.n	800087e <Error_Handler+0x2>

08000880 <Set_PWM_Frequency>:
 8000880:	4602      	mov	r2, r0
 8000882:	b918      	cbnz	r0, 800088c <Set_PWM_Frequency+0xc>
 8000884:	2104      	movs	r1, #4
 8000886:	4809      	ldr	r0, [pc, #36]	@ (80008ac <Set_PWM_Frequency+0x2c>)
 8000888:	f003 bb8c 	b.w	8003fa4 <HAL_TIM_PWM_Stop>
 800088c:	4807      	ldr	r0, [pc, #28]	@ (80008ac <Set_PWM_Frequency+0x2c>)
 800088e:	2104      	movs	r1, #4
 8000890:	6843      	ldr	r3, [r0, #4]
 8000892:	fb03 2202 	mla	r2, r3, r2, r2
 8000896:	4b06      	ldr	r3, [pc, #24]	@ (80008b0 <Set_PWM_Frequency+0x30>)
 8000898:	fbb3 f3f2 	udiv	r3, r3, r2
 800089c:	6802      	ldr	r2, [r0, #0]
 800089e:	3b01      	subs	r3, #1
 80008a0:	62d3      	str	r3, [r2, #44]	@ 0x2c
 80008a2:	60c3      	str	r3, [r0, #12]
 80008a4:	085b      	lsrs	r3, r3, #1
 80008a6:	6393      	str	r3, [r2, #56]	@ 0x38
 80008a8:	f003 bb2e 	b.w	8003f08 <HAL_TIM_PWM_Start>
 80008ac:	20000164 	.word	0x20000164
 80008b0:	05b8d800 	.word	0x05b8d800

080008b4 <Command_Engine>:
 80008b4:	b570      	push	{r4, r5, r6, lr}
 80008b6:	4d2e      	ldr	r5, [pc, #184]	@ (8000970 <Command_Engine+0xbc>)
 80008b8:	682c      	ldr	r4, [r5, #0]
 80008ba:	bb6c      	cbnz	r4, 8000918 <Command_Engine+0x64>
 80008bc:	213c      	movs	r1, #60	@ 0x3c
 80008be:	482d      	ldr	r0, [pc, #180]	@ (8000974 <Command_Engine+0xc0>)
 80008c0:	f002 fde5 	bl	800348e <HAL_TIM_Encoder_Start>
 80008c4:	213c      	movs	r1, #60	@ 0x3c
 80008c6:	482c      	ldr	r0, [pc, #176]	@ (8000978 <Command_Engine+0xc4>)
 80008c8:	f002 fde1 	bl	800348e <HAL_TIM_Encoder_Start>
 80008cc:	213c      	movs	r1, #60	@ 0x3c
 80008ce:	482b      	ldr	r0, [pc, #172]	@ (800097c <Command_Engine+0xc8>)
 80008d0:	f002 fddd 	bl	800348e <HAL_TIM_Encoder_Start>
 80008d4:	213c      	movs	r1, #60	@ 0x3c
 80008d6:	482a      	ldr	r0, [pc, #168]	@ (8000980 <Command_Engine+0xcc>)
 80008d8:	f002 fdd9 	bl	800348e <HAL_TIM_Encoder_Start>
 80008dc:	4621      	mov	r1, r4
 80008de:	4829      	ldr	r0, [pc, #164]	@ (8000984 <Command_Engine+0xd0>)
 80008e0:	f003 fb12 	bl	8003f08 <HAL_TIM_PWM_Start>
 80008e4:	210c      	movs	r1, #12
 80008e6:	4827      	ldr	r0, [pc, #156]	@ (8000984 <Command_Engine+0xd0>)
 80008e8:	f003 fb0e 	bl	8003f08 <HAL_TIM_PWM_Start>
 80008ec:	4621      	mov	r1, r4
 80008ee:	4826      	ldr	r0, [pc, #152]	@ (8000988 <Command_Engine+0xd4>)
 80008f0:	f003 fb0a 	bl	8003f08 <HAL_TIM_PWM_Start>
 80008f4:	210c      	movs	r1, #12
 80008f6:	4824      	ldr	r0, [pc, #144]	@ (8000988 <Command_Engine+0xd4>)
 80008f8:	f003 fb06 	bl	8003f08 <HAL_TIM_PWM_Start>
 80008fc:	4823      	ldr	r0, [pc, #140]	@ (800098c <Command_Engine+0xd8>)
 80008fe:	f002 fd6f 	bl	80033e0 <HAL_TIM_Base_Start_IT>
 8000902:	2301      	movs	r3, #1
 8000904:	602b      	str	r3, [r5, #0]
 8000906:	2211      	movs	r2, #17
 8000908:	f04f 33ff 	mov.w	r3, #4294967295
 800090c:	4920      	ldr	r1, [pc, #128]	@ (8000990 <Command_Engine+0xdc>)
 800090e:	4821      	ldr	r0, [pc, #132]	@ (8000994 <Command_Engine+0xe0>)
 8000910:	e8bd 4070 	ldmia.w	sp!, {r4, r5, r6, lr}
 8000914:	f003 bf91 	b.w	800483a <HAL_UART_Transmit>
 8000918:	481f      	ldr	r0, [pc, #124]	@ (8000998 <Command_Engine+0xe4>)
 800091a:	f000 f9db 	bl	8000cd4 <ResetMotor>
 800091e:	481f      	ldr	r0, [pc, #124]	@ (800099c <Command_Engine+0xe8>)
 8000920:	f000 f9d8 	bl	8000cd4 <ResetMotor>
 8000924:	213c      	movs	r1, #60	@ 0x3c
 8000926:	4813      	ldr	r0, [pc, #76]	@ (8000974 <Command_Engine+0xc0>)
 8000928:	f002 fe0a 	bl	8003540 <HAL_TIM_Encoder_Stop>
 800092c:	213c      	movs	r1, #60	@ 0x3c
 800092e:	4812      	ldr	r0, [pc, #72]	@ (8000978 <Command_Engine+0xc4>)
 8000930:	f002 fe06 	bl	8003540 <HAL_TIM_Encoder_Stop>
 8000934:	213c      	movs	r1, #60	@ 0x3c
 8000936:	4811      	ldr	r0, [pc, #68]	@ (800097c <Command_Engine+0xc8>)
 8000938:	f002 fe02 	bl	8003540 <HAL_TIM_Encoder_Stop>
 800093c:	213c      	movs	r1, #60	@ 0x3c
 800093e:	4810      	ldr	r0, [pc, #64]	@ (8000980 <Command_Engine+0xcc>)
 8000940:	f002 fdfe 	bl	8003540 <HAL_TIM_Encoder_Stop>
 8000944:	2100      	movs	r1, #0
 8000946:	480f      	ldr	r0, [pc, #60]	@ (8000984 <Command_Engine+0xd0>)
 8000948:	f003 fb2c 	bl	8003fa4 <HAL_TIM_PWM_Stop>
 800094c:	210c      	movs	r1, #12
 800094e:	480d      	ldr	r0, [pc, #52]	@ (8000984 <Command_Engine+0xd0>)
 8000950:	f003 fb28 	bl	8003fa4 <HAL_TIM_PWM_Stop>
 8000954:	2100      	movs	r1, #0
 8000956:	480c      	ldr	r0, [pc, #48]	@ (8000988 <Command_Engine+0xd4>)
 8000958:	f003 fb24 	bl	8003fa4 <HAL_TIM_PWM_Stop>
 800095c:	210c      	movs	r1, #12
 800095e:	480a      	ldr	r0, [pc, #40]	@ (8000988 <Command_Engine+0xd4>)
 8000960:	f003 fb20 	bl	8003fa4 <HAL_TIM_PWM_Stop>
 8000964:	4809      	ldr	r0, [pc, #36]	@ (800098c <Command_Engine+0xd8>)
 8000966:	f002 fd79 	bl	800345c <HAL_TIM_Base_Stop_IT>
 800096a:	2300      	movs	r3, #0
 800096c:	e7ca      	b.n	8000904 <Command_Engine+0x50>
 800096e:	bf00      	nop
 8000970:	20000080 	.word	0x20000080
 8000974:	200003c4 	.word	0x200003c4
 8000978:	2000032c 	.word	0x2000032c
 800097c:	200002e0 	.word	0x200002e0
 8000980:	200001fc 	.word	0x200001fc
 8000984:	20000378 	.word	0x20000378
 8000988:	20000294 	.word	0x20000294
 800098c:	20000248 	.word	0x20000248
 8000990:	08006ae3 	.word	0x08006ae3
 8000994:	200004d0 	.word	0x200004d0
 8000998:	2000011c 	.word	0x2000011c
 800099c:	200000e0 	.word	0x200000e0

080009a0 <Command_Lights>:
 80009a0:	2101      	movs	r1, #1
 80009a2:	4806      	ldr	r0, [pc, #24]	@ (80009bc <Command_Lights+0x1c>)
 80009a4:	b510      	push	{r4, lr}
 80009a6:	f001 fdc2 	bl	800252e <HAL_GPIO_TogglePin>
 80009aa:	f04f 33ff 	mov.w	r3, #4294967295
 80009ae:	2211      	movs	r2, #17
 80009b0:	4903      	ldr	r1, [pc, #12]	@ (80009c0 <Command_Lights+0x20>)
 80009b2:	4804      	ldr	r0, [pc, #16]	@ (80009c4 <Command_Lights+0x24>)
 80009b4:	e8bd 4010 	ldmia.w	sp!, {r4, lr}
 80009b8:	f003 bf3f 	b.w	800483a <HAL_UART_Transmit>
 80009bc:	40021800 	.word	0x40021800
 80009c0:	08006af5 	.word	0x08006af5
 80009c4:	200004d0 	.word	0x200004d0

080009c8 <Command_Horn>:
 80009c8:	b510      	push	{r4, lr}
 80009ca:	4c0c      	ldr	r4, [pc, #48]	@ (80009fc <Command_Horn+0x34>)
 80009cc:	6823      	ldr	r3, [r4, #0]
 80009ce:	b973      	cbnz	r3, 80009ee <Command_Horn+0x26>
 80009d0:	f44f 707a 	mov.w	r0, #1000	@ 0x3e8
 80009d4:	f7ff ff54 	bl	8000880 <Set_PWM_Frequency>
 80009d8:	2301      	movs	r3, #1
 80009da:	6023      	str	r3, [r4, #0]
 80009dc:	220f      	movs	r2, #15
 80009de:	f04f 33ff 	mov.w	r3, #4294967295
 80009e2:	4907      	ldr	r1, [pc, #28]	@ (8000a00 <Command_Horn+0x38>)
 80009e4:	4807      	ldr	r0, [pc, #28]	@ (8000a04 <Command_Horn+0x3c>)
 80009e6:	e8bd 4010 	ldmia.w	sp!, {r4, lr}
 80009ea:	f003 bf26 	b.w	800483a <HAL_UART_Transmit>
 80009ee:	2104      	movs	r1, #4
 80009f0:	4805      	ldr	r0, [pc, #20]	@ (8000a08 <Command_Horn+0x40>)
 80009f2:	f003 fad7 	bl	8003fa4 <HAL_TIM_PWM_Stop>
 80009f6:	2300      	movs	r3, #0
 80009f8:	e7ef      	b.n	80009da <Command_Horn+0x12>
 80009fa:	bf00      	nop
 80009fc:	20000088 	.word	0x20000088
 8000a00:	08006b07 	.word	0x08006b07
 8000a04:	200004d0 	.word	0x200004d0
 8000a08:	20000164 	.word	0x20000164

08000a0c <Command_ABS>:
 8000a0c:	b510      	push	{r4, lr}
 8000a0e:	4807      	ldr	r0, [pc, #28]	@ (8000a2c <Command_ABS+0x20>)
 8000a10:	f000 f960 	bl	8000cd4 <ResetMotor>
 8000a14:	4806      	ldr	r0, [pc, #24]	@ (8000a30 <Command_ABS+0x24>)
 8000a16:	f000 f95d 	bl	8000cd4 <ResetMotor>
 8000a1a:	f04f 33ff 	mov.w	r3, #4294967295
 8000a1e:	220e      	movs	r2, #14
 8000a20:	4904      	ldr	r1, [pc, #16]	@ (8000a34 <Command_ABS+0x28>)
 8000a22:	4805      	ldr	r0, [pc, #20]	@ (8000a38 <Command_ABS+0x2c>)
 8000a24:	e8bd 4010 	ldmia.w	sp!, {r4, lr}
 8000a28:	f003 bf07 	b.w	800483a <HAL_UART_Transmit>
 8000a2c:	2000011c 	.word	0x2000011c
 8000a30:	200000e0 	.word	0x200000e0
 8000a34:	08006b17 	.word	0x08006b17
 8000a38:	200004d0 	.word	0x200004d0

08000a3c <Command_Motors>:
 8000a3c:	3003      	adds	r0, #3
 8000a3e:	b510      	push	{r4, lr}
 8000a40:	f005 ff54 	bl	80068ec <atoi>
 8000a44:	1e43      	subs	r3, r0, #1
 8000a46:	2b08      	cmp	r3, #8
 8000a48:	d87b      	bhi.n	8000b42 <Command_Motors+0x106>
 8000a4a:	3802      	subs	r0, #2
 8000a4c:	2807      	cmp	r0, #7
 8000a4e:	d805      	bhi.n	8000a5c <Command_Motors+0x20>
 8000a50:	e8df f000 	tbb	[pc, r0]
 8000a54:	392f2617 	.word	0x392f2617
 8000a58:	695f5047 	.word	0x695f5047
 8000a5c:	f04f 33ff 	mov.w	r3, #4294967295
 8000a60:	2213      	movs	r2, #19
 8000a62:	493c      	ldr	r1, [pc, #240]	@ (8000b54 <Command_Motors+0x118>)
 8000a64:	483c      	ldr	r0, [pc, #240]	@ (8000b58 <Command_Motors+0x11c>)
 8000a66:	f003 fee8 	bl	800483a <HAL_UART_Transmit>
 8000a6a:	2200      	movs	r2, #0
 8000a6c:	483b      	ldr	r0, [pc, #236]	@ (8000b5c <Command_Motors+0x120>)
 8000a6e:	4611      	mov	r1, r2
 8000a70:	f000 f962 	bl	8000d38 <motor_set_speed>
 8000a74:	2200      	movs	r2, #0
 8000a76:	4611      	mov	r1, r2
 8000a78:	4839      	ldr	r0, [pc, #228]	@ (8000b60 <Command_Motors+0x124>)
 8000a7a:	e8bd 4010 	ldmia.w	sp!, {r4, lr}
 8000a7e:	f000 b95b 	b.w	8000d38 <motor_set_speed>
 8000a82:	2213      	movs	r2, #19
 8000a84:	f04f 33ff 	mov.w	r3, #4294967295
 8000a88:	4936      	ldr	r1, [pc, #216]	@ (8000b64 <Command_Motors+0x128>)
 8000a8a:	4833      	ldr	r0, [pc, #204]	@ (8000b58 <Command_Motors+0x11c>)
 8000a8c:	f003 fed5 	bl	800483a <HAL_UART_Transmit>
 8000a90:	225d      	movs	r2, #93	@ 0x5d
 8000a92:	2101      	movs	r1, #1
 8000a94:	4831      	ldr	r0, [pc, #196]	@ (8000b5c <Command_Motors+0x120>)
 8000a96:	f000 f94f 	bl	8000d38 <motor_set_speed>
 8000a9a:	2264      	movs	r2, #100	@ 0x64
 8000a9c:	2101      	movs	r1, #1
 8000a9e:	e7eb      	b.n	8000a78 <Command_Motors+0x3c>
 8000aa0:	2213      	movs	r2, #19
 8000aa2:	f04f 33ff 	mov.w	r3, #4294967295
 8000aa6:	4930      	ldr	r1, [pc, #192]	@ (8000b68 <Command_Motors+0x12c>)
 8000aa8:	482b      	ldr	r0, [pc, #172]	@ (8000b58 <Command_Motors+0x11c>)
 8000aaa:	f003 fec6 	bl	800483a <HAL_UART_Transmit>
 8000aae:	2232      	movs	r2, #50	@ 0x32
 8000ab0:	e7ef      	b.n	8000a92 <Command_Motors+0x56>
 8000ab2:	2213      	movs	r2, #19
 8000ab4:	492d      	ldr	r1, [pc, #180]	@ (8000b6c <Command_Motors+0x130>)
 8000ab6:	f04f 33ff 	mov.w	r3, #4294967295
 8000aba:	4827      	ldr	r0, [pc, #156]	@ (8000b58 <Command_Motors+0x11c>)
 8000abc:	f003 febd 	bl	800483a <HAL_UART_Transmit>
 8000ac0:	2264      	movs	r2, #100	@ 0x64
 8000ac2:	2102      	movs	r1, #2
 8000ac4:	e7e6      	b.n	8000a94 <Command_Motors+0x58>
 8000ac6:	2213      	movs	r2, #19
 8000ac8:	f04f 33ff 	mov.w	r3, #4294967295
 8000acc:	4928      	ldr	r1, [pc, #160]	@ (8000b70 <Command_Motors+0x134>)
 8000ace:	4822      	ldr	r0, [pc, #136]	@ (8000b58 <Command_Motors+0x11c>)
 8000ad0:	f003 feb3 	bl	800483a <HAL_UART_Transmit>
 8000ad4:	2232      	movs	r2, #50	@ 0x32
 8000ad6:	2102      	movs	r1, #2
 8000ad8:	4820      	ldr	r0, [pc, #128]	@ (8000b5c <Command_Motors+0x120>)
 8000ada:	f000 f92d 	bl	8000d38 <motor_set_speed>
 8000ade:	2264      	movs	r2, #100	@ 0x64
 8000ae0:	e015      	b.n	8000b0e <Command_Motors+0xd2>
 8000ae2:	2213      	movs	r2, #19
 8000ae4:	f04f 33ff 	mov.w	r3, #4294967295
 8000ae8:	4922      	ldr	r1, [pc, #136]	@ (8000b74 <Command_Motors+0x138>)
 8000aea:	481b      	ldr	r0, [pc, #108]	@ (8000b58 <Command_Motors+0x11c>)
 8000aec:	f003 fea5 	bl	800483a <HAL_UART_Transmit>
 8000af0:	2264      	movs	r2, #100	@ 0x64
 8000af2:	e7f0      	b.n	8000ad6 <Command_Motors+0x9a>
 8000af4:	f04f 33ff 	mov.w	r3, #4294967295
 8000af8:	2213      	movs	r2, #19
 8000afa:	491f      	ldr	r1, [pc, #124]	@ (8000b78 <Command_Motors+0x13c>)
 8000afc:	4816      	ldr	r0, [pc, #88]	@ (8000b58 <Command_Motors+0x11c>)
 8000afe:	f003 fe9c 	bl	800483a <HAL_UART_Transmit>
 8000b02:	2264      	movs	r2, #100	@ 0x64
 8000b04:	2102      	movs	r1, #2
 8000b06:	4815      	ldr	r0, [pc, #84]	@ (8000b5c <Command_Motors+0x120>)
 8000b08:	f000 f916 	bl	8000d38 <motor_set_speed>
 8000b0c:	2232      	movs	r2, #50	@ 0x32
 8000b0e:	2102      	movs	r1, #2
 8000b10:	e7b2      	b.n	8000a78 <Command_Motors+0x3c>
 8000b12:	2213      	movs	r2, #19
 8000b14:	4919      	ldr	r1, [pc, #100]	@ (8000b7c <Command_Motors+0x140>)
 8000b16:	f04f 33ff 	mov.w	r3, #4294967295
 8000b1a:	480f      	ldr	r0, [pc, #60]	@ (8000b58 <Command_Motors+0x11c>)
 8000b1c:	f003 fe8d 	bl	800483a <HAL_UART_Transmit>
 8000b20:	2264      	movs	r2, #100	@ 0x64
 8000b22:	2101      	movs	r1, #1
 8000b24:	e7d8      	b.n	8000ad8 <Command_Motors+0x9c>
 8000b26:	f04f 33ff 	mov.w	r3, #4294967295
 8000b2a:	2213      	movs	r2, #19
 8000b2c:	4914      	ldr	r1, [pc, #80]	@ (8000b80 <Command_Motors+0x144>)
 8000b2e:	480a      	ldr	r0, [pc, #40]	@ (8000b58 <Command_Motors+0x11c>)
 8000b30:	f003 fe83 	bl	800483a <HAL_UART_Transmit>
 8000b34:	2264      	movs	r2, #100	@ 0x64
 8000b36:	2101      	movs	r1, #1
 8000b38:	4808      	ldr	r0, [pc, #32]	@ (8000b5c <Command_Motors+0x120>)
 8000b3a:	f000 f8fd 	bl	8000d38 <motor_set_speed>
 8000b3e:	2232      	movs	r2, #50	@ 0x32
 8000b40:	e7ac      	b.n	8000a9c <Command_Motors+0x60>
 8000b42:	f04f 33ff 	mov.w	r3, #4294967295
 8000b46:	2216      	movs	r2, #22
 8000b48:	490e      	ldr	r1, [pc, #56]	@ (8000b84 <Command_Motors+0x148>)
 8000b4a:	4803      	ldr	r0, [pc, #12]	@ (8000b58 <Command_Motors+0x11c>)
 8000b4c:	e8bd 4010 	ldmia.w	sp!, {r4, lr}
 8000b50:	f003 be73 	b.w	800483a <HAL_UART_Transmit>
 8000b54:	08006b26 	.word	0x08006b26
 8000b58:	200004d0 	.word	0x200004d0
 8000b5c:	2000011c 	.word	0x2000011c
 8000b60:	200000e0 	.word	0x200000e0
 8000b64:	08006b39 	.word	0x08006b39
 8000b68:	08006b4c 	.word	0x08006b4c
 8000b6c:	08006b5f 	.word	0x08006b5f
 8000b70:	08006b72 	.word	0x08006b72
 8000b74:	08006b85 	.word	0x08006b85
 8000b78:	08006b98 	.word	0x08006b98
 8000b7c:	08006bab 	.word	0x08006bab
 8000b80:	08006bbe 	.word	0x08006bbe
 8000b84:	08006bd1 	.word	0x08006bd1

08000b88 <ProcessCommand>:
 8000b88:	b510      	push	{r4, lr}
 8000b8a:	491f      	ldr	r1, [pc, #124]	@ (8000c08 <ProcessCommand+0x80>)
 8000b8c:	4604      	mov	r4, r0
 8000b8e:	f7ff fb57 	bl	8000240 <strcmp>
 8000b92:	b3b8      	cbz	r0, 8000c04 <ProcessCommand+0x7c>
 8000b94:	491d      	ldr	r1, [pc, #116]	@ (8000c0c <ProcessCommand+0x84>)
 8000b96:	4620      	mov	r0, r4
 8000b98:	f7ff fb52 	bl	8000240 <strcmp>
 8000b9c:	b918      	cbnz	r0, 8000ba6 <ProcessCommand+0x1e>
 8000b9e:	e8bd 4010 	ldmia.w	sp!, {r4, lr}
 8000ba2:	f7ff be87 	b.w	80008b4 <Command_Engine>
 8000ba6:	491a      	ldr	r1, [pc, #104]	@ (8000c10 <ProcessCommand+0x88>)
 8000ba8:	4620      	mov	r0, r4
 8000baa:	f7ff fb49 	bl	8000240 <strcmp>
 8000bae:	b918      	cbnz	r0, 8000bb8 <ProcessCommand+0x30>
 8000bb0:	e8bd 4010 	ldmia.w	sp!, {r4, lr}
 8000bb4:	f7ff bef4 	b.w	80009a0 <Command_Lights>
 8000bb8:	4916      	ldr	r1, [pc, #88]	@ (8000c14 <ProcessCommand+0x8c>)
 8000bba:	4620      	mov	r0, r4
 8000bbc:	f7ff fb40 	bl	8000240 <strcmp>
 8000bc0:	b918      	cbnz	r0, 8000bca <ProcessCommand+0x42>
 8000bc2:	e8bd 4010 	ldmia.w	sp!, {r4, lr}
 8000bc6:	f7ff beff 	b.w	80009c8 <Command_Horn>
 8000bca:	4913      	ldr	r1, [pc, #76]	@ (8000c18 <ProcessCommand+0x90>)
 8000bcc:	4620      	mov	r0, r4
 8000bce:	f7ff fb37 	bl	8000240 <strcmp>
 8000bd2:	b918      	cbnz	r0, 8000bdc <ProcessCommand+0x54>
 8000bd4:	e8bd 4010 	ldmia.w	sp!, {r4, lr}
 8000bd8:	f7ff bf18 	b.w	8000a0c <Command_ABS>
 8000bdc:	2203      	movs	r2, #3
 8000bde:	490f      	ldr	r1, [pc, #60]	@ (8000c1c <ProcessCommand+0x94>)
 8000be0:	4620      	mov	r0, r4
 8000be2:	f005 ff13 	bl	8006a0c <strncmp>
 8000be6:	b920      	cbnz	r0, 8000bf2 <ProcessCommand+0x6a>
 8000be8:	4620      	mov	r0, r4
 8000bea:	e8bd 4010 	ldmia.w	sp!, {r4, lr}
 8000bee:	f7ff bf25 	b.w	8000a3c <Command_Motors>
 8000bf2:	f04f 33ff 	mov.w	r3, #4294967295
 8000bf6:	2212      	movs	r2, #18
 8000bf8:	4909      	ldr	r1, [pc, #36]	@ (8000c20 <ProcessCommand+0x98>)
 8000bfa:	480a      	ldr	r0, [pc, #40]	@ (8000c24 <ProcessCommand+0x9c>)
 8000bfc:	e8bd 4010 	ldmia.w	sp!, {r4, lr}
 8000c00:	f003 be1b 	b.w	800483a <HAL_UART_Transmit>
 8000c04:	bd10      	pop	{r4, pc}
 8000c06:	bf00      	nop
 8000c08:	08006be7 	.word	0x08006be7
 8000c0c:	08006bec 	.word	0x08006bec
 8000c10:	08006bf1 	.word	0x08006bf1
 8000c14:	08006bf6 	.word	0x08006bf6
 8000c18:	08006bfb 	.word	0x08006bfb
 8000c1c:	08006c00 	.word	0x08006c00
 8000c20:	08006c04 	.word	0x08006c04
 8000c24:	200004d0 	.word	0x200004d0

08000c28 <HAL_UART_RxCpltCallback>:
 8000c28:	6802      	ldr	r2, [r0, #0]
 8000c2a:	b538      	push	{r3, r4, r5, lr}
 8000c2c:	4b0f      	ldr	r3, [pc, #60]	@ (8000c6c <HAL_UART_RxCpltCallback+0x44>)
 8000c2e:	429a      	cmp	r2, r3
 8000c30:	d11a      	bne.n	8000c68 <HAL_UART_RxCpltCallback+0x40>
 8000c32:	4d0f      	ldr	r5, [pc, #60]	@ (8000c70 <HAL_UART_RxCpltCallback+0x48>)
 8000c34:	f04f 33ff 	mov.w	r3, #4294967295
 8000c38:	2201      	movs	r2, #1
 8000c3a:	4c0e      	ldr	r4, [pc, #56]	@ (8000c74 <HAL_UART_RxCpltCallback+0x4c>)
 8000c3c:	4629      	mov	r1, r5
 8000c3e:	480e      	ldr	r0, [pc, #56]	@ (8000c78 <HAL_UART_RxCpltCallback+0x50>)
 8000c40:	f003 fdfb 	bl	800483a <HAL_UART_Transmit>
 8000c44:	2201      	movs	r2, #1
 8000c46:	4629      	mov	r1, r5
 8000c48:	480c      	ldr	r0, [pc, #48]	@ (8000c7c <HAL_UART_RxCpltCallback+0x54>)
 8000c4a:	f003 ff29 	bl	8004aa0 <HAL_UART_Receive_IT>
 8000c4e:	7822      	ldrb	r2, [r4, #0]
 8000c50:	480b      	ldr	r0, [pc, #44]	@ (8000c80 <HAL_UART_RxCpltCallback+0x58>)
 8000c52:	1c53      	adds	r3, r2, #1
 8000c54:	7829      	ldrb	r1, [r5, #0]
 8000c56:	b2db      	uxtb	r3, r3
 8000c58:	5481      	strb	r1, [r0, r2]
 8000c5a:	2b04      	cmp	r3, #4
 8000c5c:	7023      	strb	r3, [r4, #0]
 8000c5e:	d103      	bne.n	8000c68 <HAL_UART_RxCpltCallback+0x40>
 8000c60:	f7ff ff92 	bl	8000b88 <ProcessCommand>
 8000c64:	2300      	movs	r3, #0
 8000c66:	7023      	strb	r3, [r4, #0]
 8000c68:	bd38      	pop	{r3, r4, r5, pc}
 8000c6a:	bf00      	nop
 8000c6c:	40004400 	.word	0x40004400
 8000c70:	200000dd 	.word	0x200000dd
 8000c74:	2000009c 	.word	0x2000009c
 8000c78:	200004d0 	.word	0x200004d0
 8000c7c:	20000558 	.word	0x20000558
 8000c80:	2000009d 	.word	0x2000009d

08000c84 <HAL_GPIO_EXTI_Callback>:
 8000c84:	f5b0 5f00 	cmp.w	r0, #8192	@ 0x2000
 8000c88:	b538      	push	{r3, r4, r5, lr}
 8000c8a:	d11c      	bne.n	8000cc6 <HAL_GPIO_EXTI_Callback+0x42>
 8000c8c:	4d0e      	ldr	r5, [pc, #56]	@ (8000cc8 <HAL_GPIO_EXTI_Callback+0x44>)
 8000c8e:	f001 f93f 	bl	8001f10 <HAL_GetTick>
 8000c92:	4604      	mov	r4, r0
 8000c94:	682b      	ldr	r3, [r5, #0]
 8000c96:	1ac3      	subs	r3, r0, r3
 8000c98:	f5b3 7ffa 	cmp.w	r3, #500	@ 0x1f4
 8000c9c:	d913      	bls.n	8000cc6 <HAL_GPIO_EXTI_Callback+0x42>
 8000c9e:	4a0b      	ldr	r2, [pc, #44]	@ (8000ccc <HAL_GPIO_EXTI_Callback+0x48>)
 8000ca0:	2101      	movs	r1, #1
 8000ca2:	480b      	ldr	r0, [pc, #44]	@ (8000cd0 <HAL_GPIO_EXTI_Callback+0x4c>)
 8000ca4:	6813      	ldr	r3, [r2, #0]
 8000ca6:	fab3 f383 	clz	r3, r3
 8000caa:	095b      	lsrs	r3, r3, #5
 8000cac:	6013      	str	r3, [r2, #0]
 8000cae:	f001 fc3e 	bl	800252e <HAL_GPIO_TogglePin>
 8000cb2:	2180      	movs	r1, #128	@ 0x80
 8000cb4:	4806      	ldr	r0, [pc, #24]	@ (8000cd0 <HAL_GPIO_EXTI_Callback+0x4c>)
 8000cb6:	f001 fc3a 	bl	800252e <HAL_GPIO_TogglePin>
 8000cba:	f44f 4180 	mov.w	r1, #16384	@ 0x4000
 8000cbe:	4804      	ldr	r0, [pc, #16]	@ (8000cd0 <HAL_GPIO_EXTI_Callback+0x4c>)
 8000cc0:	f001 fc35 	bl	800252e <HAL_GPIO_TogglePin>
 8000cc4:	602c      	str	r4, [r5, #0]
 8000cc6:	bd38      	pop	{r3, r4, r5, pc}
 8000cc8:	2000007c 	.word	0x2000007c
 8000ccc:	20000084 	.word	0x20000084
 8000cd0:	40020400 	.word	0x40020400

08000cd4 <ResetMotor>:
 8000cd4:	6802      	ldr	r2, [r0, #0]
 8000cd6:	2300      	movs	r3, #0
 8000cd8:	6811      	ldr	r1, [r2, #0]
 8000cda:	61c3      	str	r3, [r0, #28]
 8000cdc:	6a4a      	ldr	r2, [r1, #36]	@ 0x24
 8000cde:	b212      	sxth	r2, r2
 8000ce0:	6142      	str	r2, [r0, #20]
 8000ce2:	6842      	ldr	r2, [r0, #4]
 8000ce4:	624b      	str	r3, [r1, #36]	@ 0x24
 8000ce6:	68c1      	ldr	r1, [r0, #12]
 8000ce8:	6880      	ldr	r0, [r0, #8]
 8000cea:	6812      	ldr	r2, [r2, #0]
 8000cec:	6800      	ldr	r0, [r0, #0]
 8000cee:	b911      	cbnz	r1, 8000cf6 <ResetMotor+0x22>
 8000cf0:	6351      	str	r1, [r2, #52]	@ 0x34
 8000cf2:	6341      	str	r1, [r0, #52]	@ 0x34
 8000cf4:	4770      	bx	lr
 8000cf6:	290c      	cmp	r1, #12
 8000cf8:	d013      	beq.n	8000d22 <ResetMotor+0x4e>
 8000cfa:	d807      	bhi.n	8000d0c <ResetMotor+0x38>
 8000cfc:	2904      	cmp	r1, #4
 8000cfe:	d00a      	beq.n	8000d16 <ResetMotor+0x42>
 8000d00:	2908      	cmp	r1, #8
 8000d02:	d00b      	beq.n	8000d1c <ResetMotor+0x48>
 8000d04:	65d3      	str	r3, [r2, #92]	@ 0x5c
 8000d06:	2300      	movs	r3, #0
 8000d08:	65c3      	str	r3, [r0, #92]	@ 0x5c
 8000d0a:	4770      	bx	lr
 8000d0c:	2910      	cmp	r1, #16
 8000d0e:	d1f9      	bne.n	8000d04 <ResetMotor+0x30>
 8000d10:	6593      	str	r3, [r2, #88]	@ 0x58
 8000d12:	6583      	str	r3, [r0, #88]	@ 0x58
 8000d14:	4770      	bx	lr
 8000d16:	6393      	str	r3, [r2, #56]	@ 0x38
 8000d18:	6383      	str	r3, [r0, #56]	@ 0x38
 8000d1a:	4770      	bx	lr
 8000d1c:	63d3      	str	r3, [r2, #60]	@ 0x3c
 8000d1e:	63c3      	str	r3, [r0, #60]	@ 0x3c
 8000d20:	4770      	bx	lr
 8000d22:	6413      	str	r3, [r2, #64]	@ 0x40
 8000d24:	6403      	str	r3, [r0, #64]	@ 0x40
 8000d26:	4770      	bx	lr

08000d28 <motor_update_count>:
 8000d28:	6803      	ldr	r3, [r0, #0]
 8000d2a:	681a      	ldr	r2, [r3, #0]
 8000d2c:	6a53      	ldr	r3, [r2, #36]	@ 0x24
 8000d2e:	b21b      	sxth	r3, r3
 8000d30:	6143      	str	r3, [r0, #20]
 8000d32:	2300      	movs	r3, #0
 8000d34:	6253      	str	r3, [r2, #36]	@ 0x24
 8000d36:	4770      	bx	lr

08000d38 <motor_set_speed>:
 8000d38:	69c3      	ldr	r3, [r0, #28]
 8000d3a:	4293      	cmp	r3, r2
 8000d3c:	b570      	push	{r4, r5, r6, lr}
 8000d3e:	4604      	mov	r4, r0
 8000d40:	460e      	mov	r6, r1
 8000d42:	4615      	mov	r5, r2
 8000d44:	d002      	beq.n	8000d4c <motor_set_speed+0x14>
 8000d46:	3024      	adds	r0, #36	@ 0x24
 8000d48:	f000 f921 	bl	8000f8e <pid_reset>
 8000d4c:	61e5      	str	r5, [r4, #28]
 8000d4e:	8226      	strh	r6, [r4, #16]
 8000d50:	bd70      	pop	{r4, r5, r6, pc}

08000d52 <SetMotorSpeed>:
 8000d52:	f9b0 3010 	ldrsh.w	r3, [r0, #16]
 8000d56:	2b01      	cmp	r3, #1
 8000d58:	b510      	push	{r4, lr}
 8000d5a:	d03c      	beq.n	8000dd6 <SetMotorSpeed+0x84>
 8000d5c:	2b02      	cmp	r3, #2
 8000d5e:	d048      	beq.n	8000df2 <SetMotorSpeed+0xa0>
 8000d60:	b993      	cbnz	r3, 8000d88 <SetMotorSpeed+0x36>
 8000d62:	6883      	ldr	r3, [r0, #8]
 8000d64:	681a      	ldr	r2, [r3, #0]
 8000d66:	6ad3      	ldr	r3, [r2, #44]	@ 0x2c
 8000d68:	4299      	cmp	r1, r3
 8000d6a:	d301      	bcc.n	8000d70 <SetMotorSpeed+0x1e>
 8000d6c:	6ad1      	ldr	r1, [r2, #44]	@ 0x2c
 8000d6e:	b289      	uxth	r1, r1
 8000d70:	68c3      	ldr	r3, [r0, #12]
 8000d72:	b953      	cbnz	r3, 8000d8a <SetMotorSpeed+0x38>
 8000d74:	6351      	str	r1, [r2, #52]	@ 0x34
 8000d76:	6842      	ldr	r2, [r0, #4]
 8000d78:	6812      	ldr	r2, [r2, #0]
 8000d7a:	6ad0      	ldr	r0, [r2, #44]	@ 0x2c
 8000d7c:	4288      	cmp	r0, r1
 8000d7e:	d801      	bhi.n	8000d84 <SetMotorSpeed+0x32>
 8000d80:	6ad1      	ldr	r1, [r2, #44]	@ 0x2c
 8000d82:	b289      	uxth	r1, r1
 8000d84:	b9a3      	cbnz	r3, 8000db0 <SetMotorSpeed+0x5e>
 8000d86:	6351      	str	r1, [r2, #52]	@ 0x34
 8000d88:	bd10      	pop	{r4, pc}
 8000d8a:	2b0c      	cmp	r3, #12
 8000d8c:	d00e      	beq.n	8000dac <SetMotorSpeed+0x5a>
 8000d8e:	d805      	bhi.n	8000d9c <SetMotorSpeed+0x4a>
 8000d90:	2b04      	cmp	r3, #4
 8000d92:	d007      	beq.n	8000da4 <SetMotorSpeed+0x52>
 8000d94:	2b08      	cmp	r3, #8
 8000d96:	d007      	beq.n	8000da8 <SetMotorSpeed+0x56>
 8000d98:	65d1      	str	r1, [r2, #92]	@ 0x5c
 8000d9a:	e7ec      	b.n	8000d76 <SetMotorSpeed+0x24>
 8000d9c:	2b10      	cmp	r3, #16
 8000d9e:	d1fb      	bne.n	8000d98 <SetMotorSpeed+0x46>
 8000da0:	6591      	str	r1, [r2, #88]	@ 0x58
 8000da2:	e7e8      	b.n	8000d76 <SetMotorSpeed+0x24>
 8000da4:	6391      	str	r1, [r2, #56]	@ 0x38
 8000da6:	e7e6      	b.n	8000d76 <SetMotorSpeed+0x24>
 8000da8:	63d1      	str	r1, [r2, #60]	@ 0x3c
 8000daa:	e7e4      	b.n	8000d76 <SetMotorSpeed+0x24>
 8000dac:	6411      	str	r1, [r2, #64]	@ 0x40
 8000dae:	e7e2      	b.n	8000d76 <SetMotorSpeed+0x24>
 8000db0:	2b0c      	cmp	r3, #12
 8000db2:	d00e      	beq.n	8000dd2 <SetMotorSpeed+0x80>
 8000db4:	d805      	bhi.n	8000dc2 <SetMotorSpeed+0x70>
 8000db6:	2b04      	cmp	r3, #4
 8000db8:	d007      	beq.n	8000dca <SetMotorSpeed+0x78>
 8000dba:	2b08      	cmp	r3, #8
 8000dbc:	d007      	beq.n	8000dce <SetMotorSpeed+0x7c>
 8000dbe:	65d1      	str	r1, [r2, #92]	@ 0x5c
 8000dc0:	e7e2      	b.n	8000d88 <SetMotorSpeed+0x36>
 8000dc2:	2b10      	cmp	r3, #16
 8000dc4:	d1fb      	bne.n	8000dbe <SetMotorSpeed+0x6c>
 8000dc6:	6591      	str	r1, [r2, #88]	@ 0x58
 8000dc8:	e7de      	b.n	8000d88 <SetMotorSpeed+0x36>
 8000dca:	6391      	str	r1, [r2, #56]	@ 0x38
 8000dcc:	e7dc      	b.n	8000d88 <SetMotorSpeed+0x36>
 8000dce:	63d1      	str	r1, [r2, #60]	@ 0x3c
 8000dd0:	e7da      	b.n	8000d88 <SetMotorSpeed+0x36>
 8000dd2:	6411      	str	r1, [r2, #64]	@ 0x40
 8000dd4:	e7d8      	b.n	8000d88 <SetMotorSpeed+0x36>
 8000dd6:	6883      	ldr	r3, [r0, #8]
 8000dd8:	681b      	ldr	r3, [r3, #0]
 8000dda:	6ada      	ldr	r2, [r3, #44]	@ 0x2c
 8000ddc:	4291      	cmp	r1, r2
 8000dde:	d301      	bcc.n	8000de4 <SetMotorSpeed+0x92>
 8000de0:	6ad9      	ldr	r1, [r3, #44]	@ 0x2c
 8000de2:	b289      	uxth	r1, r1
 8000de4:	68c4      	ldr	r4, [r0, #12]
 8000de6:	6842      	ldr	r2, [r0, #4]
 8000de8:	6812      	ldr	r2, [r2, #0]
 8000dea:	b964      	cbnz	r4, 8000e06 <SetMotorSpeed+0xb4>
 8000dec:	6359      	str	r1, [r3, #52]	@ 0x34
 8000dee:	6354      	str	r4, [r2, #52]	@ 0x34
 8000df0:	e7ca      	b.n	8000d88 <SetMotorSpeed+0x36>
 8000df2:	6843      	ldr	r3, [r0, #4]
 8000df4:	681b      	ldr	r3, [r3, #0]
 8000df6:	6ada      	ldr	r2, [r3, #44]	@ 0x2c
 8000df8:	4291      	cmp	r1, r2
 8000dfa:	d301      	bcc.n	8000e00 <SetMotorSpeed+0xae>
 8000dfc:	6ad9      	ldr	r1, [r3, #44]	@ 0x2c
 8000dfe:	b289      	uxth	r1, r1
 8000e00:	e9d0 2402 	ldrd	r2, r4, [r0, #8]
 8000e04:	e7f0      	b.n	8000de8 <SetMotorSpeed+0x96>
 8000e06:	2c0c      	cmp	r4, #12
 8000e08:	d015      	beq.n	8000e36 <SetMotorSpeed+0xe4>
 8000e0a:	f04f 0000 	mov.w	r0, #0
 8000e0e:	d807      	bhi.n	8000e20 <SetMotorSpeed+0xce>
 8000e10:	2c04      	cmp	r4, #4
 8000e12:	d00a      	beq.n	8000e2a <SetMotorSpeed+0xd8>
 8000e14:	2c08      	cmp	r4, #8
 8000e16:	d00b      	beq.n	8000e30 <SetMotorSpeed+0xde>
 8000e18:	65d9      	str	r1, [r3, #92]	@ 0x5c
 8000e1a:	2300      	movs	r3, #0
 8000e1c:	65d3      	str	r3, [r2, #92]	@ 0x5c
 8000e1e:	e7b3      	b.n	8000d88 <SetMotorSpeed+0x36>
 8000e20:	2c10      	cmp	r4, #16
 8000e22:	d1f9      	bne.n	8000e18 <SetMotorSpeed+0xc6>
 8000e24:	6599      	str	r1, [r3, #88]	@ 0x58
 8000e26:	6590      	str	r0, [r2, #88]	@ 0x58
 8000e28:	e7ae      	b.n	8000d88 <SetMotorSpeed+0x36>
 8000e2a:	6399      	str	r1, [r3, #56]	@ 0x38
 8000e2c:	6390      	str	r0, [r2, #56]	@ 0x38
 8000e2e:	e7ab      	b.n	8000d88 <SetMotorSpeed+0x36>
 8000e30:	63d9      	str	r1, [r3, #60]	@ 0x3c
 8000e32:	63d0      	str	r0, [r2, #60]	@ 0x3c
 8000e34:	e7a8      	b.n	8000d88 <SetMotorSpeed+0x36>
 8000e36:	6419      	str	r1, [r3, #64]	@ 0x40
 8000e38:	2300      	movs	r3, #0
 8000e3a:	6413      	str	r3, [r2, #64]	@ 0x40
 8000e3c:	e7a4      	b.n	8000d88 <SetMotorSpeed+0x36>

08000e3e <motor_calculate_speed>:
 8000e3e:	b510      	push	{r4, lr}
 8000e40:	f7ff ff72 	bl	8000d28 <motor_update_count>
 8000e44:	6942      	ldr	r2, [r0, #20]
 8000e46:	f44f 6396 	mov.w	r3, #1200	@ 0x4b0
 8000e4a:	4604      	mov	r4, r0
 8000e4c:	69c1      	ldr	r1, [r0, #28]
 8000e4e:	3024      	adds	r0, #36	@ 0x24
 8000e50:	435a      	muls	r2, r3
 8000e52:	f830 3c12 	ldrh.w	r3, [r0, #-18]
 8000e56:	fb92 f2f3 	sdiv	r2, r2, r3
 8000e5a:	2a00      	cmp	r2, #0
 8000e5c:	bfb8      	it	lt
 8000e5e:	4252      	neglt	r2, r2
 8000e60:	f840 2c0c 	str.w	r2, [r0, #-12]
 8000e64:	f000 f897 	bl	8000f96 <pid_calculate>
 8000e68:	6a23      	ldr	r3, [r4, #32]
 8000e6a:	18c1      	adds	r1, r0, r3
 8000e6c:	2900      	cmp	r1, #0
 8000e6e:	6221      	str	r1, [r4, #32]
 8000e70:	db05      	blt.n	8000e7e <motor_calculate_speed+0x40>
 8000e72:	4620      	mov	r0, r4
 8000e74:	b289      	uxth	r1, r1
 8000e76:	e8bd 4010 	ldmia.w	sp!, {r4, lr}
 8000e7a:	f7ff bf6a 	b.w	8000d52 <SetMotorSpeed>
 8000e7e:	bd10      	pop	{r4, pc}

08000e80 <Init_MotorSystem>:
 8000e80:	b570      	push	{r4, r5, r6, lr}
 8000e82:	4c20      	ldr	r4, [pc, #128]	@ (8000f04 <Init_MotorSystem+0x84>)
 8000e84:	f44f 7216 	mov.w	r2, #600	@ 0x258
 8000e88:	4e1f      	ldr	r6, [pc, #124]	@ (8000f08 <Init_MotorSystem+0x88>)
 8000e8a:	eeb0 0a08 	vmov.f32	s0, #8	@ 0x40400000  3.0
 8000e8e:	4d1f      	ldr	r5, [pc, #124]	@ (8000f0c <Init_MotorSystem+0x8c>)
 8000e90:	4b1f      	ldr	r3, [pc, #124]	@ (8000f10 <Init_MotorSystem+0x90>)
 8000e92:	4820      	ldr	r0, [pc, #128]	@ (8000f14 <Init_MotorSystem+0x94>)
 8000e94:	4920      	ldr	r1, [pc, #128]	@ (8000f18 <Init_MotorSystem+0x98>)
 8000e96:	ed2d 8b02 	vpush	{d8}
 8000e9a:	ed9f 8a20 	vldr	s16, [pc, #128]	@ 8000f1c <Init_MotorSystem+0x9c>
 8000e9e:	6026      	str	r6, [r4, #0]
 8000ea0:	260c      	movs	r6, #12
 8000ea2:	602b      	str	r3, [r5, #0]
 8000ea4:	2300      	movs	r3, #0
 8000ea6:	eeb0 1a48 	vmov.f32	s2, s16
 8000eaa:	60a8      	str	r0, [r5, #8]
 8000eac:	eef0 0a48 	vmov.f32	s1, s16
 8000eb0:	6069      	str	r1, [r5, #4]
 8000eb2:	6061      	str	r1, [r4, #4]
 8000eb4:	2101      	movs	r1, #1
 8000eb6:	60eb      	str	r3, [r5, #12]
 8000eb8:	826a      	strh	r2, [r5, #18]
 8000eba:	8262      	strh	r2, [r4, #18]
 8000ebc:	e9c4 0602 	strd	r0, r6, [r4, #8]
 8000ec0:	f105 0024 	add.w	r0, r5, #36	@ 0x24
 8000ec4:	e9c5 3305 	strd	r3, r3, [r5, #20]
 8000ec8:	e9c5 3307 	strd	r3, r3, [r5, #28]
 8000ecc:	e9c4 3305 	strd	r3, r3, [r4, #20]
 8000ed0:	e9c4 3307 	strd	r3, r3, [r4, #28]
 8000ed4:	f000 f850 	bl	8000f78 <pid_init>
 8000ed8:	f104 0024 	add.w	r0, r4, #36	@ 0x24
 8000edc:	eeb0 1a48 	vmov.f32	s2, s16
 8000ee0:	2101      	movs	r1, #1
 8000ee2:	eef0 0a48 	vmov.f32	s1, s16
 8000ee6:	eeb0 0a08 	vmov.f32	s0, #8	@ 0x40400000  3.0
 8000eea:	f000 f845 	bl	8000f78 <pid_init>
 8000eee:	4628      	mov	r0, r5
 8000ef0:	f7ff fef0 	bl	8000cd4 <ResetMotor>
 8000ef4:	4620      	mov	r0, r4
 8000ef6:	ecbd 8b02 	vpop	{d8}
 8000efa:	e8bd 4070 	ldmia.w	sp!, {r4, r5, r6, lr}
 8000efe:	f7ff bee9 	b.w	8000cd4 <ResetMotor>
 8000f02:	bf00      	nop
 8000f04:	200000e0 	.word	0x200000e0
 8000f08:	2000032c 	.word	0x2000032c
 8000f0c:	2000011c 	.word	0x2000011c
 8000f10:	200001fc 	.word	0x200001fc
 8000f14:	20000378 	.word	0x20000378
 8000f18:	20000294 	.word	0x20000294
 8000f1c:	3d4ccccd 	.word	0x3d4ccccd

08000f20 <HAL_TIM_PeriodElapsedCallback>:
 8000f20:	6802      	ldr	r2, [r0, #0]
 8000f22:	4b11      	ldr	r3, [pc, #68]	@ (8000f68 <HAL_TIM_PeriodElapsedCallback+0x48>)
 8000f24:	429a      	cmp	r2, r3
 8000f26:	b510      	push	{r4, lr}
 8000f28:	d11c      	bne.n	8000f64 <HAL_TIM_PeriodElapsedCallback+0x44>
 8000f2a:	4810      	ldr	r0, [pc, #64]	@ (8000f6c <HAL_TIM_PeriodElapsedCallback+0x4c>)
 8000f2c:	f9b0 3010 	ldrsh.w	r3, [r0, #16]
 8000f30:	2b02      	cmp	r3, #2
 8000f32:	d10f      	bne.n	8000f54 <HAL_TIM_PeriodElapsedCallback+0x34>
 8000f34:	4c0e      	ldr	r4, [pc, #56]	@ (8000f70 <HAL_TIM_PeriodElapsedCallback+0x50>)
 8000f36:	f9b4 3010 	ldrsh.w	r3, [r4, #16]
 8000f3a:	2b02      	cmp	r3, #2
 8000f3c:	d10a      	bne.n	8000f54 <HAL_TIM_PeriodElapsedCallback+0x34>
 8000f3e:	4b0d      	ldr	r3, [pc, #52]	@ (8000f74 <HAL_TIM_PeriodElapsedCallback+0x54>)
 8000f40:	681b      	ldr	r3, [r3, #0]
 8000f42:	2b0a      	cmp	r3, #10
 8000f44:	d806      	bhi.n	8000f54 <HAL_TIM_PeriodElapsedCallback+0x34>
 8000f46:	f7ff fec5 	bl	8000cd4 <ResetMotor>
 8000f4a:	4620      	mov	r0, r4
 8000f4c:	e8bd 4010 	ldmia.w	sp!, {r4, lr}
 8000f50:	f7ff bec0 	b.w	8000cd4 <ResetMotor>
 8000f54:	4805      	ldr	r0, [pc, #20]	@ (8000f6c <HAL_TIM_PeriodElapsedCallback+0x4c>)
 8000f56:	f7ff ff72 	bl	8000e3e <motor_calculate_speed>
 8000f5a:	4805      	ldr	r0, [pc, #20]	@ (8000f70 <HAL_TIM_PeriodElapsedCallback+0x50>)
 8000f5c:	e8bd 4010 	ldmia.w	sp!, {r4, lr}
 8000f60:	f7ff bf6d 	b.w	8000e3e <motor_calculate_speed>
 8000f64:	bd10      	pop	{r4, pc}
 8000f66:	bf00      	nop
 8000f68:	40001000 	.word	0x40001000
 8000f6c:	2000011c 	.word	0x2000011c
 8000f70:	200000e0 	.word	0x200000e0
 8000f74:	2000008c 	.word	0x2000008c

08000f78 <pid_init>:
 8000f78:	2300      	movs	r3, #0
 8000f7a:	ed80 0a02 	vstr	s0, [r0, #8]
 8000f7e:	edc0 0a03 	vstr	s1, [r0, #12]
 8000f82:	ed80 1a04 	vstr	s2, [r0, #16]
 8000f86:	6141      	str	r1, [r0, #20]
 8000f88:	e9c0 3300 	strd	r3, r3, [r0]
 8000f8c:	4770      	bx	lr

08000f8e <pid_reset>:
 8000f8e:	2300      	movs	r3, #0
 8000f90:	e9c0 3300 	strd	r3, r3, [r0]
 8000f94:	4770      	bx	lr

08000f96 <pid_calculate>:
 8000f96:	1a89      	subs	r1, r1, r2
 8000f98:	6843      	ldr	r3, [r0, #4]
 8000f9a:	ee07 1a90 	vmov	s15, r1
 8000f9e:	440b      	add	r3, r1
 8000fa0:	eeb8 6ae7 	vcvt.f32.s32	s12, s15
 8000fa4:	edd0 7a02 	vldr	s15, [r0, #8]
 8000fa8:	6043      	str	r3, [r0, #4]
 8000faa:	ee26 6a27 	vmul.f32	s12, s12, s15
 8000fae:	ee07 3a90 	vmov	s15, r3
 8000fb2:	6803      	ldr	r3, [r0, #0]
 8000fb4:	eeb8 7ae7 	vcvt.f32.s32	s14, s15
 8000fb8:	edd0 7a03 	vldr	s15, [r0, #12]
 8000fbc:	1acb      	subs	r3, r1, r3
 8000fbe:	ee06 3a90 	vmov	s13, r3
 8000fc2:	ee27 7a27 	vmul.f32	s14, s14, s15
 8000fc6:	6943      	ldr	r3, [r0, #20]
 8000fc8:	eef8 6ae6 	vcvt.f32.s32	s13, s13
 8000fcc:	edd0 7a04 	vldr	s15, [r0, #16]
 8000fd0:	ee66 6aa7 	vmul.f32	s13, s13, s15
 8000fd4:	ee07 3a90 	vmov	s15, r3
 8000fd8:	eef8 7ae7 	vcvt.f32.s32	s15, s15
 8000fdc:	eef4 7ac7 	vcmpe.f32	s15, s14
 8000fe0:	eef1 fa10 	vmrs	APSR_nzcv, fpscr
 8000fe4:	d90a      	bls.n	8000ffc <pid_calculate+0x66>
 8000fe6:	425b      	negs	r3, r3
 8000fe8:	ee07 3a90 	vmov	s15, r3
 8000fec:	eef8 7ae7 	vcvt.f32.s32	s15, s15
 8000ff0:	eef4 7ac7 	vcmpe.f32	s15, s14
 8000ff4:	eef1 fa10 	vmrs	APSR_nzcv, fpscr
 8000ff8:	fe67 7a87 	vselge.f32	s15, s15, s14
 8000ffc:	ee77 7a86 	vadd.f32	s15, s15, s12
 8001000:	6001      	str	r1, [r0, #0]
 8001002:	ee77 7aa6 	vadd.f32	s15, s15, s13
 8001006:	eefd 7ae7 	vcvt.s32.f32	s15, s15
 800100a:	ee17 0a90 	vmov	r0, s15
 800100e:	4770      	bx	lr

08001010 <HAL_MspInit>:
 8001010:	4b0d      	ldr	r3, [pc, #52]	@ (8001048 <HAL_MspInit+0x38>)
 8001012:	b082      	sub	sp, #8
 8001014:	210f      	movs	r1, #15
 8001016:	f06f 0001 	mvn.w	r0, #1
 800101a:	6c1a      	ldr	r2, [r3, #64]	@ 0x40
 800101c:	f042 5280 	orr.w	r2, r2, #268435456	@ 0x10000000
 8001020:	641a      	str	r2, [r3, #64]	@ 0x40
 8001022:	6c1a      	ldr	r2, [r3, #64]	@ 0x40
 8001024:	f002 5280 	and.w	r2, r2, #268435456	@ 0x10000000
 8001028:	9200      	str	r2, [sp, #0]
 800102a:	9a00      	ldr	r2, [sp, #0]
 800102c:	6c5a      	ldr	r2, [r3, #68]	@ 0x44
 800102e:	f442 4280 	orr.w	r2, r2, #16384	@ 0x4000
 8001032:	645a      	str	r2, [r3, #68]	@ 0x44
 8001034:	2200      	movs	r2, #0
 8001036:	6c5b      	ldr	r3, [r3, #68]	@ 0x44
 8001038:	f403 4380 	and.w	r3, r3, #16384	@ 0x4000
 800103c:	9301      	str	r3, [sp, #4]
 800103e:	9b01      	ldr	r3, [sp, #4]
 8001040:	b002      	add	sp, #8
 8001042:	f000 bf8f 	b.w	8001f64 <HAL_NVIC_SetPriority>
 8001046:	bf00      	nop
 8001048:	40023800 	.word	0x40023800

0800104c <NMI_Handler>:
 800104c:	e7fe      	b.n	800104c <NMI_Handler>

0800104e <HardFault_Handler>:
 800104e:	e7fe      	b.n	800104e <HardFault_Handler>

08001050 <MemManage_Handler>:
 8001050:	e7fe      	b.n	8001050 <MemManage_Handler>

08001052 <BusFault_Handler>:
 8001052:	e7fe      	b.n	8001052 <BusFault_Handler>

08001054 <UsageFault_Handler>:
 8001054:	e7fe      	b.n	8001054 <UsageFault_Handler>

08001056 <DebugMon_Handler>:
 8001056:	4770      	bx	lr

08001058 <SysTick_Handler>:
 8001058:	b508      	push	{r3, lr}
 800105a:	f000 ff4d 	bl	8001ef8 <HAL_IncTick>
 800105e:	f004 ff6d 	bl	8005f3c <xTaskGetSchedulerState>
 8001062:	2801      	cmp	r0, #1
 8001064:	d003      	beq.n	800106e <SysTick_Handler+0x16>
 8001066:	e8bd 4008 	ldmia.w	sp!, {r3, lr}
 800106a:	f005 ba8b 	b.w	8006584 <xPortSysTickHandler>
 800106e:	bd08      	pop	{r3, pc}

08001070 <DMA1_Stream5_IRQHandler>:
 8001070:	4801      	ldr	r0, [pc, #4]	@ (8001078 <DMA1_Stream5_IRQHandler+0x8>)
 8001072:	f001 b8af 	b.w	80021d4 <HAL_DMA_IRQHandler>
 8001076:	bf00      	nop
 8001078:	20000470 	.word	0x20000470

0800107c <DMA1_Stream6_IRQHandler>:
 800107c:	4801      	ldr	r0, [pc, #4]	@ (8001084 <DMA1_Stream6_IRQHandler+0x8>)
 800107e:	f001 b8a9 	b.w	80021d4 <HAL_DMA_IRQHandler>
 8001082:	bf00      	nop
 8001084:	20000410 	.word	0x20000410

08001088 <TIM1_BRK_TIM9_IRQHandler>:
 8001088:	4804      	ldr	r0, [pc, #16]	@ (800109c <TIM1_BRK_TIM9_IRQHandler+0x14>)
 800108a:	b508      	push	{r3, lr}
 800108c:	f002 fa95 	bl	80035ba <HAL_TIM_IRQHandler>
 8001090:	4803      	ldr	r0, [pc, #12]	@ (80010a0 <TIM1_BRK_TIM9_IRQHandler+0x18>)
 8001092:	e8bd 4008 	ldmia.w	sp!, {r3, lr}
 8001096:	f002 ba90 	b.w	80035ba <HAL_TIM_IRQHandler>
 800109a:	bf00      	nop
 800109c:	200003c4 	.word	0x200003c4
 80010a0:	200001b0 	.word	0x200001b0

080010a4 <TIM1_UP_TIM10_IRQHandler>:
 80010a4:	4801      	ldr	r0, [pc, #4]	@ (80010ac <TIM1_UP_TIM10_IRQHandler+0x8>)
 80010a6:	f002 ba88 	b.w	80035ba <HAL_TIM_IRQHandler>
 80010aa:	bf00      	nop
 80010ac:	200003c4 	.word	0x200003c4

080010b0 <TIM1_TRG_COM_TIM11_IRQHandler>:
 80010b0:	f7ff bff8 	b.w	80010a4 <TIM1_UP_TIM10_IRQHandler>

080010b4 <TIM1_CC_IRQHandler>:
 80010b4:	f7ff bff6 	b.w	80010a4 <TIM1_UP_TIM10_IRQHandler>

080010b8 <TIM2_IRQHandler>:
 80010b8:	4801      	ldr	r0, [pc, #4]	@ (80010c0 <TIM2_IRQHandler+0x8>)
 80010ba:	f002 ba7e 	b.w	80035ba <HAL_TIM_IRQHandler>
 80010be:	bf00      	nop
 80010c0:	20000378 	.word	0x20000378

080010c4 <TIM3_IRQHandler>:
 80010c4:	4801      	ldr	r0, [pc, #4]	@ (80010cc <TIM3_IRQHandler+0x8>)
 80010c6:	f002 ba78 	b.w	80035ba <HAL_TIM_IRQHandler>
 80010ca:	bf00      	nop
 80010cc:	2000032c 	.word	0x2000032c

080010d0 <TIM4_IRQHandler>:
 80010d0:	4801      	ldr	r0, [pc, #4]	@ (80010d8 <TIM4_IRQHandler+0x8>)
 80010d2:	f002 ba72 	b.w	80035ba <HAL_TIM_IRQHandler>
 80010d6:	bf00      	nop
 80010d8:	200002e0 	.word	0x200002e0

080010dc <USART2_IRQHandler>:
 80010dc:	4801      	ldr	r0, [pc, #4]	@ (80010e4 <USART2_IRQHandler+0x8>)
 80010de:	f003 b8a3 	b.w	8004228 <HAL_UART_IRQHandler>
 80010e2:	bf00      	nop
 80010e4:	20000558 	.word	0x20000558

080010e8 <USART3_IRQHandler>:
 80010e8:	4801      	ldr	r0, [pc, #4]	@ (80010f0 <USART3_IRQHandler+0x8>)
 80010ea:	f003 b89d 	b.w	8004228 <HAL_UART_IRQHandler>
 80010ee:	bf00      	nop
 80010f0:	200004d0 	.word	0x200004d0

080010f4 <EXTI15_10_IRQHandler>:
 80010f4:	f44f 5000 	mov.w	r0, #8192	@ 0x2000
 80010f8:	f001 ba22 	b.w	8002540 <HAL_GPIO_EXTI_IRQHandler>

080010fc <TIM8_BRK_TIM12_IRQHandler>:
 80010fc:	4804      	ldr	r0, [pc, #16]	@ (8001110 <TIM8_BRK_TIM12_IRQHandler+0x14>)
 80010fe:	b508      	push	{r3, lr}
 8001100:	f002 fa5b 	bl	80035ba <HAL_TIM_IRQHandler>
 8001104:	4803      	ldr	r0, [pc, #12]	@ (8001114 <TIM8_BRK_TIM12_IRQHandler+0x18>)
 8001106:	e8bd 4008 	ldmia.w	sp!, {r3, lr}
 800110a:	f002 ba56 	b.w	80035ba <HAL_TIM_IRQHandler>
 800110e:	bf00      	nop
 8001110:	200001fc 	.word	0x200001fc
 8001114:	20000164 	.word	0x20000164

08001118 <TIM8_UP_TIM13_IRQHandler>:
 8001118:	4801      	ldr	r0, [pc, #4]	@ (8001120 <TIM8_UP_TIM13_IRQHandler+0x8>)
 800111a:	f002 ba4e 	b.w	80035ba <HAL_TIM_IRQHandler>
 800111e:	bf00      	nop
 8001120:	200001fc 	.word	0x200001fc

08001124 <TIM8_TRG_COM_TIM14_IRQHandler>:
 8001124:	f7ff bff8 	b.w	8001118 <TIM8_UP_TIM13_IRQHandler>

08001128 <TIM8_CC_IRQHandler>:
 8001128:	f7ff bff6 	b.w	8001118 <TIM8_UP_TIM13_IRQHandler>

0800112c <TIM5_IRQHandler>:
 800112c:	4801      	ldr	r0, [pc, #4]	@ (8001134 <TIM5_IRQHandler+0x8>)
 800112e:	f002 ba44 	b.w	80035ba <HAL_TIM_IRQHandler>
 8001132:	bf00      	nop
 8001134:	20000294 	.word	0x20000294

08001138 <TIM6_DAC_IRQHandler>:
 8001138:	4801      	ldr	r0, [pc, #4]	@ (8001140 <TIM6_DAC_IRQHandler+0x8>)
 800113a:	f002 ba3e 	b.w	80035ba <HAL_TIM_IRQHandler>
 800113e:	bf00      	nop
 8001140:	20000248 	.word	0x20000248

08001144 <SystemInit>:
 8001144:	4a03      	ldr	r2, [pc, #12]	@ (8001154 <SystemInit+0x10>)
 8001146:	f8d2 3088 	ldr.w	r3, [r2, #136]	@ 0x88
 800114a:	f443 0370 	orr.w	r3, r3, #15728640	@ 0xf00000
 800114e:	f8c2 3088 	str.w	r3, [r2, #136]	@ 0x88
 8001152:	4770      	bx	lr
 8001154:	e000ed00 	.word	0xe000ed00

08001158 <DistanceIndicator>:
 8001158:	b580      	push	{r7, lr}
 800115a:	4e23      	ldr	r6, [pc, #140]	@ (80011e8 <DistanceIndicator+0x90>)
 800115c:	4f23      	ldr	r7, [pc, #140]	@ (80011ec <DistanceIndicator+0x94>)
 800115e:	4d24      	ldr	r5, [pc, #144]	@ (80011f0 <DistanceIndicator+0x98>)
 8001160:	6833      	ldr	r3, [r6, #0]
 8001162:	683c      	ldr	r4, [r7, #0]
 8001164:	b903      	cbnz	r3, 8001168 <DistanceIndicator+0x10>
 8001166:	e7fe      	b.n	8001166 <DistanceIndicator+0xe>
 8001168:	2c00      	cmp	r4, #0
 800116a:	d1fb      	bne.n	8001164 <DistanceIndicator+0xc>
 800116c:	4b21      	ldr	r3, [pc, #132]	@ (80011f4 <DistanceIndicator+0x9c>)
 800116e:	681b      	ldr	r3, [r3, #0]
 8001170:	f1a3 020b 	sub.w	r2, r3, #11
 8001174:	2a13      	cmp	r2, #19
 8001176:	d817      	bhi.n	80011a8 <DistanceIndicator+0x50>
 8001178:	f44f 707a 	mov.w	r0, #1000	@ 0x3e8
 800117c:	f7ff fb80 	bl	8000880 <Set_PWM_Frequency>
 8001180:	2101      	movs	r1, #1
 8001182:	4628      	mov	r0, r5
 8001184:	f001 f9d3 	bl	800252e <HAL_GPIO_TogglePin>
 8001188:	f44f 70fa 	mov.w	r0, #500	@ 0x1f4
 800118c:	f003 feda 	bl	8004f44 <osDelay>
 8001190:	4620      	mov	r0, r4
 8001192:	f7ff fb75 	bl	8000880 <Set_PWM_Frequency>
 8001196:	4628      	mov	r0, r5
 8001198:	2101      	movs	r1, #1
 800119a:	f001 f9c8 	bl	800252e <HAL_GPIO_TogglePin>
 800119e:	f44f 70fa 	mov.w	r0, #500	@ 0x1f4
 80011a2:	f003 fecf 	bl	8004f44 <osDelay>
 80011a6:	e7db      	b.n	8001160 <DistanceIndicator+0x8>
 80011a8:	3b01      	subs	r3, #1
 80011aa:	2b09      	cmp	r3, #9
 80011ac:	d813      	bhi.n	80011d6 <DistanceIndicator+0x7e>
 80011ae:	f44f 707a 	mov.w	r0, #1000	@ 0x3e8
 80011b2:	f7ff fb65 	bl	8000880 <Set_PWM_Frequency>
 80011b6:	2101      	movs	r1, #1
 80011b8:	4628      	mov	r0, r5
 80011ba:	f001 f9b8 	bl	800252e <HAL_GPIO_TogglePin>
 80011be:	2064      	movs	r0, #100	@ 0x64
 80011c0:	f003 fec0 	bl	8004f44 <osDelay>
 80011c4:	4620      	mov	r0, r4
 80011c6:	f7ff fb5b 	bl	8000880 <Set_PWM_Frequency>
 80011ca:	4628      	mov	r0, r5
 80011cc:	2101      	movs	r1, #1
 80011ce:	f001 f9ae 	bl	800252e <HAL_GPIO_TogglePin>
 80011d2:	2064      	movs	r0, #100	@ 0x64
 80011d4:	e7e5      	b.n	80011a2 <DistanceIndicator+0x4a>
 80011d6:	4628      	mov	r0, r5
 80011d8:	4622      	mov	r2, r4
 80011da:	2101      	movs	r1, #1
 80011dc:	f001 f9a2 	bl	8002524 <HAL_GPIO_WritePin>
 80011e0:	4620      	mov	r0, r4
 80011e2:	f7ff fb4d 	bl	8000880 <Set_PWM_Frequency>
 80011e6:	e7bb      	b.n	8001160 <DistanceIndicator+0x8>
 80011e8:	20000084 	.word	0x20000084
 80011ec:	20000088 	.word	0x20000088
 80011f0:	40021000 	.word	0x40021000
 80011f4:	2000008c 	.word	0x2000008c

080011f8 <DistanceSensor>:
 80011f8:	b580      	push	{r7, lr}
 80011fa:	482f      	ldr	r0, [pc, #188]	@ (80012b8 <DistanceSensor+0xc0>)
 80011fc:	4c2f      	ldr	r4, [pc, #188]	@ (80012bc <DistanceSensor+0xc4>)
 80011fe:	f002 f8b5 	bl	800336c <HAL_TIM_Base_Start>
 8001202:	4e2d      	ldr	r6, [pc, #180]	@ (80012b8 <DistanceSensor+0xc0>)
 8001204:	2200      	movs	r2, #0
 8001206:	2140      	movs	r1, #64	@ 0x40
 8001208:	482c      	ldr	r0, [pc, #176]	@ (80012bc <DistanceSensor+0xc4>)
 800120a:	f001 f98b 	bl	8002524 <HAL_GPIO_WritePin>
 800120e:	2201      	movs	r2, #1
 8001210:	2140      	movs	r1, #64	@ 0x40
 8001212:	4620      	mov	r0, r4
 8001214:	f001 f986 	bl	8002524 <HAL_GPIO_WritePin>
 8001218:	6833      	ldr	r3, [r6, #0]
 800121a:	2200      	movs	r2, #0
 800121c:	625a      	str	r2, [r3, #36]	@ 0x24
 800121e:	6a5a      	ldr	r2, [r3, #36]	@ 0x24
 8001220:	2a09      	cmp	r2, #9
 8001222:	d9fc      	bls.n	800121e <DistanceSensor+0x26>
 8001224:	4d26      	ldr	r5, [pc, #152]	@ (80012c0 <DistanceSensor+0xc8>)
 8001226:	2200      	movs	r2, #0
 8001228:	2140      	movs	r1, #64	@ 0x40
 800122a:	4620      	mov	r0, r4
 800122c:	f001 f97a 	bl	8002524 <HAL_GPIO_WritePin>
 8001230:	f000 fe6e 	bl	8001f10 <HAL_GetTick>
 8001234:	6028      	str	r0, [r5, #0]
 8001236:	2120      	movs	r1, #32
 8001238:	4620      	mov	r0, r4
 800123a:	f001 f96d 	bl	8002518 <HAL_GPIO_ReadPin>
 800123e:	b930      	cbnz	r0, 800124e <DistanceSensor+0x56>
 8001240:	682b      	ldr	r3, [r5, #0]
 8001242:	f103 070a 	add.w	r7, r3, #10
 8001246:	f000 fe63 	bl	8001f10 <HAL_GetTick>
 800124a:	4287      	cmp	r7, r0
 800124c:	d8f3      	bhi.n	8001236 <DistanceSensor+0x3e>
 800124e:	6833      	ldr	r3, [r6, #0]
 8001250:	f8df 8078 	ldr.w	r8, [pc, #120]	@ 80012cc <DistanceSensor+0xd4>
 8001254:	6a5b      	ldr	r3, [r3, #36]	@ 0x24
 8001256:	f8c8 3000 	str.w	r3, [r8]
 800125a:	f000 fe59 	bl	8001f10 <HAL_GetTick>
 800125e:	6028      	str	r0, [r5, #0]
 8001260:	2120      	movs	r1, #32
 8001262:	4620      	mov	r0, r4
 8001264:	f001 f958 	bl	8002518 <HAL_GPIO_ReadPin>
 8001268:	b130      	cbz	r0, 8001278 <DistanceSensor+0x80>
 800126a:	682b      	ldr	r3, [r5, #0]
 800126c:	f103 0732 	add.w	r7, r3, #50	@ 0x32
 8001270:	f000 fe4e 	bl	8001f10 <HAL_GetTick>
 8001274:	4287      	cmp	r7, r0
 8001276:	d8f3      	bhi.n	8001260 <DistanceSensor+0x68>
 8001278:	6833      	ldr	r3, [r6, #0]
 800127a:	4a12      	ldr	r2, [pc, #72]	@ (80012c4 <DistanceSensor+0xcc>)
 800127c:	6a5b      	ldr	r3, [r3, #36]	@ 0x24
 800127e:	6013      	str	r3, [r2, #0]
 8001280:	f8d8 2000 	ldr.w	r2, [r8]
 8001284:	1a9b      	subs	r3, r3, r2
 8001286:	ee07 3a10 	vmov	s14, r3
 800128a:	4b0f      	ldr	r3, [pc, #60]	@ (80012c8 <DistanceSensor+0xd0>)
 800128c:	ed9f 6b08 	vldr	d6, [pc, #32]	@ 80012b0 <DistanceSensor+0xb8>
 8001290:	eeb8 7b47 	vcvt.f64.u32	d7, s14
 8001294:	ee27 7b06 	vmul.f64	d7, d7, d6
 8001298:	eeb6 6b00 	vmov.f64	d6, #96	@ 0x3f000000  0.5
 800129c:	ee27 7b06 	vmul.f64	d7, d7, d6
 80012a0:	eebc 7bc7 	vcvt.u32.f64	s14, d7
 80012a4:	ed83 7a00 	vstr	s14, [r3]
 80012a8:	e7b1      	b.n	800120e <DistanceSensor+0x16>
 80012aa:	bf00      	nop
 80012ac:	f3af 8000 	nop.w
 80012b0:	b020c49c 	.word	0xb020c49c
 80012b4:	3fa16872 	.word	0x3fa16872
 80012b8:	200001b0 	.word	0x200001b0
 80012bc:	40021000 	.word	0x40021000
 80012c0:	20000098 	.word	0x20000098
 80012c4:	20000090 	.word	0x20000090
 80012c8:	2000008c 	.word	0x2000008c
 80012cc:	20000094 	.word	0x20000094

080012d0 <ProcessHeartBeat>:
 80012d0:	b51f      	push	{r0, r1, r2, r3, r4, lr}
 80012d2:	4e10      	ldr	r6, [pc, #64]	@ (8001314 <ProcessHeartBeat+0x44>)
 80012d4:	4d10      	ldr	r5, [pc, #64]	@ (8001318 <ProcessHeartBeat+0x48>)
 80012d6:	4c11      	ldr	r4, [pc, #68]	@ (800131c <ProcessHeartBeat+0x4c>)
 80012d8:	6833      	ldr	r3, [r6, #0]
 80012da:	2b00      	cmp	r3, #0
 80012dc:	d0fc      	beq.n	80012d8 <ProcessHeartBeat+0x8>
 80012de:	69ab      	ldr	r3, [r5, #24]
 80012e0:	220a      	movs	r2, #10
 80012e2:	a901      	add	r1, sp, #4
 80012e4:	480e      	ldr	r0, [pc, #56]	@ (8001320 <ProcessHeartBeat+0x50>)
 80012e6:	f8ad 3004 	strh.w	r3, [sp, #4]
 80012ea:	69a3      	ldr	r3, [r4, #24]
 80012ec:	f8ad 3006 	strh.w	r3, [sp, #6]
 80012f0:	69eb      	ldr	r3, [r5, #28]
 80012f2:	f8ad 3008 	strh.w	r3, [sp, #8]
 80012f6:	69e3      	ldr	r3, [r4, #28]
 80012f8:	f8ad 300a 	strh.w	r3, [sp, #10]
 80012fc:	4b09      	ldr	r3, [pc, #36]	@ (8001324 <ProcessHeartBeat+0x54>)
 80012fe:	681b      	ldr	r3, [r3, #0]
 8001300:	f8ad 300c 	strh.w	r3, [sp, #12]
 8001304:	f04f 33ff 	mov.w	r3, #4294967295
 8001308:	f003 fa97 	bl	800483a <HAL_UART_Transmit>
 800130c:	2064      	movs	r0, #100	@ 0x64
 800130e:	f003 fe19 	bl	8004f44 <osDelay>
 8001312:	e7e1      	b.n	80012d8 <ProcessHeartBeat+0x8>
 8001314:	20000080 	.word	0x20000080
 8001318:	2000011c 	.word	0x2000011c
 800131c:	200000e0 	.word	0x200000e0
 8001320:	20000558 	.word	0x20000558
 8001324:	2000008c 	.word	0x2000008c

08001328 <StartMultiThreads>:
 8001328:	b508      	push	{r3, lr}
 800132a:	4a0b      	ldr	r2, [pc, #44]	@ (8001358 <StartMultiThreads+0x30>)
 800132c:	2100      	movs	r1, #0
 800132e:	480b      	ldr	r0, [pc, #44]	@ (800135c <StartMultiThreads+0x34>)
 8001330:	f003 fdb4 	bl	8004e9c <osThreadNew>
 8001334:	4b0a      	ldr	r3, [pc, #40]	@ (8001360 <StartMultiThreads+0x38>)
 8001336:	4a0b      	ldr	r2, [pc, #44]	@ (8001364 <StartMultiThreads+0x3c>)
 8001338:	2100      	movs	r1, #0
 800133a:	6018      	str	r0, [r3, #0]
 800133c:	480a      	ldr	r0, [pc, #40]	@ (8001368 <StartMultiThreads+0x40>)
 800133e:	f003 fdad 	bl	8004e9c <osThreadNew>
 8001342:	4b0a      	ldr	r3, [pc, #40]	@ (800136c <StartMultiThreads+0x44>)
 8001344:	4a0a      	ldr	r2, [pc, #40]	@ (8001370 <StartMultiThreads+0x48>)
 8001346:	2100      	movs	r1, #0
 8001348:	6018      	str	r0, [r3, #0]
 800134a:	480a      	ldr	r0, [pc, #40]	@ (8001374 <StartMultiThreads+0x4c>)
 800134c:	f003 fda6 	bl	8004e9c <osThreadNew>
 8001350:	4b09      	ldr	r3, [pc, #36]	@ (8001378 <StartMultiThreads+0x50>)
 8001352:	6018      	str	r0, [r3, #0]
 8001354:	bd08      	pop	{r3, pc}
 8001356:	bf00      	nop
 8001358:	08006ca4 	.word	0x08006ca4
 800135c:	080012d1 	.word	0x080012d1
 8001360:	20000160 	.word	0x20000160
 8001364:	08006c80 	.word	0x08006c80
 8001368:	080011f9 	.word	0x080011f9
 800136c:	2000015c 	.word	0x2000015c
 8001370:	08006c5c 	.word	0x08006c5c
 8001374:	08001159 	.word	0x08001159
 8001378:	20000158 	.word	0x20000158

0800137c <MX_TIM1_Init>:
 800137c:	b510      	push	{r4, lr}
 800137e:	b08c      	sub	sp, #48	@ 0x30
 8001380:	221c      	movs	r2, #28
 8001382:	2100      	movs	r1, #0
 8001384:	2400      	movs	r4, #0
 8001386:	a804      	add	r0, sp, #16
 8001388:	f005 fb38 	bl	80069fc <memset>
 800138c:	4814      	ldr	r0, [pc, #80]	@ (80013e0 <MX_TIM1_Init+0x64>)
 800138e:	4b15      	ldr	r3, [pc, #84]	@ (80013e4 <MX_TIM1_Init+0x68>)
 8001390:	2210      	movs	r2, #16
 8001392:	a903      	add	r1, sp, #12
 8001394:	9402      	str	r4, [sp, #8]
 8001396:	6184      	str	r4, [r0, #24]
 8001398:	e9c0 3400 	strd	r3, r4, [r0]
 800139c:	f64f 73ff 	movw	r3, #65535	@ 0xffff
 80013a0:	e9c0 2302 	strd	r2, r3, [r0, #8]
 80013a4:	2303      	movs	r3, #3
 80013a6:	2201      	movs	r2, #1
 80013a8:	9303      	str	r3, [sp, #12]
 80013aa:	230f      	movs	r3, #15
 80013ac:	9205      	str	r2, [sp, #20]
 80013ae:	9307      	str	r3, [sp, #28]
 80013b0:	9209      	str	r2, [sp, #36]	@ 0x24
 80013b2:	930b      	str	r3, [sp, #44]	@ 0x2c
 80013b4:	e9cd 4400 	strd	r4, r4, [sp]
 80013b8:	e9c0 4404 	strd	r4, r4, [r0, #16]
 80013bc:	f002 fa9a 	bl	80038f4 <HAL_TIM_Encoder_Init>
 80013c0:	b108      	cbz	r0, 80013c6 <MX_TIM1_Init+0x4a>
 80013c2:	f7ff fa5b 	bl	800087c <Error_Handler>
 80013c6:	4669      	mov	r1, sp
 80013c8:	4805      	ldr	r0, [pc, #20]	@ (80013e0 <MX_TIM1_Init+0x64>)
 80013ca:	9402      	str	r4, [sp, #8]
 80013cc:	e9cd 4400 	strd	r4, r4, [sp]
 80013d0:	f002 fdea 	bl	8003fa8 <HAL_TIMEx_MasterConfigSynchronization>
 80013d4:	b108      	cbz	r0, 80013da <MX_TIM1_Init+0x5e>
 80013d6:	f7ff fa51 	bl	800087c <Error_Handler>
 80013da:	b00c      	add	sp, #48	@ 0x30
 80013dc:	bd10      	pop	{r4, pc}
 80013de:	bf00      	nop
 80013e0:	200003c4 	.word	0x200003c4
 80013e4:	40010000 	.word	0x40010000

080013e8 <MX_TIM3_Init>:
 80013e8:	b510      	push	{r4, lr}
 80013ea:	b08c      	sub	sp, #48	@ 0x30
 80013ec:	221c      	movs	r2, #28
 80013ee:	2100      	movs	r1, #0
 80013f0:	2400      	movs	r4, #0
 80013f2:	a804      	add	r0, sp, #16
 80013f4:	f005 fb02 	bl	80069fc <memset>
 80013f8:	4813      	ldr	r0, [pc, #76]	@ (8001448 <MX_TIM3_Init+0x60>)
 80013fa:	4b14      	ldr	r3, [pc, #80]	@ (800144c <MX_TIM3_Init+0x64>)
 80013fc:	2210      	movs	r2, #16
 80013fe:	a903      	add	r1, sp, #12
 8001400:	9402      	str	r4, [sp, #8]
 8001402:	6104      	str	r4, [r0, #16]
 8001404:	6184      	str	r4, [r0, #24]
 8001406:	e9c0 3400 	strd	r3, r4, [r0]
 800140a:	f64f 73ff 	movw	r3, #65535	@ 0xffff
 800140e:	e9c0 2302 	strd	r2, r3, [r0, #8]
 8001412:	2303      	movs	r3, #3
 8001414:	2201      	movs	r2, #1
 8001416:	9303      	str	r3, [sp, #12]
 8001418:	230f      	movs	r3, #15
 800141a:	9205      	str	r2, [sp, #20]
 800141c:	9307      	str	r3, [sp, #28]
 800141e:	9209      	str	r2, [sp, #36]	@ 0x24
 8001420:	930b      	str	r3, [sp, #44]	@ 0x2c
 8001422:	e9cd 4400 	strd	r4, r4, [sp]
 8001426:	f002 fa65 	bl	80038f4 <HAL_TIM_Encoder_Init>
 800142a:	b108      	cbz	r0, 8001430 <MX_TIM3_Init+0x48>
 800142c:	f7ff fa26 	bl	800087c <Error_Handler>
 8001430:	4669      	mov	r1, sp
 8001432:	4805      	ldr	r0, [pc, #20]	@ (8001448 <MX_TIM3_Init+0x60>)
 8001434:	9400      	str	r4, [sp, #0]
 8001436:	9402      	str	r4, [sp, #8]
 8001438:	f002 fdb6 	bl	8003fa8 <HAL_TIMEx_MasterConfigSynchronization>
 800143c:	b108      	cbz	r0, 8001442 <MX_TIM3_Init+0x5a>
 800143e:	f7ff fa1d 	bl	800087c <Error_Handler>
 8001442:	b00c      	add	sp, #48	@ 0x30
 8001444:	bd10      	pop	{r4, pc}
 8001446:	bf00      	nop
 8001448:	2000032c 	.word	0x2000032c
 800144c:	40000400 	.word	0x40000400

08001450 <MX_TIM4_Init>:
 8001450:	b510      	push	{r4, lr}
 8001452:	b08c      	sub	sp, #48	@ 0x30
 8001454:	221c      	movs	r2, #28
 8001456:	2100      	movs	r1, #0
 8001458:	2400      	movs	r4, #0
 800145a:	a804      	add	r0, sp, #16
 800145c:	f005 face 	bl	80069fc <memset>
 8001460:	4813      	ldr	r0, [pc, #76]	@ (80014b0 <MX_TIM4_Init+0x60>)
 8001462:	4b14      	ldr	r3, [pc, #80]	@ (80014b4 <MX_TIM4_Init+0x64>)
 8001464:	2210      	movs	r2, #16
 8001466:	a903      	add	r1, sp, #12
 8001468:	9402      	str	r4, [sp, #8]
 800146a:	6104      	str	r4, [r0, #16]
 800146c:	6184      	str	r4, [r0, #24]
 800146e:	e9c0 3400 	strd	r3, r4, [r0]
 8001472:	f64f 73ff 	movw	r3, #65535	@ 0xffff
 8001476:	e9c0 2302 	strd	r2, r3, [r0, #8]
 800147a:	2303      	movs	r3, #3
 800147c:	2201      	movs	r2, #1
 800147e:	9303      	str	r3, [sp, #12]
 8001480:	230f      	movs	r3, #15
 8001482:	9205      	str	r2, [sp, #20]
 8001484:	9307      	str	r3, [sp, #28]
 8001486:	9209      	str	r2, [sp, #36]	@ 0x24
 8001488:	930b      	str	r3, [sp, #44]	@ 0x2c
 800148a:	e9cd 4400 	strd	r4, r4, [sp]
 800148e:	f002 fa31 	bl	80038f4 <HAL_TIM_Encoder_Init>
 8001492:	b108      	cbz	r0, 8001498 <MX_TIM4_Init+0x48>
 8001494:	f7ff f9f2 	bl	800087c <Error_Handler>
 8001498:	4669      	mov	r1, sp
 800149a:	4805      	ldr	r0, [pc, #20]	@ (80014b0 <MX_TIM4_Init+0x60>)
 800149c:	9400      	str	r4, [sp, #0]
 800149e:	9402      	str	r4, [sp, #8]
 80014a0:	f002 fd82 	bl	8003fa8 <HAL_TIMEx_MasterConfigSynchronization>
 80014a4:	b108      	cbz	r0, 80014aa <MX_TIM4_Init+0x5a>
 80014a6:	f7ff f9e9 	bl	800087c <Error_Handler>
 80014aa:	b00c      	add	sp, #48	@ 0x30
 80014ac:	bd10      	pop	{r4, pc}
 80014ae:	bf00      	nop
 80014b0:	200002e0 	.word	0x200002e0
 80014b4:	40000800 	.word	0x40000800

080014b8 <MX_TIM6_Init>:
 80014b8:	b51f      	push	{r0, r1, r2, r3, r4, lr}
 80014ba:	480f      	ldr	r0, [pc, #60]	@ (80014f8 <MX_TIM6_Init+0x40>)
 80014bc:	f242 537f 	movw	r3, #9599	@ 0x257f
 80014c0:	4a0e      	ldr	r2, [pc, #56]	@ (80014fc <MX_TIM6_Init+0x44>)
 80014c2:	2400      	movs	r4, #0
 80014c4:	e9c0 2300 	strd	r2, r3, [r0]
 80014c8:	f240 33e7 	movw	r3, #999	@ 0x3e7
 80014cc:	9403      	str	r4, [sp, #12]
 80014ce:	6084      	str	r4, [r0, #8]
 80014d0:	60c3      	str	r3, [r0, #12]
 80014d2:	6184      	str	r4, [r0, #24]
 80014d4:	e9cd 4401 	strd	r4, r4, [sp, #4]
 80014d8:	f002 f97c 	bl	80037d4 <HAL_TIM_Base_Init>
 80014dc:	b108      	cbz	r0, 80014e2 <MX_TIM6_Init+0x2a>
 80014de:	f7ff f9cd 	bl	800087c <Error_Handler>
 80014e2:	a901      	add	r1, sp, #4
 80014e4:	4804      	ldr	r0, [pc, #16]	@ (80014f8 <MX_TIM6_Init+0x40>)
 80014e6:	9401      	str	r4, [sp, #4]
 80014e8:	9403      	str	r4, [sp, #12]
 80014ea:	f002 fd5d 	bl	8003fa8 <HAL_TIMEx_MasterConfigSynchronization>
 80014ee:	b108      	cbz	r0, 80014f4 <MX_TIM6_Init+0x3c>
 80014f0:	f7ff f9c4 	bl	800087c <Error_Handler>
 80014f4:	b004      	add	sp, #16
 80014f6:	bd10      	pop	{r4, pc}
 80014f8:	20000248 	.word	0x20000248
 80014fc:	40001000 	.word	0x40001000

08001500 <MX_TIM8_Init>:
 8001500:	b510      	push	{r4, lr}
 8001502:	b08c      	sub	sp, #48	@ 0x30
 8001504:	221c      	movs	r2, #28
 8001506:	2100      	movs	r1, #0
 8001508:	2400      	movs	r4, #0
 800150a:	a804      	add	r0, sp, #16
 800150c:	f005 fa76 	bl	80069fc <memset>
 8001510:	4814      	ldr	r0, [pc, #80]	@ (8001564 <MX_TIM8_Init+0x64>)
 8001512:	4b15      	ldr	r3, [pc, #84]	@ (8001568 <MX_TIM8_Init+0x68>)
 8001514:	2210      	movs	r2, #16
 8001516:	a903      	add	r1, sp, #12
 8001518:	9402      	str	r4, [sp, #8]
 800151a:	6184      	str	r4, [r0, #24]
 800151c:	e9c0 3400 	strd	r3, r4, [r0]
 8001520:	f64f 73ff 	movw	r3, #65535	@ 0xffff
 8001524:	e9c0 2302 	strd	r2, r3, [r0, #8]
 8001528:	2303      	movs	r3, #3
 800152a:	2201      	movs	r2, #1
 800152c:	9303      	str	r3, [sp, #12]
 800152e:	230f      	movs	r3, #15
 8001530:	9205      	str	r2, [sp, #20]
 8001532:	9307      	str	r3, [sp, #28]
 8001534:	9209      	str	r2, [sp, #36]	@ 0x24
 8001536:	930b      	str	r3, [sp, #44]	@ 0x2c
 8001538:	e9cd 4400 	strd	r4, r4, [sp]
 800153c:	e9c0 4404 	strd	r4, r4, [r0, #16]
 8001540:	f002 f9d8 	bl	80038f4 <HAL_TIM_Encoder_Init>
 8001544:	b108      	cbz	r0, 800154a <MX_TIM8_Init+0x4a>
 8001546:	f7ff f999 	bl	800087c <Error_Handler>
 800154a:	4669      	mov	r1, sp
 800154c:	4805      	ldr	r0, [pc, #20]	@ (8001564 <MX_TIM8_Init+0x64>)
 800154e:	9402      	str	r4, [sp, #8]
 8001550:	e9cd 4400 	strd	r4, r4, [sp]
 8001554:	f002 fd28 	bl	8003fa8 <HAL_TIMEx_MasterConfigSynchronization>
 8001558:	b108      	cbz	r0, 800155e <MX_TIM8_Init+0x5e>
 800155a:	f7ff f98f 	bl	800087c <Error_Handler>
 800155e:	b00c      	add	sp, #48	@ 0x30
 8001560:	bd10      	pop	{r4, pc}
 8001562:	bf00      	nop
 8001564:	200001fc 	.word	0x200001fc
 8001568:	40010400 	.word	0x40010400

0800156c <MX_TIM9_Init>:
 800156c:	b500      	push	{lr}
 800156e:	b089      	sub	sp, #36	@ 0x24
 8001570:	2210      	movs	r2, #16
 8001572:	2100      	movs	r1, #0
 8001574:	4668      	mov	r0, sp
 8001576:	f005 fa41 	bl	80069fc <memset>
 800157a:	2210      	movs	r2, #16
 800157c:	2100      	movs	r1, #0
 800157e:	eb0d 0002 	add.w	r0, sp, r2
 8001582:	f005 fa3b 	bl	80069fc <memset>
 8001586:	4818      	ldr	r0, [pc, #96]	@ (80015e8 <MX_TIM9_Init+0x7c>)
 8001588:	4a18      	ldr	r2, [pc, #96]	@ (80015ec <MX_TIM9_Init+0x80>)
 800158a:	235f      	movs	r3, #95	@ 0x5f
 800158c:	e9c0 2300 	strd	r2, r3, [r0]
 8001590:	2300      	movs	r3, #0
 8001592:	f64f 72ff 	movw	r2, #65535	@ 0xffff
 8001596:	6103      	str	r3, [r0, #16]
 8001598:	6183      	str	r3, [r0, #24]
 800159a:	e9c0 3202 	strd	r3, r2, [r0, #8]
 800159e:	f002 f919 	bl	80037d4 <HAL_TIM_Base_Init>
 80015a2:	b108      	cbz	r0, 80015a8 <MX_TIM9_Init+0x3c>
 80015a4:	f7ff f96a 	bl	800087c <Error_Handler>
 80015a8:	f44f 5380 	mov.w	r3, #4096	@ 0x1000
 80015ac:	4669      	mov	r1, sp
 80015ae:	480e      	ldr	r0, [pc, #56]	@ (80015e8 <MX_TIM9_Init+0x7c>)
 80015b0:	9300      	str	r3, [sp, #0]
 80015b2:	f002 fb7f 	bl	8003cb4 <HAL_TIM_ConfigClockSource>
 80015b6:	b108      	cbz	r0, 80015bc <MX_TIM9_Init+0x50>
 80015b8:	f7ff f960 	bl	800087c <Error_Handler>
 80015bc:	480a      	ldr	r0, [pc, #40]	@ (80015e8 <MX_TIM9_Init+0x7c>)
 80015be:	f002 f969 	bl	8003894 <HAL_TIM_IC_Init>
 80015c2:	b108      	cbz	r0, 80015c8 <MX_TIM9_Init+0x5c>
 80015c4:	f7ff f95a 	bl	800087c <Error_Handler>
 80015c8:	2200      	movs	r2, #0
 80015ca:	2301      	movs	r3, #1
 80015cc:	a904      	add	r1, sp, #16
 80015ce:	4806      	ldr	r0, [pc, #24]	@ (80015e8 <MX_TIM9_Init+0x7c>)
 80015d0:	e9cd 2304 	strd	r2, r3, [sp, #16]
 80015d4:	e9cd 2206 	strd	r2, r2, [sp, #24]
 80015d8:	f002 face 	bl	8003b78 <HAL_TIM_IC_ConfigChannel>
 80015dc:	b108      	cbz	r0, 80015e2 <MX_TIM9_Init+0x76>
 80015de:	f7ff f94d 	bl	800087c <Error_Handler>
 80015e2:	b009      	add	sp, #36	@ 0x24
 80015e4:	f85d fb04 	ldr.w	pc, [sp], #4
 80015e8:	200001b0 	.word	0x200001b0
 80015ec:	40014000 	.word	0x40014000

080015f0 <HAL_TIM_Encoder_MspInit>:
 80015f0:	b530      	push	{r4, r5, lr}
 80015f2:	b08f      	sub	sp, #60	@ 0x3c
 80015f4:	4604      	mov	r4, r0
 80015f6:	2214      	movs	r2, #20
 80015f8:	2100      	movs	r1, #0
 80015fa:	a809      	add	r0, sp, #36	@ 0x24
 80015fc:	f005 f9fe 	bl	80069fc <memset>
 8001600:	6823      	ldr	r3, [r4, #0]
 8001602:	4a71      	ldr	r2, [pc, #452]	@ (80017c8 <HAL_TIM_Encoder_MspInit+0x1d8>)
 8001604:	4293      	cmp	r3, r2
 8001606:	d13f      	bne.n	8001688 <HAL_TIM_Encoder_MspInit+0x98>
 8001608:	4b70      	ldr	r3, [pc, #448]	@ (80017cc <HAL_TIM_Encoder_MspInit+0x1dc>)
 800160a:	f44f 6020 	mov.w	r0, #2560	@ 0xa00
 800160e:	a909      	add	r1, sp, #36	@ 0x24
 8001610:	6c5a      	ldr	r2, [r3, #68]	@ 0x44
 8001612:	f042 0201 	orr.w	r2, r2, #1
 8001616:	645a      	str	r2, [r3, #68]	@ 0x44
 8001618:	6c5a      	ldr	r2, [r3, #68]	@ 0x44
 800161a:	f002 0201 	and.w	r2, r2, #1
 800161e:	9200      	str	r2, [sp, #0]
 8001620:	9a00      	ldr	r2, [sp, #0]
 8001622:	6b1a      	ldr	r2, [r3, #48]	@ 0x30
 8001624:	f042 0210 	orr.w	r2, r2, #16
 8001628:	631a      	str	r2, [r3, #48]	@ 0x30
 800162a:	6b1b      	ldr	r3, [r3, #48]	@ 0x30
 800162c:	f003 0310 	and.w	r3, r3, #16
 8001630:	9301      	str	r3, [sp, #4]
 8001632:	9b01      	ldr	r3, [sp, #4]
 8001634:	2302      	movs	r3, #2
 8001636:	e9cd 0309 	strd	r0, r3, [sp, #36]	@ 0x24
 800163a:	2301      	movs	r3, #1
 800163c:	4864      	ldr	r0, [pc, #400]	@ (80017d0 <HAL_TIM_Encoder_MspInit+0x1e0>)
 800163e:	930d      	str	r3, [sp, #52]	@ 0x34
 8001640:	f000 fe86 	bl	8002350 <HAL_GPIO_Init>
 8001644:	2200      	movs	r2, #0
 8001646:	2105      	movs	r1, #5
 8001648:	2018      	movs	r0, #24
 800164a:	f000 fc8b 	bl	8001f64 <HAL_NVIC_SetPriority>
 800164e:	2018      	movs	r0, #24
 8001650:	f000 fcba 	bl	8001fc8 <HAL_NVIC_EnableIRQ>
 8001654:	2200      	movs	r2, #0
 8001656:	2105      	movs	r1, #5
 8001658:	2019      	movs	r0, #25
 800165a:	f000 fc83 	bl	8001f64 <HAL_NVIC_SetPriority>
 800165e:	2019      	movs	r0, #25
 8001660:	f000 fcb2 	bl	8001fc8 <HAL_NVIC_EnableIRQ>
 8001664:	2200      	movs	r2, #0
 8001666:	2105      	movs	r1, #5
 8001668:	201a      	movs	r0, #26
 800166a:	f000 fc7b 	bl	8001f64 <HAL_NVIC_SetPriority>
 800166e:	201a      	movs	r0, #26
 8001670:	f000 fcaa 	bl	8001fc8 <HAL_NVIC_EnableIRQ>
 8001674:	201b      	movs	r0, #27
 8001676:	2200      	movs	r2, #0
 8001678:	2105      	movs	r1, #5
 800167a:	f000 fc73 	bl	8001f64 <HAL_NVIC_SetPriority>
 800167e:	201b      	movs	r0, #27
 8001680:	f000 fca2 	bl	8001fc8 <HAL_NVIC_EnableIRQ>
 8001684:	b00f      	add	sp, #60	@ 0x3c
 8001686:	bd30      	pop	{r4, r5, pc}
 8001688:	4a52      	ldr	r2, [pc, #328]	@ (80017d4 <HAL_TIM_Encoder_MspInit+0x1e4>)
 800168a:	4293      	cmp	r3, r2
 800168c:	d136      	bne.n	80016fc <HAL_TIM_Encoder_MspInit+0x10c>
 800168e:	4b4f      	ldr	r3, [pc, #316]	@ (80017cc <HAL_TIM_Encoder_MspInit+0x1dc>)
 8001690:	2402      	movs	r4, #2
 8001692:	a909      	add	r1, sp, #36	@ 0x24
 8001694:	4850      	ldr	r0, [pc, #320]	@ (80017d8 <HAL_TIM_Encoder_MspInit+0x1e8>)
 8001696:	6c1a      	ldr	r2, [r3, #64]	@ 0x40
 8001698:	2500      	movs	r5, #0
 800169a:	f042 0202 	orr.w	r2, r2, #2
 800169e:	641a      	str	r2, [r3, #64]	@ 0x40
 80016a0:	6c1a      	ldr	r2, [r3, #64]	@ 0x40
 80016a2:	f002 0202 	and.w	r2, r2, #2
 80016a6:	9202      	str	r2, [sp, #8]
 80016a8:	9a02      	ldr	r2, [sp, #8]
 80016aa:	6b1a      	ldr	r2, [r3, #48]	@ 0x30
 80016ac:	f042 0201 	orr.w	r2, r2, #1
 80016b0:	631a      	str	r2, [r3, #48]	@ 0x30
 80016b2:	6b1a      	ldr	r2, [r3, #48]	@ 0x30
 80016b4:	f002 0201 	and.w	r2, r2, #1
 80016b8:	9203      	str	r2, [sp, #12]
 80016ba:	9a03      	ldr	r2, [sp, #12]
 80016bc:	6b1a      	ldr	r2, [r3, #48]	@ 0x30
 80016be:	f042 0202 	orr.w	r2, r2, #2
 80016c2:	631a      	str	r2, [r3, #48]	@ 0x30
 80016c4:	6b1b      	ldr	r3, [r3, #48]	@ 0x30
 80016c6:	940d      	str	r4, [sp, #52]	@ 0x34
 80016c8:	f003 0302 	and.w	r3, r3, #2
 80016cc:	9304      	str	r3, [sp, #16]
 80016ce:	9b04      	ldr	r3, [sp, #16]
 80016d0:	2340      	movs	r3, #64	@ 0x40
 80016d2:	e9cd 3409 	strd	r3, r4, [sp, #36]	@ 0x24
 80016d6:	f000 fe3b 	bl	8002350 <HAL_GPIO_Init>
 80016da:	2320      	movs	r3, #32
 80016dc:	a909      	add	r1, sp, #36	@ 0x24
 80016de:	483f      	ldr	r0, [pc, #252]	@ (80017dc <HAL_TIM_Encoder_MspInit+0x1ec>)
 80016e0:	940d      	str	r4, [sp, #52]	@ 0x34
 80016e2:	e9cd 3409 	strd	r3, r4, [sp, #36]	@ 0x24
 80016e6:	e9cd 550b 	strd	r5, r5, [sp, #44]	@ 0x2c
 80016ea:	f000 fe31 	bl	8002350 <HAL_GPIO_Init>
 80016ee:	201d      	movs	r0, #29
 80016f0:	462a      	mov	r2, r5
 80016f2:	2105      	movs	r1, #5
 80016f4:	f000 fc36 	bl	8001f64 <HAL_NVIC_SetPriority>
 80016f8:	201d      	movs	r0, #29
 80016fa:	e7c1      	b.n	8001680 <HAL_TIM_Encoder_MspInit+0x90>
 80016fc:	4a38      	ldr	r2, [pc, #224]	@ (80017e0 <HAL_TIM_Encoder_MspInit+0x1f0>)
 80016fe:	4293      	cmp	r3, r2
 8001700:	d123      	bne.n	800174a <HAL_TIM_Encoder_MspInit+0x15a>
 8001702:	4b32      	ldr	r3, [pc, #200]	@ (80017cc <HAL_TIM_Encoder_MspInit+0x1dc>)
 8001704:	f44f 5140 	mov.w	r1, #12288	@ 0x3000
 8001708:	4836      	ldr	r0, [pc, #216]	@ (80017e4 <HAL_TIM_Encoder_MspInit+0x1f4>)
 800170a:	6c1a      	ldr	r2, [r3, #64]	@ 0x40
 800170c:	f042 0204 	orr.w	r2, r2, #4
 8001710:	641a      	str	r2, [r3, #64]	@ 0x40
 8001712:	6c1a      	ldr	r2, [r3, #64]	@ 0x40
 8001714:	f002 0204 	and.w	r2, r2, #4
 8001718:	9205      	str	r2, [sp, #20]
 800171a:	9a05      	ldr	r2, [sp, #20]
 800171c:	6b1a      	ldr	r2, [r3, #48]	@ 0x30
 800171e:	f042 0208 	orr.w	r2, r2, #8
 8001722:	631a      	str	r2, [r3, #48]	@ 0x30
 8001724:	6b1b      	ldr	r3, [r3, #48]	@ 0x30
 8001726:	f003 0308 	and.w	r3, r3, #8
 800172a:	9306      	str	r3, [sp, #24]
 800172c:	9b06      	ldr	r3, [sp, #24]
 800172e:	2302      	movs	r3, #2
 8001730:	e9cd 1309 	strd	r1, r3, [sp, #36]	@ 0x24
 8001734:	a909      	add	r1, sp, #36	@ 0x24
 8001736:	930d      	str	r3, [sp, #52]	@ 0x34
 8001738:	f000 fe0a 	bl	8002350 <HAL_GPIO_Init>
 800173c:	201e      	movs	r0, #30
 800173e:	2200      	movs	r2, #0
 8001740:	2105      	movs	r1, #5
 8001742:	f000 fc0f 	bl	8001f64 <HAL_NVIC_SetPriority>
 8001746:	201e      	movs	r0, #30
 8001748:	e79a      	b.n	8001680 <HAL_TIM_Encoder_MspInit+0x90>
 800174a:	4a27      	ldr	r2, [pc, #156]	@ (80017e8 <HAL_TIM_Encoder_MspInit+0x1f8>)
 800174c:	4293      	cmp	r3, r2
 800174e:	d199      	bne.n	8001684 <HAL_TIM_Encoder_MspInit+0x94>
 8001750:	4b1e      	ldr	r3, [pc, #120]	@ (80017cc <HAL_TIM_Encoder_MspInit+0x1dc>)
 8001752:	a909      	add	r1, sp, #36	@ 0x24
 8001754:	4825      	ldr	r0, [pc, #148]	@ (80017ec <HAL_TIM_Encoder_MspInit+0x1fc>)
 8001756:	6c5a      	ldr	r2, [r3, #68]	@ 0x44
 8001758:	f042 0202 	orr.w	r2, r2, #2
 800175c:	645a      	str	r2, [r3, #68]	@ 0x44
 800175e:	6c5a      	ldr	r2, [r3, #68]	@ 0x44
 8001760:	f002 0202 	and.w	r2, r2, #2
 8001764:	9207      	str	r2, [sp, #28]
 8001766:	9a07      	ldr	r2, [sp, #28]
 8001768:	6b1a      	ldr	r2, [r3, #48]	@ 0x30
 800176a:	f042 0204 	orr.w	r2, r2, #4
 800176e:	631a      	str	r2, [r3, #48]	@ 0x30
 8001770:	22c0      	movs	r2, #192	@ 0xc0
 8001772:	6b1b      	ldr	r3, [r3, #48]	@ 0x30
 8001774:	f003 0304 	and.w	r3, r3, #4
 8001778:	9308      	str	r3, [sp, #32]
 800177a:	9b08      	ldr	r3, [sp, #32]
 800177c:	2302      	movs	r3, #2
 800177e:	e9cd 2309 	strd	r2, r3, [sp, #36]	@ 0x24
 8001782:	2303      	movs	r3, #3
 8001784:	930d      	str	r3, [sp, #52]	@ 0x34
 8001786:	f000 fde3 	bl	8002350 <HAL_GPIO_Init>
 800178a:	2200      	movs	r2, #0
 800178c:	2105      	movs	r1, #5
 800178e:	202b      	movs	r0, #43	@ 0x2b
 8001790:	f000 fbe8 	bl	8001f64 <HAL_NVIC_SetPriority>
 8001794:	202b      	movs	r0, #43	@ 0x2b
 8001796:	f000 fc17 	bl	8001fc8 <HAL_NVIC_EnableIRQ>
 800179a:	2200      	movs	r2, #0
 800179c:	2105      	movs	r1, #5
 800179e:	202c      	movs	r0, #44	@ 0x2c
 80017a0:	f000 fbe0 	bl	8001f64 <HAL_NVIC_SetPriority>
 80017a4:	202c      	movs	r0, #44	@ 0x2c
 80017a6:	f000 fc0f 	bl	8001fc8 <HAL_NVIC_EnableIRQ>
 80017aa:	2200      	movs	r2, #0
 80017ac:	2105      	movs	r1, #5
 80017ae:	202d      	movs	r0, #45	@ 0x2d
 80017b0:	f000 fbd8 	bl	8001f64 <HAL_NVIC_SetPriority>
 80017b4:	202d      	movs	r0, #45	@ 0x2d
 80017b6:	f000 fc07 	bl	8001fc8 <HAL_NVIC_EnableIRQ>
 80017ba:	202e      	movs	r0, #46	@ 0x2e
 80017bc:	2200      	movs	r2, #0
 80017be:	2105      	movs	r1, #5
 80017c0:	f000 fbd0 	bl	8001f64 <HAL_NVIC_SetPriority>
 80017c4:	202e      	movs	r0, #46	@ 0x2e
 80017c6:	e75b      	b.n	8001680 <HAL_TIM_Encoder_MspInit+0x90>
 80017c8:	40010000 	.word	0x40010000
 80017cc:	40023800 	.word	0x40023800
 80017d0:	40021000 	.word	0x40021000
 80017d4:	40000400 	.word	0x40000400
 80017d8:	40020000 	.word	0x40020000
 80017dc:	40020400 	.word	0x40020400
 80017e0:	40000800 	.word	0x40000800
 80017e4:	40020c00 	.word	0x40020c00
 80017e8:	40010400 	.word	0x40010400
 80017ec:	40020800 	.word	0x40020800

080017f0 <HAL_TIM_PWM_MspInit>:
 80017f0:	b51f      	push	{r0, r1, r2, r3, r4, lr}
 80017f2:	6803      	ldr	r3, [r0, #0]
 80017f4:	f1b3 4f80 	cmp.w	r3, #1073741824	@ 0x40000000
 80017f8:	d115      	bne.n	8001826 <HAL_TIM_PWM_MspInit+0x36>
 80017fa:	f503 330e 	add.w	r3, r3, #145408	@ 0x23800
 80017fe:	201c      	movs	r0, #28
 8001800:	2105      	movs	r1, #5
 8001802:	6c1a      	ldr	r2, [r3, #64]	@ 0x40
 8001804:	f042 0201 	orr.w	r2, r2, #1
 8001808:	641a      	str	r2, [r3, #64]	@ 0x40
 800180a:	2200      	movs	r2, #0
 800180c:	6c1b      	ldr	r3, [r3, #64]	@ 0x40
 800180e:	f003 0301 	and.w	r3, r3, #1
 8001812:	9301      	str	r3, [sp, #4]
 8001814:	9b01      	ldr	r3, [sp, #4]
 8001816:	f000 fba5 	bl	8001f64 <HAL_NVIC_SetPriority>
 800181a:	201c      	movs	r0, #28
 800181c:	b005      	add	sp, #20
 800181e:	f85d eb04 	ldr.w	lr, [sp], #4
 8001822:	f000 bbd1 	b.w	8001fc8 <HAL_NVIC_EnableIRQ>
 8001826:	4a15      	ldr	r2, [pc, #84]	@ (800187c <HAL_TIM_PWM_MspInit+0x8c>)
 8001828:	4293      	cmp	r3, r2
 800182a:	d110      	bne.n	800184e <HAL_TIM_PWM_MspInit+0x5e>
 800182c:	4b14      	ldr	r3, [pc, #80]	@ (8001880 <HAL_TIM_PWM_MspInit+0x90>)
 800182e:	2032      	movs	r0, #50	@ 0x32
 8001830:	2105      	movs	r1, #5
 8001832:	6c1a      	ldr	r2, [r3, #64]	@ 0x40
 8001834:	f042 0208 	orr.w	r2, r2, #8
 8001838:	641a      	str	r2, [r3, #64]	@ 0x40
 800183a:	2200      	movs	r2, #0
 800183c:	6c1b      	ldr	r3, [r3, #64]	@ 0x40
 800183e:	f003 0308 	and.w	r3, r3, #8
 8001842:	9302      	str	r3, [sp, #8]
 8001844:	9b02      	ldr	r3, [sp, #8]
 8001846:	f000 fb8d 	bl	8001f64 <HAL_NVIC_SetPriority>
 800184a:	2032      	movs	r0, #50	@ 0x32
 800184c:	e7e6      	b.n	800181c <HAL_TIM_PWM_MspInit+0x2c>
 800184e:	4a0d      	ldr	r2, [pc, #52]	@ (8001884 <HAL_TIM_PWM_MspInit+0x94>)
 8001850:	4293      	cmp	r3, r2
 8001852:	d110      	bne.n	8001876 <HAL_TIM_PWM_MspInit+0x86>
 8001854:	4b0a      	ldr	r3, [pc, #40]	@ (8001880 <HAL_TIM_PWM_MspInit+0x90>)
 8001856:	202b      	movs	r0, #43	@ 0x2b
 8001858:	2105      	movs	r1, #5
 800185a:	6c1a      	ldr	r2, [r3, #64]	@ 0x40
 800185c:	f042 0240 	orr.w	r2, r2, #64	@ 0x40
 8001860:	641a      	str	r2, [r3, #64]	@ 0x40
 8001862:	2200      	movs	r2, #0
 8001864:	6c1b      	ldr	r3, [r3, #64]	@ 0x40
 8001866:	f003 0340 	and.w	r3, r3, #64	@ 0x40
 800186a:	9303      	str	r3, [sp, #12]
 800186c:	9b03      	ldr	r3, [sp, #12]
 800186e:	f000 fb79 	bl	8001f64 <HAL_NVIC_SetPriority>
 8001872:	202b      	movs	r0, #43	@ 0x2b
 8001874:	e7d2      	b.n	800181c <HAL_TIM_PWM_MspInit+0x2c>
 8001876:	b005      	add	sp, #20
 8001878:	f85d fb04 	ldr.w	pc, [sp], #4
 800187c:	40000c00 	.word	0x40000c00
 8001880:	40023800 	.word	0x40023800
 8001884:	40001800 	.word	0x40001800

08001888 <HAL_TIM_Base_MspInit>:
 8001888:	b510      	push	{r4, lr}
 800188a:	b088      	sub	sp, #32
 800188c:	4604      	mov	r4, r0
 800188e:	2214      	movs	r2, #20
 8001890:	2100      	movs	r1, #0
 8001892:	a803      	add	r0, sp, #12
 8001894:	f005 f8b2 	bl	80069fc <memset>
 8001898:	6823      	ldr	r3, [r4, #0]
 800189a:	4a1f      	ldr	r2, [pc, #124]	@ (8001918 <HAL_TIM_Base_MspInit+0x90>)
 800189c:	4293      	cmp	r3, r2
 800189e:	d113      	bne.n	80018c8 <HAL_TIM_Base_MspInit+0x40>
 80018a0:	4b1e      	ldr	r3, [pc, #120]	@ (800191c <HAL_TIM_Base_MspInit+0x94>)
 80018a2:	2036      	movs	r0, #54	@ 0x36
 80018a4:	2105      	movs	r1, #5
 80018a6:	6c1a      	ldr	r2, [r3, #64]	@ 0x40
 80018a8:	f042 0210 	orr.w	r2, r2, #16
 80018ac:	641a      	str	r2, [r3, #64]	@ 0x40
 80018ae:	2200      	movs	r2, #0
 80018b0:	6c1b      	ldr	r3, [r3, #64]	@ 0x40
 80018b2:	f003 0310 	and.w	r3, r3, #16
 80018b6:	9300      	str	r3, [sp, #0]
 80018b8:	9b00      	ldr	r3, [sp, #0]
 80018ba:	f000 fb53 	bl	8001f64 <HAL_NVIC_SetPriority>
 80018be:	2036      	movs	r0, #54	@ 0x36
 80018c0:	f000 fb82 	bl	8001fc8 <HAL_NVIC_EnableIRQ>
 80018c4:	b008      	add	sp, #32
 80018c6:	bd10      	pop	{r4, pc}
 80018c8:	4a15      	ldr	r2, [pc, #84]	@ (8001920 <HAL_TIM_Base_MspInit+0x98>)
 80018ca:	4293      	cmp	r3, r2
 80018cc:	d1fa      	bne.n	80018c4 <HAL_TIM_Base_MspInit+0x3c>
 80018ce:	4b13      	ldr	r3, [pc, #76]	@ (800191c <HAL_TIM_Base_MspInit+0x94>)
 80018d0:	a903      	add	r1, sp, #12
 80018d2:	4814      	ldr	r0, [pc, #80]	@ (8001924 <HAL_TIM_Base_MspInit+0x9c>)
 80018d4:	6c5a      	ldr	r2, [r3, #68]	@ 0x44
 80018d6:	f442 3280 	orr.w	r2, r2, #65536	@ 0x10000
 80018da:	645a      	str	r2, [r3, #68]	@ 0x44
 80018dc:	6c5a      	ldr	r2, [r3, #68]	@ 0x44
 80018de:	f402 3280 	and.w	r2, r2, #65536	@ 0x10000
 80018e2:	9201      	str	r2, [sp, #4]
 80018e4:	9a01      	ldr	r2, [sp, #4]
 80018e6:	6b1a      	ldr	r2, [r3, #48]	@ 0x30
 80018e8:	f042 0210 	orr.w	r2, r2, #16
 80018ec:	631a      	str	r2, [r3, #48]	@ 0x30
 80018ee:	2220      	movs	r2, #32
 80018f0:	6b1b      	ldr	r3, [r3, #48]	@ 0x30
 80018f2:	f003 0310 	and.w	r3, r3, #16
 80018f6:	9302      	str	r3, [sp, #8]
 80018f8:	9b02      	ldr	r3, [sp, #8]
 80018fa:	2302      	movs	r3, #2
 80018fc:	e9cd 2303 	strd	r2, r3, [sp, #12]
 8001900:	2303      	movs	r3, #3
 8001902:	9307      	str	r3, [sp, #28]
 8001904:	f000 fd24 	bl	8002350 <HAL_GPIO_Init>
 8001908:	2018      	movs	r0, #24
 800190a:	2200      	movs	r2, #0
 800190c:	2105      	movs	r1, #5
 800190e:	f000 fb29 	bl	8001f64 <HAL_NVIC_SetPriority>
 8001912:	2018      	movs	r0, #24
 8001914:	e7d4      	b.n	80018c0 <HAL_TIM_Base_MspInit+0x38>
 8001916:	bf00      	nop
 8001918:	40001000 	.word	0x40001000
 800191c:	40023800 	.word	0x40023800
 8001920:	40014000 	.word	0x40014000
 8001924:	40021000 	.word	0x40021000

08001928 <HAL_TIM_MspPostInit>:
 8001928:	b530      	push	{r4, r5, lr}
 800192a:	2214      	movs	r2, #20
 800192c:	b08b      	sub	sp, #44	@ 0x2c
 800192e:	4604      	mov	r4, r0
 8001930:	2100      	movs	r1, #0
 8001932:	eb0d 0002 	add.w	r0, sp, r2
 8001936:	f005 f861 	bl	80069fc <memset>
 800193a:	6823      	ldr	r3, [r4, #0]
 800193c:	f1b3 4f80 	cmp.w	r3, #1073741824	@ 0x40000000
 8001940:	d128      	bne.n	8001994 <HAL_TIM_MspPostInit+0x6c>
 8001942:	f503 330e 	add.w	r3, r3, #145408	@ 0x23800
 8001946:	2502      	movs	r5, #2
 8001948:	2401      	movs	r4, #1
 800194a:	a905      	add	r1, sp, #20
 800194c:	6b1a      	ldr	r2, [r3, #48]	@ 0x30
 800194e:	4828      	ldr	r0, [pc, #160]	@ (80019f0 <HAL_TIM_MspPostInit+0xc8>)
 8001950:	f042 0201 	orr.w	r2, r2, #1
 8001954:	631a      	str	r2, [r3, #48]	@ 0x30
 8001956:	6b1a      	ldr	r2, [r3, #48]	@ 0x30
 8001958:	f002 0201 	and.w	r2, r2, #1
 800195c:	9201      	str	r2, [sp, #4]
 800195e:	9a01      	ldr	r2, [sp, #4]
 8001960:	6b1a      	ldr	r2, [r3, #48]	@ 0x30
 8001962:	f042 0202 	orr.w	r2, r2, #2
 8001966:	631a      	str	r2, [r3, #48]	@ 0x30
 8001968:	6b1b      	ldr	r3, [r3, #48]	@ 0x30
 800196a:	9409      	str	r4, [sp, #36]	@ 0x24
 800196c:	f003 0302 	and.w	r3, r3, #2
 8001970:	9302      	str	r3, [sp, #8]
 8001972:	9b02      	ldr	r3, [sp, #8]
 8001974:	2320      	movs	r3, #32
 8001976:	e9cd 3505 	strd	r3, r5, [sp, #20]
 800197a:	f000 fce9 	bl	8002350 <HAL_GPIO_Init>
 800197e:	f44f 6300 	mov.w	r3, #2048	@ 0x800
 8001982:	9409      	str	r4, [sp, #36]	@ 0x24
 8001984:	e9cd 3505 	strd	r3, r5, [sp, #20]
 8001988:	2300      	movs	r3, #0
 800198a:	e9cd 3307 	strd	r3, r3, [sp, #28]
 800198e:	a905      	add	r1, sp, #20
 8001990:	4818      	ldr	r0, [pc, #96]	@ (80019f4 <HAL_TIM_MspPostInit+0xcc>)
 8001992:	e013      	b.n	80019bc <HAL_TIM_MspPostInit+0x94>
 8001994:	4a18      	ldr	r2, [pc, #96]	@ (80019f8 <HAL_TIM_MspPostInit+0xd0>)
 8001996:	4293      	cmp	r3, r2
 8001998:	d114      	bne.n	80019c4 <HAL_TIM_MspPostInit+0x9c>
 800199a:	4b18      	ldr	r3, [pc, #96]	@ (80019fc <HAL_TIM_MspPostInit+0xd4>)
 800199c:	2109      	movs	r1, #9
 800199e:	4814      	ldr	r0, [pc, #80]	@ (80019f0 <HAL_TIM_MspPostInit+0xc8>)
 80019a0:	6b1a      	ldr	r2, [r3, #48]	@ 0x30
 80019a2:	f042 0201 	orr.w	r2, r2, #1
 80019a6:	631a      	str	r2, [r3, #48]	@ 0x30
 80019a8:	6b1b      	ldr	r3, [r3, #48]	@ 0x30
 80019aa:	f003 0301 	and.w	r3, r3, #1
 80019ae:	9303      	str	r3, [sp, #12]
 80019b0:	9b03      	ldr	r3, [sp, #12]
 80019b2:	2302      	movs	r3, #2
 80019b4:	e9cd 1305 	strd	r1, r3, [sp, #20]
 80019b8:	a905      	add	r1, sp, #20
 80019ba:	9309      	str	r3, [sp, #36]	@ 0x24
 80019bc:	f000 fcc8 	bl	8002350 <HAL_GPIO_Init>
 80019c0:	b00b      	add	sp, #44	@ 0x2c
 80019c2:	bd30      	pop	{r4, r5, pc}
 80019c4:	4a0e      	ldr	r2, [pc, #56]	@ (8001a00 <HAL_TIM_MspPostInit+0xd8>)
 80019c6:	4293      	cmp	r3, r2
 80019c8:	d1fa      	bne.n	80019c0 <HAL_TIM_MspPostInit+0x98>
 80019ca:	4b0c      	ldr	r3, [pc, #48]	@ (80019fc <HAL_TIM_MspPostInit+0xd4>)
 80019cc:	6b1a      	ldr	r2, [r3, #48]	@ 0x30
 80019ce:	f042 0202 	orr.w	r2, r2, #2
 80019d2:	631a      	str	r2, [r3, #48]	@ 0x30
 80019d4:	f44f 4200 	mov.w	r2, #32768	@ 0x8000
 80019d8:	6b1b      	ldr	r3, [r3, #48]	@ 0x30
 80019da:	f003 0302 	and.w	r3, r3, #2
 80019de:	9304      	str	r3, [sp, #16]
 80019e0:	9b04      	ldr	r3, [sp, #16]
 80019e2:	2302      	movs	r3, #2
 80019e4:	e9cd 2305 	strd	r2, r3, [sp, #20]
 80019e8:	2309      	movs	r3, #9
 80019ea:	9309      	str	r3, [sp, #36]	@ 0x24
 80019ec:	e7cf      	b.n	800198e <HAL_TIM_MspPostInit+0x66>
 80019ee:	bf00      	nop
 80019f0:	40020000 	.word	0x40020000
 80019f4:	40020400 	.word	0x40020400
 80019f8:	40000c00 	.word	0x40000c00
 80019fc:	40023800 	.word	0x40023800
 8001a00:	40001800 	.word	0x40001800

08001a04 <MX_TIM2_Init>:
 8001a04:	b510      	push	{r4, lr}
 8001a06:	2400      	movs	r4, #0
 8001a08:	b08a      	sub	sp, #40	@ 0x28
 8001a0a:	221c      	movs	r2, #28
 8001a0c:	4621      	mov	r1, r4
 8001a0e:	a803      	add	r0, sp, #12
 8001a10:	9402      	str	r4, [sp, #8]
 8001a12:	e9cd 4400 	strd	r4, r4, [sp]
 8001a16:	f004 fff1 	bl	80069fc <memset>
 8001a1a:	481a      	ldr	r0, [pc, #104]	@ (8001a84 <MX_TIM2_Init+0x80>)
 8001a1c:	232f      	movs	r3, #47	@ 0x2f
 8001a1e:	f04f 4280 	mov.w	r2, #1073741824	@ 0x40000000
 8001a22:	6084      	str	r4, [r0, #8]
 8001a24:	6184      	str	r4, [r0, #24]
 8001a26:	e9c0 2300 	strd	r2, r3, [r0]
 8001a2a:	f240 33e7 	movw	r3, #999	@ 0x3e7
 8001a2e:	e9c0 3403 	strd	r3, r4, [r0, #12]
 8001a32:	f001 feff 	bl	8003834 <HAL_TIM_PWM_Init>
 8001a36:	b108      	cbz	r0, 8001a3c <MX_TIM2_Init+0x38>
 8001a38:	f7fe ff20 	bl	800087c <Error_Handler>
 8001a3c:	4669      	mov	r1, sp
 8001a3e:	4811      	ldr	r0, [pc, #68]	@ (8001a84 <MX_TIM2_Init+0x80>)
 8001a40:	9400      	str	r4, [sp, #0]
 8001a42:	9402      	str	r4, [sp, #8]
 8001a44:	f002 fab0 	bl	8003fa8 <HAL_TIMEx_MasterConfigSynchronization>
 8001a48:	b108      	cbz	r0, 8001a4e <MX_TIM2_Init+0x4a>
 8001a4a:	f7fe ff17 	bl	800087c <Error_Handler>
 8001a4e:	2200      	movs	r2, #0
 8001a50:	2360      	movs	r3, #96	@ 0x60
 8001a52:	a903      	add	r1, sp, #12
 8001a54:	480b      	ldr	r0, [pc, #44]	@ (8001a84 <MX_TIM2_Init+0x80>)
 8001a56:	9205      	str	r2, [sp, #20]
 8001a58:	9207      	str	r2, [sp, #28]
 8001a5a:	e9cd 3203 	strd	r3, r2, [sp, #12]
 8001a5e:	f001 ffd5 	bl	8003a0c <HAL_TIM_PWM_ConfigChannel>
 8001a62:	b108      	cbz	r0, 8001a68 <MX_TIM2_Init+0x64>
 8001a64:	f7fe ff0a 	bl	800087c <Error_Handler>
 8001a68:	220c      	movs	r2, #12
 8001a6a:	4806      	ldr	r0, [pc, #24]	@ (8001a84 <MX_TIM2_Init+0x80>)
 8001a6c:	eb0d 0102 	add.w	r1, sp, r2
 8001a70:	f001 ffcc 	bl	8003a0c <HAL_TIM_PWM_ConfigChannel>
 8001a74:	b108      	cbz	r0, 8001a7a <MX_TIM2_Init+0x76>
 8001a76:	f7fe ff01 	bl	800087c <Error_Handler>
 8001a7a:	4802      	ldr	r0, [pc, #8]	@ (8001a84 <MX_TIM2_Init+0x80>)
 8001a7c:	f7ff ff54 	bl	8001928 <HAL_TIM_MspPostInit>
 8001a80:	b00a      	add	sp, #40	@ 0x28
 8001a82:	bd10      	pop	{r4, pc}
 8001a84:	20000378 	.word	0x20000378

08001a88 <MX_TIM5_Init>:
 8001a88:	b510      	push	{r4, lr}
 8001a8a:	2400      	movs	r4, #0
 8001a8c:	b08a      	sub	sp, #40	@ 0x28
 8001a8e:	221c      	movs	r2, #28
 8001a90:	4621      	mov	r1, r4
 8001a92:	a803      	add	r0, sp, #12
 8001a94:	9402      	str	r4, [sp, #8]
 8001a96:	e9cd 4400 	strd	r4, r4, [sp]
 8001a9a:	f004 ffaf 	bl	80069fc <memset>
 8001a9e:	481a      	ldr	r0, [pc, #104]	@ (8001b08 <MX_TIM5_Init+0x80>)
 8001aa0:	232f      	movs	r3, #47	@ 0x2f
 8001aa2:	4a1a      	ldr	r2, [pc, #104]	@ (8001b0c <MX_TIM5_Init+0x84>)
 8001aa4:	6084      	str	r4, [r0, #8]
 8001aa6:	6184      	str	r4, [r0, #24]
 8001aa8:	e9c0 2300 	strd	r2, r3, [r0]
 8001aac:	f240 33e7 	movw	r3, #999	@ 0x3e7
 8001ab0:	e9c0 3403 	strd	r3, r4, [r0, #12]
 8001ab4:	f001 febe 	bl	8003834 <HAL_TIM_PWM_Init>
 8001ab8:	b108      	cbz	r0, 8001abe <MX_TIM5_Init+0x36>
 8001aba:	f7fe fedf 	bl	800087c <Error_Handler>
 8001abe:	4669      	mov	r1, sp
 8001ac0:	4811      	ldr	r0, [pc, #68]	@ (8001b08 <MX_TIM5_Init+0x80>)
 8001ac2:	9400      	str	r4, [sp, #0]
 8001ac4:	9402      	str	r4, [sp, #8]
 8001ac6:	f002 fa6f 	bl	8003fa8 <HAL_TIMEx_MasterConfigSynchronization>
 8001aca:	b108      	cbz	r0, 8001ad0 <MX_TIM5_Init+0x48>
 8001acc:	f7fe fed6 	bl	800087c <Error_Handler>
 8001ad0:	2200      	movs	r2, #0
 8001ad2:	2360      	movs	r3, #96	@ 0x60
 8001ad4:	a903      	add	r1, sp, #12
 8001ad6:	480c      	ldr	r0, [pc, #48]	@ (8001b08 <MX_TIM5_Init+0x80>)
 8001ad8:	9205      	str	r2, [sp, #20]
 8001ada:	9207      	str	r2, [sp, #28]
 8001adc:	e9cd 3203 	strd	r3, r2, [sp, #12]
 8001ae0:	f001 ff94 	bl	8003a0c <HAL_TIM_PWM_ConfigChannel>
 8001ae4:	b108      	cbz	r0, 8001aea <MX_TIM5_Init+0x62>
 8001ae6:	f7fe fec9 	bl	800087c <Error_Handler>
 8001aea:	220c      	movs	r2, #12
 8001aec:	4806      	ldr	r0, [pc, #24]	@ (8001b08 <MX_TIM5_Init+0x80>)
 8001aee:	eb0d 0102 	add.w	r1, sp, r2
 8001af2:	f001 ff8b 	bl	8003a0c <HAL_TIM_PWM_ConfigChannel>
 8001af6:	b108      	cbz	r0, 8001afc <MX_TIM5_Init+0x74>
 8001af8:	f7fe fec0 	bl	800087c <Error_Handler>
 8001afc:	4802      	ldr	r0, [pc, #8]	@ (8001b08 <MX_TIM5_Init+0x80>)
 8001afe:	f7ff ff13 	bl	8001928 <HAL_TIM_MspPostInit>
 8001b02:	b00a      	add	sp, #40	@ 0x28
 8001b04:	bd10      	pop	{r4, pc}
 8001b06:	bf00      	nop
 8001b08:	20000294 	.word	0x20000294
 8001b0c:	40000c00 	.word	0x40000c00

08001b10 <MX_TIM12_Init>:
 8001b10:	b510      	push	{r4, lr}
 8001b12:	b088      	sub	sp, #32
 8001b14:	221c      	movs	r2, #28
 8001b16:	2100      	movs	r1, #0
 8001b18:	2400      	movs	r4, #0
 8001b1a:	a801      	add	r0, sp, #4
 8001b1c:	f004 ff6e 	bl	80069fc <memset>
 8001b20:	4811      	ldr	r0, [pc, #68]	@ (8001b68 <MX_TIM12_Init+0x58>)
 8001b22:	235f      	movs	r3, #95	@ 0x5f
 8001b24:	4a11      	ldr	r2, [pc, #68]	@ (8001b6c <MX_TIM12_Init+0x5c>)
 8001b26:	6104      	str	r4, [r0, #16]
 8001b28:	6184      	str	r4, [r0, #24]
 8001b2a:	e9c0 2300 	strd	r2, r3, [r0]
 8001b2e:	f240 33e7 	movw	r3, #999	@ 0x3e7
 8001b32:	e9c0 4302 	strd	r4, r3, [r0, #8]
 8001b36:	f001 fe7d 	bl	8003834 <HAL_TIM_PWM_Init>
 8001b3a:	b108      	cbz	r0, 8001b40 <MX_TIM12_Init+0x30>
 8001b3c:	f7fe fe9e 	bl	800087c <Error_Handler>
 8001b40:	2204      	movs	r2, #4
 8001b42:	2360      	movs	r3, #96	@ 0x60
 8001b44:	4808      	ldr	r0, [pc, #32]	@ (8001b68 <MX_TIM12_Init+0x58>)
 8001b46:	eb0d 0102 	add.w	r1, sp, r2
 8001b4a:	9403      	str	r4, [sp, #12]
 8001b4c:	9405      	str	r4, [sp, #20]
 8001b4e:	e9cd 3401 	strd	r3, r4, [sp, #4]
 8001b52:	f001 ff5b 	bl	8003a0c <HAL_TIM_PWM_ConfigChannel>
 8001b56:	b108      	cbz	r0, 8001b5c <MX_TIM12_Init+0x4c>
 8001b58:	f7fe fe90 	bl	800087c <Error_Handler>
 8001b5c:	4802      	ldr	r0, [pc, #8]	@ (8001b68 <MX_TIM12_Init+0x58>)
 8001b5e:	f7ff fee3 	bl	8001928 <HAL_TIM_MspPostInit>
 8001b62:	b008      	add	sp, #32
 8001b64:	bd10      	pop	{r4, pc}
 8001b66:	bf00      	nop
 8001b68:	20000164 	.word	0x20000164
 8001b6c:	40001800 	.word	0x40001800

08001b70 <MX_USART2_UART_Init>:
 8001b70:	b508      	push	{r3, lr}
 8001b72:	480c      	ldr	r0, [pc, #48]	@ (8001ba4 <MX_USART2_UART_Init+0x34>)
 8001b74:	f44f 5316 	mov.w	r3, #9600	@ 0x2580
 8001b78:	4a0b      	ldr	r2, [pc, #44]	@ (8001ba8 <MX_USART2_UART_Init+0x38>)
 8001b7a:	e9c0 2300 	strd	r2, r3, [r0]
 8001b7e:	2300      	movs	r3, #0
 8001b80:	220c      	movs	r2, #12
 8001b82:	e9c0 3302 	strd	r3, r3, [r0, #8]
 8001b86:	6103      	str	r3, [r0, #16]
 8001b88:	6243      	str	r3, [r0, #36]	@ 0x24
 8001b8a:	e9c0 2305 	strd	r2, r3, [r0, #20]
 8001b8e:	e9c0 3307 	strd	r3, r3, [r0, #28]
 8001b92:	f002 fefc 	bl	800498e <HAL_UART_Init>
 8001b96:	b118      	cbz	r0, 8001ba0 <MX_USART2_UART_Init+0x30>
 8001b98:	e8bd 4008 	ldmia.w	sp!, {r3, lr}
 8001b9c:	f7fe be6e 	b.w	800087c <Error_Handler>
 8001ba0:	bd08      	pop	{r3, pc}
 8001ba2:	bf00      	nop
 8001ba4:	20000558 	.word	0x20000558
 8001ba8:	40004400 	.word	0x40004400

08001bac <MX_USART3_UART_Init>:
 8001bac:	b508      	push	{r3, lr}
 8001bae:	480c      	ldr	r0, [pc, #48]	@ (8001be0 <MX_USART3_UART_Init+0x34>)
 8001bb0:	f44f 33e1 	mov.w	r3, #115200	@ 0x1c200
 8001bb4:	4a0b      	ldr	r2, [pc, #44]	@ (8001be4 <MX_USART3_UART_Init+0x38>)
 8001bb6:	e9c0 2300 	strd	r2, r3, [r0]
 8001bba:	2300      	movs	r3, #0
 8001bbc:	220c      	movs	r2, #12
 8001bbe:	e9c0 3302 	strd	r3, r3, [r0, #8]
 8001bc2:	6103      	str	r3, [r0, #16]
 8001bc4:	6243      	str	r3, [r0, #36]	@ 0x24
 8001bc6:	e9c0 2305 	strd	r2, r3, [r0, #20]
 8001bca:	e9c0 3307 	strd	r3, r3, [r0, #28]
 8001bce:	f002 fede 	bl	800498e <HAL_UART_Init>
 8001bd2:	b118      	cbz	r0, 8001bdc <MX_USART3_UART_Init+0x30>
 8001bd4:	e8bd 4008 	ldmia.w	sp!, {r3, lr}
 8001bd8:	f7fe be50 	b.w	800087c <Error_Handler>
 8001bdc:	bd08      	pop	{r3, pc}
 8001bde:	bf00      	nop
 8001be0:	200004d0 	.word	0x200004d0
 8001be4:	40004800 	.word	0x40004800

08001be8 <HAL_UART_MspInit>:
 8001be8:	b570      	push	{r4, r5, r6, lr}
 8001bea:	2214      	movs	r2, #20
 8001bec:	b0ae      	sub	sp, #184	@ 0xb8
 8001bee:	4606      	mov	r6, r0
 8001bf0:	2100      	movs	r1, #0
 8001bf2:	eb0d 0002 	add.w	r0, sp, r2
 8001bf6:	f004 ff01 	bl	80069fc <memset>
 8001bfa:	2290      	movs	r2, #144	@ 0x90
 8001bfc:	2100      	movs	r1, #0
 8001bfe:	a80a      	add	r0, sp, #40	@ 0x28
 8001c00:	f004 fefc 	bl	80069fc <memset>
 8001c04:	6833      	ldr	r3, [r6, #0]
 8001c06:	4a4f      	ldr	r2, [pc, #316]	@ (8001d44 <HAL_UART_MspInit+0x15c>)
 8001c08:	4293      	cmp	r3, r2
 8001c0a:	d165      	bne.n	8001cd8 <HAL_UART_MspInit+0xf0>
 8001c0c:	2380      	movs	r3, #128	@ 0x80
 8001c0e:	a80a      	add	r0, sp, #40	@ 0x28
 8001c10:	930a      	str	r3, [sp, #40]	@ 0x28
 8001c12:	f001 f819 	bl	8002c48 <HAL_RCCEx_PeriphCLKConfig>
 8001c16:	b108      	cbz	r0, 8001c1c <HAL_UART_MspInit+0x34>
 8001c18:	f7fe fe30 	bl	800087c <Error_Handler>
 8001c1c:	4b4a      	ldr	r3, [pc, #296]	@ (8001d48 <HAL_UART_MspInit+0x160>)
 8001c1e:	2460      	movs	r4, #96	@ 0x60
 8001c20:	2500      	movs	r5, #0
 8001c22:	484a      	ldr	r0, [pc, #296]	@ (8001d4c <HAL_UART_MspInit+0x164>)
 8001c24:	6c1a      	ldr	r2, [r3, #64]	@ 0x40
 8001c26:	a905      	add	r1, sp, #20
 8001c28:	f442 3200 	orr.w	r2, r2, #131072	@ 0x20000
 8001c2c:	641a      	str	r2, [r3, #64]	@ 0x40
 8001c2e:	6c1a      	ldr	r2, [r3, #64]	@ 0x40
 8001c30:	f402 3200 	and.w	r2, r2, #131072	@ 0x20000
 8001c34:	9201      	str	r2, [sp, #4]
 8001c36:	9a01      	ldr	r2, [sp, #4]
 8001c38:	6b1a      	ldr	r2, [r3, #48]	@ 0x30
 8001c3a:	f042 0208 	orr.w	r2, r2, #8
 8001c3e:	631a      	str	r2, [r3, #48]	@ 0x30
 8001c40:	6b1b      	ldr	r3, [r3, #48]	@ 0x30
 8001c42:	f003 0308 	and.w	r3, r3, #8
 8001c46:	9302      	str	r3, [sp, #8]
 8001c48:	9b02      	ldr	r3, [sp, #8]
 8001c4a:	2302      	movs	r3, #2
 8001c4c:	e9cd 4305 	strd	r4, r3, [sp, #20]
 8001c50:	2303      	movs	r3, #3
 8001c52:	4c3f      	ldr	r4, [pc, #252]	@ (8001d50 <HAL_UART_MspInit+0x168>)
 8001c54:	e9cd 5307 	strd	r5, r3, [sp, #28]
 8001c58:	2307      	movs	r3, #7
 8001c5a:	9309      	str	r3, [sp, #36]	@ 0x24
 8001c5c:	f000 fb78 	bl	8002350 <HAL_GPIO_Init>
 8001c60:	f04f 6300 	mov.w	r3, #134217728	@ 0x8000000
 8001c64:	f8df c0f8 	ldr.w	ip, [pc, #248]	@ 8001d60 <HAL_UART_MspInit+0x178>
 8001c68:	4620      	mov	r0, r4
 8001c6a:	e9c4 c300 	strd	ip, r3, [r4]
 8001c6e:	f44f 6380 	mov.w	r3, #1024	@ 0x400
 8001c72:	e9c4 5502 	strd	r5, r5, [r4, #8]
 8001c76:	e9c4 3504 	strd	r3, r5, [r4, #16]
 8001c7a:	e9c4 5506 	strd	r5, r5, [r4, #24]
 8001c7e:	e9c4 5508 	strd	r5, r5, [r4, #32]
 8001c82:	f000 f9d9 	bl	8002038 <HAL_DMA_Init>
 8001c86:	b108      	cbz	r0, 8001c8c <HAL_UART_MspInit+0xa4>
 8001c88:	f7fe fdf8 	bl	800087c <Error_Handler>
 8001c8c:	f04f 6300 	mov.w	r3, #134217728	@ 0x8000000
 8001c90:	4930      	ldr	r1, [pc, #192]	@ (8001d54 <HAL_UART_MspInit+0x16c>)
 8001c92:	6774      	str	r4, [r6, #116]	@ 0x74
 8001c94:	2040      	movs	r0, #64	@ 0x40
 8001c96:	63a6      	str	r6, [r4, #56]	@ 0x38
 8001c98:	f44f 6280 	mov.w	r2, #1024	@ 0x400
 8001c9c:	4c2e      	ldr	r4, [pc, #184]	@ (8001d58 <HAL_UART_MspInit+0x170>)
 8001c9e:	e9c4 1300 	strd	r1, r3, [r4]
 8001ca2:	2300      	movs	r3, #0
 8001ca4:	e9c4 0302 	strd	r0, r3, [r4, #8]
 8001ca8:	4620      	mov	r0, r4
 8001caa:	e9c4 2304 	strd	r2, r3, [r4, #16]
 8001cae:	e9c4 3306 	strd	r3, r3, [r4, #24]
 8001cb2:	e9c4 3308 	strd	r3, r3, [r4, #32]
 8001cb6:	f000 f9bf 	bl	8002038 <HAL_DMA_Init>
 8001cba:	b108      	cbz	r0, 8001cc0 <HAL_UART_MspInit+0xd8>
 8001cbc:	f7fe fdde 	bl	800087c <Error_Handler>
 8001cc0:	2026      	movs	r0, #38	@ 0x26
 8001cc2:	2200      	movs	r2, #0
 8001cc4:	2105      	movs	r1, #5
 8001cc6:	6734      	str	r4, [r6, #112]	@ 0x70
 8001cc8:	63a6      	str	r6, [r4, #56]	@ 0x38
 8001cca:	f000 f94b 	bl	8001f64 <HAL_NVIC_SetPriority>
 8001cce:	2026      	movs	r0, #38	@ 0x26
 8001cd0:	f000 f97a 	bl	8001fc8 <HAL_NVIC_EnableIRQ>
 8001cd4:	b02e      	add	sp, #184	@ 0xb8
 8001cd6:	bd70      	pop	{r4, r5, r6, pc}
 8001cd8:	4a20      	ldr	r2, [pc, #128]	@ (8001d5c <HAL_UART_MspInit+0x174>)
 8001cda:	4293      	cmp	r3, r2
 8001cdc:	d1fa      	bne.n	8001cd4 <HAL_UART_MspInit+0xec>
 8001cde:	f44f 7380 	mov.w	r3, #256	@ 0x100
 8001ce2:	a80a      	add	r0, sp, #40	@ 0x28
 8001ce4:	930a      	str	r3, [sp, #40]	@ 0x28
 8001ce6:	f000 ffaf 	bl	8002c48 <HAL_RCCEx_PeriphCLKConfig>
 8001cea:	b108      	cbz	r0, 8001cf0 <HAL_UART_MspInit+0x108>
 8001cec:	f7fe fdc6 	bl	800087c <Error_Handler>
 8001cf0:	4b15      	ldr	r3, [pc, #84]	@ (8001d48 <HAL_UART_MspInit+0x160>)
 8001cf2:	2400      	movs	r4, #0
 8001cf4:	a905      	add	r1, sp, #20
 8001cf6:	4815      	ldr	r0, [pc, #84]	@ (8001d4c <HAL_UART_MspInit+0x164>)
 8001cf8:	6c1a      	ldr	r2, [r3, #64]	@ 0x40
 8001cfa:	f442 2280 	orr.w	r2, r2, #262144	@ 0x40000
 8001cfe:	641a      	str	r2, [r3, #64]	@ 0x40
 8001d00:	6c1a      	ldr	r2, [r3, #64]	@ 0x40
 8001d02:	f402 2280 	and.w	r2, r2, #262144	@ 0x40000
 8001d06:	9203      	str	r2, [sp, #12]
 8001d08:	9a03      	ldr	r2, [sp, #12]
 8001d0a:	6b1a      	ldr	r2, [r3, #48]	@ 0x30
 8001d0c:	f042 0208 	orr.w	r2, r2, #8
 8001d10:	631a      	str	r2, [r3, #48]	@ 0x30
 8001d12:	f44f 7240 	mov.w	r2, #768	@ 0x300
 8001d16:	6b1b      	ldr	r3, [r3, #48]	@ 0x30
 8001d18:	f003 0308 	and.w	r3, r3, #8
 8001d1c:	9304      	str	r3, [sp, #16]
 8001d1e:	9b04      	ldr	r3, [sp, #16]
 8001d20:	2302      	movs	r3, #2
 8001d22:	e9cd 2305 	strd	r2, r3, [sp, #20]
 8001d26:	2303      	movs	r3, #3
 8001d28:	e9cd 4307 	strd	r4, r3, [sp, #28]
 8001d2c:	2307      	movs	r3, #7
 8001d2e:	9309      	str	r3, [sp, #36]	@ 0x24
 8001d30:	f000 fb0e 	bl	8002350 <HAL_GPIO_Init>
 8001d34:	2027      	movs	r0, #39	@ 0x27
 8001d36:	4622      	mov	r2, r4
 8001d38:	2105      	movs	r1, #5
 8001d3a:	f000 f913 	bl	8001f64 <HAL_NVIC_SetPriority>
 8001d3e:	2027      	movs	r0, #39	@ 0x27
 8001d40:	e7c6      	b.n	8001cd0 <HAL_UART_MspInit+0xe8>
 8001d42:	bf00      	nop
 8001d44:	40004400 	.word	0x40004400
 8001d48:	40023800 	.word	0x40023800
 8001d4c:	40020c00 	.word	0x40020c00
 8001d50:	20000470 	.word	0x20000470
 8001d54:	400260a0 	.word	0x400260a0
 8001d58:	20000410 	.word	0x20000410
 8001d5c:	40004800 	.word	0x40004800
 8001d60:	40026088 	.word	0x40026088

08001d64 <MX_USB_OTG_FS_PCD_Init>:
 8001d64:	b508      	push	{r3, lr}
 8001d66:	480c      	ldr	r0, [pc, #48]	@ (8001d98 <MX_USB_OTG_FS_PCD_Init+0x34>)
 8001d68:	f04f 43a0 	mov.w	r3, #1342177280	@ 0x50000000
 8001d6c:	2200      	movs	r2, #0
 8001d6e:	6003      	str	r3, [r0, #0]
 8001d70:	2306      	movs	r3, #6
 8001d72:	7302      	strb	r2, [r0, #12]
 8001d74:	7103      	strb	r3, [r0, #4]
 8001d76:	f44f 7300 	mov.w	r3, #512	@ 0x200
 8001d7a:	80c3      	strh	r3, [r0, #6]
 8001d7c:	2302      	movs	r3, #2
 8001d7e:	7243      	strb	r3, [r0, #9]
 8001d80:	2301      	movs	r3, #1
 8001d82:	8143      	strh	r3, [r0, #10]
 8001d84:	81c3      	strh	r3, [r0, #14]
 8001d86:	f000 fbe7 	bl	8002558 <HAL_PCD_Init>
 8001d8a:	b118      	cbz	r0, 8001d94 <MX_USB_OTG_FS_PCD_Init+0x30>
 8001d8c:	e8bd 4008 	ldmia.w	sp!, {r3, lr}
 8001d90:	f7fe bd74 	b.w	800087c <Error_Handler>
 8001d94:	bd08      	pop	{r3, pc}
 8001d96:	bf00      	nop
 8001d98:	200005e0 	.word	0x200005e0

08001d9c <HAL_PCD_MspInit>:
 8001d9c:	b530      	push	{r4, r5, lr}
 8001d9e:	b0ad      	sub	sp, #180	@ 0xb4
 8001da0:	4604      	mov	r4, r0
 8001da2:	2214      	movs	r2, #20
 8001da4:	2100      	movs	r1, #0
 8001da6:	a803      	add	r0, sp, #12
 8001da8:	f004 fe28 	bl	80069fc <memset>
 8001dac:	2290      	movs	r2, #144	@ 0x90
 8001dae:	2100      	movs	r1, #0
 8001db0:	a808      	add	r0, sp, #32
 8001db2:	f004 fe23 	bl	80069fc <memset>
 8001db6:	6823      	ldr	r3, [r4, #0]
 8001db8:	f1b3 4fa0 	cmp.w	r3, #1342177280	@ 0x50000000
 8001dbc:	d13c      	bne.n	8001e38 <HAL_PCD_MspInit+0x9c>
 8001dbe:	f44f 1300 	mov.w	r3, #2097152	@ 0x200000
 8001dc2:	a808      	add	r0, sp, #32
 8001dc4:	9308      	str	r3, [sp, #32]
 8001dc6:	f000 ff3f 	bl	8002c48 <HAL_RCCEx_PeriphCLKConfig>
 8001dca:	b108      	cbz	r0, 8001dd0 <HAL_PCD_MspInit+0x34>
 8001dcc:	f7fe fd56 	bl	800087c <Error_Handler>
 8001dd0:	4c1a      	ldr	r4, [pc, #104]	@ (8001e3c <HAL_PCD_MspInit+0xa0>)
 8001dd2:	f44f 52e8 	mov.w	r2, #7424	@ 0x1d00
 8001dd6:	2500      	movs	r5, #0
 8001dd8:	a903      	add	r1, sp, #12
 8001dda:	6b23      	ldr	r3, [r4, #48]	@ 0x30
 8001ddc:	4818      	ldr	r0, [pc, #96]	@ (8001e40 <HAL_PCD_MspInit+0xa4>)
 8001dde:	f043 0301 	orr.w	r3, r3, #1
 8001de2:	6323      	str	r3, [r4, #48]	@ 0x30
 8001de4:	6b23      	ldr	r3, [r4, #48]	@ 0x30
 8001de6:	f003 0301 	and.w	r3, r3, #1
 8001dea:	9300      	str	r3, [sp, #0]
 8001dec:	9b00      	ldr	r3, [sp, #0]
 8001dee:	2302      	movs	r3, #2
 8001df0:	e9cd 2303 	strd	r2, r3, [sp, #12]
 8001df4:	2303      	movs	r3, #3
 8001df6:	e9cd 5305 	strd	r5, r3, [sp, #20]
 8001dfa:	230a      	movs	r3, #10
 8001dfc:	9307      	str	r3, [sp, #28]
 8001dfe:	f000 faa7 	bl	8002350 <HAL_GPIO_Init>
 8001e02:	f44f 7300 	mov.w	r3, #512	@ 0x200
 8001e06:	a903      	add	r1, sp, #12
 8001e08:	480d      	ldr	r0, [pc, #52]	@ (8001e40 <HAL_PCD_MspInit+0xa4>)
 8001e0a:	9505      	str	r5, [sp, #20]
 8001e0c:	e9cd 3503 	strd	r3, r5, [sp, #12]
 8001e10:	f000 fa9e 	bl	8002350 <HAL_GPIO_Init>
 8001e14:	6b63      	ldr	r3, [r4, #52]	@ 0x34
 8001e16:	f043 0380 	orr.w	r3, r3, #128	@ 0x80
 8001e1a:	6363      	str	r3, [r4, #52]	@ 0x34
 8001e1c:	6b63      	ldr	r3, [r4, #52]	@ 0x34
 8001e1e:	f003 0380 	and.w	r3, r3, #128	@ 0x80
 8001e22:	9301      	str	r3, [sp, #4]
 8001e24:	9b01      	ldr	r3, [sp, #4]
 8001e26:	6c63      	ldr	r3, [r4, #68]	@ 0x44
 8001e28:	f443 4380 	orr.w	r3, r3, #16384	@ 0x4000
 8001e2c:	6463      	str	r3, [r4, #68]	@ 0x44
 8001e2e:	6c63      	ldr	r3, [r4, #68]	@ 0x44
 8001e30:	f403 4380 	and.w	r3, r3, #16384	@ 0x4000
 8001e34:	9302      	str	r3, [sp, #8]
 8001e36:	9b02      	ldr	r3, [sp, #8]
 8001e38:	b02d      	add	sp, #180	@ 0xb4
 8001e3a:	bd30      	pop	{r4, r5, pc}
 8001e3c:	40023800 	.word	0x40023800
 8001e40:	40020000 	.word	0x40020000

08001e44 <Reset_Handler>:
 8001e44:	f8df d034 	ldr.w	sp, [pc, #52]	@ 8001e7c <LoopFillZerobss+0xe>
 8001e48:	f7ff f97c 	bl	8001144 <SystemInit>
 8001e4c:	480c      	ldr	r0, [pc, #48]	@ (8001e80 <LoopFillZerobss+0x12>)
 8001e4e:	490d      	ldr	r1, [pc, #52]	@ (8001e84 <LoopFillZerobss+0x16>)
 8001e50:	4a0d      	ldr	r2, [pc, #52]	@ (8001e88 <LoopFillZerobss+0x1a>)
 8001e52:	2300      	movs	r3, #0
 8001e54:	e002      	b.n	8001e5c <LoopCopyDataInit>

08001e56 <CopyDataInit>:
 8001e56:	58d4      	ldr	r4, [r2, r3]
 8001e58:	50c4      	str	r4, [r0, r3]
 8001e5a:	3304      	adds	r3, #4

08001e5c <LoopCopyDataInit>:
 8001e5c:	18c4      	adds	r4, r0, r3
 8001e5e:	428c      	cmp	r4, r1
 8001e60:	d3f9      	bcc.n	8001e56 <CopyDataInit>
 8001e62:	4a0a      	ldr	r2, [pc, #40]	@ (8001e8c <LoopFillZerobss+0x1e>)
 8001e64:	4c0a      	ldr	r4, [pc, #40]	@ (8001e90 <LoopFillZerobss+0x22>)
 8001e66:	2300      	movs	r3, #0
 8001e68:	e001      	b.n	8001e6e <LoopFillZerobss>

08001e6a <FillZerobss>:
 8001e6a:	6013      	str	r3, [r2, #0]
 8001e6c:	3204      	adds	r2, #4

08001e6e <LoopFillZerobss>:
 8001e6e:	42a2      	cmp	r2, r4
 8001e70:	d3fb      	bcc.n	8001e6a <FillZerobss>
 8001e72:	f004 fde3 	bl	8006a3c <__libc_init_array>
 8001e76:	f7fe fcc3 	bl	8000800 <main>
 8001e7a:	4770      	bx	lr
 8001e7c:	20080000 	.word	0x20080000
 8001e80:	20000000 	.word	0x20000000
 8001e84:	20000060 	.word	0x20000060
 8001e88:	08006df4 	.word	0x08006df4
 8001e8c:	20000060 	.word	0x20000060
 8001e90:	20005540 	.word	0x20005540

08001e94 <ADC_IRQHandler>:
 8001e94:	e7fe      	b.n	8001e94 <ADC_IRQHandler>
	...

08001e98 <HAL_InitTick>:
 8001e98:	b538      	push	{r3, r4, r5, lr}
 8001e9a:	4b0e      	ldr	r3, [pc, #56]	@ (8001ed4 <HAL_InitTick+0x3c>)
 8001e9c:	4605      	mov	r5, r0
 8001e9e:	781a      	ldrb	r2, [r3, #0]
 8001ea0:	f44f 737a 	mov.w	r3, #1000	@ 0x3e8
 8001ea4:	fbb3 f3f2 	udiv	r3, r3, r2
 8001ea8:	4a0b      	ldr	r2, [pc, #44]	@ (8001ed8 <HAL_InitTick+0x40>)
 8001eaa:	6810      	ldr	r0, [r2, #0]
 8001eac:	fbb0 f0f3 	udiv	r0, r0, r3
 8001eb0:	f000 f898 	bl	8001fe4 <HAL_SYSTICK_Config>
 8001eb4:	4604      	mov	r4, r0
 8001eb6:	b958      	cbnz	r0, 8001ed0 <HAL_InitTick+0x38>
 8001eb8:	2d0f      	cmp	r5, #15
 8001eba:	d809      	bhi.n	8001ed0 <HAL_InitTick+0x38>
 8001ebc:	4602      	mov	r2, r0
 8001ebe:	4629      	mov	r1, r5
 8001ec0:	f04f 30ff 	mov.w	r0, #4294967295
 8001ec4:	f000 f84e 	bl	8001f64 <HAL_NVIC_SetPriority>
 8001ec8:	4b04      	ldr	r3, [pc, #16]	@ (8001edc <HAL_InitTick+0x44>)
 8001eca:	4620      	mov	r0, r4
 8001ecc:	601d      	str	r5, [r3, #0]
 8001ece:	bd38      	pop	{r3, r4, r5, pc}
 8001ed0:	2001      	movs	r0, #1
 8001ed2:	e7fc      	b.n	8001ece <HAL_InitTick+0x36>
 8001ed4:	20000004 	.word	0x20000004
 8001ed8:	20000000 	.word	0x20000000
 8001edc:	20000008 	.word	0x20000008

08001ee0 <HAL_Init>:
 8001ee0:	b508      	push	{r3, lr}
 8001ee2:	2003      	movs	r0, #3
 8001ee4:	f000 f82c 	bl	8001f40 <HAL_NVIC_SetPriorityGrouping>
 8001ee8:	200f      	movs	r0, #15
 8001eea:	f7ff ffd5 	bl	8001e98 <HAL_InitTick>
 8001eee:	f7ff f88f 	bl	8001010 <HAL_MspInit>
 8001ef2:	2000      	movs	r0, #0
 8001ef4:	bd08      	pop	{r3, pc}
	...

08001ef8 <HAL_IncTick>:
 8001ef8:	4a03      	ldr	r2, [pc, #12]	@ (8001f08 <HAL_IncTick+0x10>)
 8001efa:	4b04      	ldr	r3, [pc, #16]	@ (8001f0c <HAL_IncTick+0x14>)
 8001efc:	6811      	ldr	r1, [r2, #0]
 8001efe:	781b      	ldrb	r3, [r3, #0]
 8001f00:	440b      	add	r3, r1
 8001f02:	6013      	str	r3, [r2, #0]
 8001f04:	4770      	bx	lr
 8001f06:	bf00      	nop
 8001f08:	20000ac0 	.word	0x20000ac0
 8001f0c:	20000004 	.word	0x20000004

08001f10 <HAL_GetTick>:
 8001f10:	4b01      	ldr	r3, [pc, #4]	@ (8001f18 <HAL_GetTick+0x8>)
 8001f12:	6818      	ldr	r0, [r3, #0]
 8001f14:	4770      	bx	lr
 8001f16:	bf00      	nop
 8001f18:	20000ac0 	.word	0x20000ac0

08001f1c <HAL_Delay>:
 8001f1c:	b538      	push	{r3, r4, r5, lr}
 8001f1e:	4604      	mov	r4, r0
 8001f20:	f7ff fff6 	bl	8001f10 <HAL_GetTick>
 8001f24:	4605      	mov	r5, r0
 8001f26:	1c63      	adds	r3, r4, #1
 8001f28:	bf1e      	ittt	ne
 8001f2a:	4b04      	ldrne	r3, [pc, #16]	@ (8001f3c <HAL_Delay+0x20>)
 8001f2c:	781b      	ldrbne	r3, [r3, #0]
 8001f2e:	18e4      	addne	r4, r4, r3
 8001f30:	f7ff ffee 	bl	8001f10 <HAL_GetTick>
 8001f34:	1b43      	subs	r3, r0, r5
 8001f36:	42a3      	cmp	r3, r4
 8001f38:	d3fa      	bcc.n	8001f30 <HAL_Delay+0x14>
 8001f3a:	bd38      	pop	{r3, r4, r5, pc}
 8001f3c:	20000004 	.word	0x20000004

08001f40 <HAL_NVIC_SetPriorityGrouping>:
 8001f40:	4907      	ldr	r1, [pc, #28]	@ (8001f60 <HAL_NVIC_SetPriorityGrouping+0x20>)
 8001f42:	0203      	lsls	r3, r0, #8
 8001f44:	68ca      	ldr	r2, [r1, #12]
 8001f46:	f403 63e0 	and.w	r3, r3, #1792	@ 0x700
 8001f4a:	f422 62e0 	bic.w	r2, r2, #1792	@ 0x700
 8001f4e:	0412      	lsls	r2, r2, #16
 8001f50:	0c12      	lsrs	r2, r2, #16
 8001f52:	4313      	orrs	r3, r2
 8001f54:	f043 63bf 	orr.w	r3, r3, #100139008	@ 0x5f80000
 8001f58:	f443 3300 	orr.w	r3, r3, #131072	@ 0x20000
 8001f5c:	60cb      	str	r3, [r1, #12]
 8001f5e:	4770      	bx	lr
 8001f60:	e000ed00 	.word	0xe000ed00

08001f64 <HAL_NVIC_SetPriority>:
 8001f64:	4b16      	ldr	r3, [pc, #88]	@ (8001fc0 <HAL_NVIC_SetPriority+0x5c>)
 8001f66:	b530      	push	{r4, r5, lr}
 8001f68:	68dc      	ldr	r4, [r3, #12]
 8001f6a:	f3c4 2402 	ubfx	r4, r4, #8, #3
 8001f6e:	f1c4 0307 	rsb	r3, r4, #7
 8001f72:	1d25      	adds	r5, r4, #4
 8001f74:	2b04      	cmp	r3, #4
 8001f76:	bf28      	it	cs
 8001f78:	2304      	movcs	r3, #4
 8001f7a:	2d06      	cmp	r5, #6
 8001f7c:	f04f 35ff 	mov.w	r5, #4294967295
 8001f80:	bf8c      	ite	hi
 8001f82:	3c03      	subhi	r4, #3
 8001f84:	2400      	movls	r4, #0
 8001f86:	fa05 f303 	lsl.w	r3, r5, r3
 8001f8a:	2800      	cmp	r0, #0
 8001f8c:	fa05 f504 	lsl.w	r5, r5, r4
 8001f90:	ea21 0303 	bic.w	r3, r1, r3
 8001f94:	ea22 0205 	bic.w	r2, r2, r5
 8001f98:	fa03 f304 	lsl.w	r3, r3, r4
 8001f9c:	ea43 0302 	orr.w	r3, r3, r2
 8001fa0:	ea4f 1303 	mov.w	r3, r3, lsl #4
 8001fa4:	b2db      	uxtb	r3, r3
 8001fa6:	db06      	blt.n	8001fb6 <HAL_NVIC_SetPriority+0x52>
 8001fa8:	f100 4060 	add.w	r0, r0, #3758096384	@ 0xe0000000
 8001fac:	f500 4061 	add.w	r0, r0, #57600	@ 0xe100
 8001fb0:	f880 3300 	strb.w	r3, [r0, #768]	@ 0x300
 8001fb4:	bd30      	pop	{r4, r5, pc}
 8001fb6:	f000 000f 	and.w	r0, r0, #15
 8001fba:	4a02      	ldr	r2, [pc, #8]	@ (8001fc4 <HAL_NVIC_SetPriority+0x60>)
 8001fbc:	5413      	strb	r3, [r2, r0]
 8001fbe:	e7f9      	b.n	8001fb4 <HAL_NVIC_SetPriority+0x50>
 8001fc0:	e000ed00 	.word	0xe000ed00
 8001fc4:	e000ed14 	.word	0xe000ed14

08001fc8 <HAL_NVIC_EnableIRQ>:
 8001fc8:	2800      	cmp	r0, #0
 8001fca:	db07      	blt.n	8001fdc <HAL_NVIC_EnableIRQ+0x14>
 8001fcc:	0941      	lsrs	r1, r0, #5
 8001fce:	2301      	movs	r3, #1
 8001fd0:	f000 001f 	and.w	r0, r0, #31
 8001fd4:	4a02      	ldr	r2, [pc, #8]	@ (8001fe0 <HAL_NVIC_EnableIRQ+0x18>)
 8001fd6:	4083      	lsls	r3, r0
 8001fd8:	f842 3021 	str.w	r3, [r2, r1, lsl #2]
 8001fdc:	4770      	bx	lr
 8001fde:	bf00      	nop
 8001fe0:	e000e100 	.word	0xe000e100

08001fe4 <HAL_SYSTICK_Config>:
 8001fe4:	3801      	subs	r0, #1
 8001fe6:	f1b0 7f80 	cmp.w	r0, #16777216	@ 0x1000000
 8001fea:	d20b      	bcs.n	8002004 <HAL_SYSTICK_Config+0x20>
 8001fec:	f04f 23e0 	mov.w	r3, #3758153728	@ 0xe000e000
 8001ff0:	4a05      	ldr	r2, [pc, #20]	@ (8002008 <HAL_SYSTICK_Config+0x24>)
 8001ff2:	21f0      	movs	r1, #240	@ 0xf0
 8001ff4:	6158      	str	r0, [r3, #20]
 8001ff6:	2000      	movs	r0, #0
 8001ff8:	f882 1023 	strb.w	r1, [r2, #35]	@ 0x23
 8001ffc:	2207      	movs	r2, #7
 8001ffe:	6198      	str	r0, [r3, #24]
 8002000:	611a      	str	r2, [r3, #16]
 8002002:	4770      	bx	lr
 8002004:	2001      	movs	r0, #1
 8002006:	4770      	bx	lr
 8002008:	e000ed00 	.word	0xe000ed00

0800200c <DMA_CalcBaseAndBitshift>:
 800200c:	6803      	ldr	r3, [r0, #0]
 800200e:	4602      	mov	r2, r0
 8002010:	2018      	movs	r0, #24
 8002012:	b2d9      	uxtb	r1, r3
 8002014:	3910      	subs	r1, #16
 8002016:	fbb1 f0f0 	udiv	r0, r1, r0
 800201a:	b510      	push	{r4, lr}
 800201c:	4c05      	ldr	r4, [pc, #20]	@ (8002034 <DMA_CalcBaseAndBitshift+0x28>)
 800201e:	295f      	cmp	r1, #95	@ 0x5f
 8002020:	5c20      	ldrb	r0, [r4, r0]
 8002022:	65d0      	str	r0, [r2, #92]	@ 0x5c
 8002024:	f423 707f 	bic.w	r0, r3, #1020	@ 0x3fc
 8002028:	f020 0003 	bic.w	r0, r0, #3
 800202c:	bf88      	it	hi
 800202e:	3004      	addhi	r0, #4
 8002030:	6590      	str	r0, [r2, #88]	@ 0x58
 8002032:	bd10      	pop	{r4, pc}
 8002034:	08006cc8 	.word	0x08006cc8

08002038 <HAL_DMA_Init>:
 8002038:	b570      	push	{r4, r5, r6, lr}
 800203a:	4604      	mov	r4, r0
 800203c:	f7ff ff68 	bl	8001f10 <HAL_GetTick>
 8002040:	4605      	mov	r5, r0
 8002042:	2c00      	cmp	r4, #0
 8002044:	d060      	beq.n	8002108 <HAL_DMA_Init+0xd0>
 8002046:	2302      	movs	r3, #2
 8002048:	6822      	ldr	r2, [r4, #0]
 800204a:	f884 3035 	strb.w	r3, [r4, #53]	@ 0x35
 800204e:	2300      	movs	r3, #0
 8002050:	f884 3034 	strb.w	r3, [r4, #52]	@ 0x34
 8002054:	6813      	ldr	r3, [r2, #0]
 8002056:	f023 0301 	bic.w	r3, r3, #1
 800205a:	6013      	str	r3, [r2, #0]
 800205c:	6822      	ldr	r2, [r4, #0]
 800205e:	6813      	ldr	r3, [r2, #0]
 8002060:	07d8      	lsls	r0, r3, #31
 8002062:	d42e      	bmi.n	80020c2 <HAL_DMA_Init+0x8a>
 8002064:	6813      	ldr	r3, [r2, #0]
 8002066:	4832      	ldr	r0, [pc, #200]	@ (8002130 <HAL_DMA_Init+0xf8>)
 8002068:	69a1      	ldr	r1, [r4, #24]
 800206a:	4018      	ands	r0, r3
 800206c:	e9d4 3501 	ldrd	r3, r5, [r4, #4]
 8002070:	432b      	orrs	r3, r5
 8002072:	68e5      	ldr	r5, [r4, #12]
 8002074:	432b      	orrs	r3, r5
 8002076:	6925      	ldr	r5, [r4, #16]
 8002078:	432b      	orrs	r3, r5
 800207a:	6965      	ldr	r5, [r4, #20]
 800207c:	432b      	orrs	r3, r5
 800207e:	69e5      	ldr	r5, [r4, #28]
 8002080:	430b      	orrs	r3, r1
 8002082:	432b      	orrs	r3, r5
 8002084:	6a25      	ldr	r5, [r4, #32]
 8002086:	432b      	orrs	r3, r5
 8002088:	4303      	orrs	r3, r0
 800208a:	6a60      	ldr	r0, [r4, #36]	@ 0x24
 800208c:	2804      	cmp	r0, #4
 800208e:	bf02      	ittt	eq
 8002090:	e9d4 560b 	ldrdeq	r5, r6, [r4, #44]	@ 0x2c
 8002094:	4335      	orreq	r5, r6
 8002096:	432b      	orreq	r3, r5
 8002098:	2804      	cmp	r0, #4
 800209a:	6013      	str	r3, [r2, #0]
 800209c:	6953      	ldr	r3, [r2, #20]
 800209e:	f023 0307 	bic.w	r3, r3, #7
 80020a2:	ea43 0300 	orr.w	r3, r3, r0
 80020a6:	d135      	bne.n	8002114 <HAL_DMA_Init+0xdc>
 80020a8:	6aa0      	ldr	r0, [r4, #40]	@ 0x28
 80020aa:	6ae5      	ldr	r5, [r4, #44]	@ 0x2c
 80020ac:	4303      	orrs	r3, r0
 80020ae:	b38d      	cbz	r5, 8002114 <HAL_DMA_Init+0xdc>
 80020b0:	b991      	cbnz	r1, 80020d8 <HAL_DMA_Init+0xa0>
 80020b2:	2801      	cmp	r0, #1
 80020b4:	d020      	beq.n	80020f8 <HAL_DMA_Init+0xc0>
 80020b6:	f030 0102 	bics.w	r1, r0, #2
 80020ba:	d12b      	bne.n	8002114 <HAL_DMA_Init+0xdc>
 80020bc:	01e9      	lsls	r1, r5, #7
 80020be:	d529      	bpl.n	8002114 <HAL_DMA_Init+0xdc>
 80020c0:	e01d      	b.n	80020fe <HAL_DMA_Init+0xc6>
 80020c2:	f7ff ff25 	bl	8001f10 <HAL_GetTick>
 80020c6:	1b40      	subs	r0, r0, r5
 80020c8:	2805      	cmp	r0, #5
 80020ca:	d9c7      	bls.n	800205c <HAL_DMA_Init+0x24>
 80020cc:	2320      	movs	r3, #32
 80020ce:	2003      	movs	r0, #3
 80020d0:	6563      	str	r3, [r4, #84]	@ 0x54
 80020d2:	f884 0035 	strb.w	r0, [r4, #53]	@ 0x35
 80020d6:	bd70      	pop	{r4, r5, r6, pc}
 80020d8:	f5b1 5f00 	cmp.w	r1, #8192	@ 0x2000
 80020dc:	d116      	bne.n	800210c <HAL_DMA_Init+0xd4>
 80020de:	2803      	cmp	r0, #3
 80020e0:	d818      	bhi.n	8002114 <HAL_DMA_Init+0xdc>
 80020e2:	a101      	add	r1, pc, #4	@ (adr r1, 80020e8 <HAL_DMA_Init+0xb0>)
 80020e4:	f851 f020 	ldr.w	pc, [r1, r0, lsl #2]
 80020e8:	080020ff 	.word	0x080020ff
 80020ec:	080020bd 	.word	0x080020bd
 80020f0:	080020ff 	.word	0x080020ff
 80020f4:	080020f9 	.word	0x080020f9
 80020f8:	f1b5 7fc0 	cmp.w	r5, #25165824	@ 0x1800000
 80020fc:	d10a      	bne.n	8002114 <HAL_DMA_Init+0xdc>
 80020fe:	2340      	movs	r3, #64	@ 0x40
 8002100:	6563      	str	r3, [r4, #84]	@ 0x54
 8002102:	2300      	movs	r3, #0
 8002104:	f884 3035 	strb.w	r3, [r4, #53]	@ 0x35
 8002108:	2001      	movs	r0, #1
 800210a:	e7e4      	b.n	80020d6 <HAL_DMA_Init+0x9e>
 800210c:	2802      	cmp	r0, #2
 800210e:	d9f6      	bls.n	80020fe <HAL_DMA_Init+0xc6>
 8002110:	2803      	cmp	r0, #3
 8002112:	d0d3      	beq.n	80020bc <HAL_DMA_Init+0x84>
 8002114:	6153      	str	r3, [r2, #20]
 8002116:	4620      	mov	r0, r4
 8002118:	f7ff ff78 	bl	800200c <DMA_CalcBaseAndBitshift>
 800211c:	6de2      	ldr	r2, [r4, #92]	@ 0x5c
 800211e:	233f      	movs	r3, #63	@ 0x3f
 8002120:	4093      	lsls	r3, r2
 8002122:	6083      	str	r3, [r0, #8]
 8002124:	2000      	movs	r0, #0
 8002126:	2301      	movs	r3, #1
 8002128:	6560      	str	r0, [r4, #84]	@ 0x54
 800212a:	f884 3035 	strb.w	r3, [r4, #53]	@ 0x35
 800212e:	e7d2      	b.n	80020d6 <HAL_DMA_Init+0x9e>
 8002130:	e010803f 	.word	0xe010803f

08002134 <HAL_DMA_Abort>:
 8002134:	b570      	push	{r4, r5, r6, lr}
 8002136:	4604      	mov	r4, r0
 8002138:	6d86      	ldr	r6, [r0, #88]	@ 0x58
 800213a:	f7ff fee9 	bl	8001f10 <HAL_GetTick>
 800213e:	4605      	mov	r5, r0
 8002140:	f894 3035 	ldrb.w	r3, [r4, #53]	@ 0x35
 8002144:	2b02      	cmp	r3, #2
 8002146:	d006      	beq.n	8002156 <HAL_DMA_Abort+0x22>
 8002148:	2380      	movs	r3, #128	@ 0x80
 800214a:	2001      	movs	r0, #1
 800214c:	6563      	str	r3, [r4, #84]	@ 0x54
 800214e:	2300      	movs	r3, #0
 8002150:	f884 3034 	strb.w	r3, [r4, #52]	@ 0x34
 8002154:	bd70      	pop	{r4, r5, r6, pc}
 8002156:	6823      	ldr	r3, [r4, #0]
 8002158:	681a      	ldr	r2, [r3, #0]
 800215a:	f022 0216 	bic.w	r2, r2, #22
 800215e:	601a      	str	r2, [r3, #0]
 8002160:	695a      	ldr	r2, [r3, #20]
 8002162:	f022 0280 	bic.w	r2, r2, #128	@ 0x80
 8002166:	615a      	str	r2, [r3, #20]
 8002168:	6c22      	ldr	r2, [r4, #64]	@ 0x40
 800216a:	b90a      	cbnz	r2, 8002170 <HAL_DMA_Abort+0x3c>
 800216c:	6ca2      	ldr	r2, [r4, #72]	@ 0x48
 800216e:	b11a      	cbz	r2, 8002178 <HAL_DMA_Abort+0x44>
 8002170:	681a      	ldr	r2, [r3, #0]
 8002172:	f022 0208 	bic.w	r2, r2, #8
 8002176:	601a      	str	r2, [r3, #0]
 8002178:	681a      	ldr	r2, [r3, #0]
 800217a:	f022 0201 	bic.w	r2, r2, #1
 800217e:	601a      	str	r2, [r3, #0]
 8002180:	6823      	ldr	r3, [r4, #0]
 8002182:	6818      	ldr	r0, [r3, #0]
 8002184:	f010 0001 	ands.w	r0, r0, #1
 8002188:	d107      	bne.n	800219a <HAL_DMA_Abort+0x66>
 800218a:	6de2      	ldr	r2, [r4, #92]	@ 0x5c
 800218c:	233f      	movs	r3, #63	@ 0x3f
 800218e:	4093      	lsls	r3, r2
 8002190:	60b3      	str	r3, [r6, #8]
 8002192:	2301      	movs	r3, #1
 8002194:	f884 3035 	strb.w	r3, [r4, #53]	@ 0x35
 8002198:	e7d9      	b.n	800214e <HAL_DMA_Abort+0x1a>
 800219a:	f7ff feb9 	bl	8001f10 <HAL_GetTick>
 800219e:	1b40      	subs	r0, r0, r5
 80021a0:	2805      	cmp	r0, #5
 80021a2:	d9ed      	bls.n	8002180 <HAL_DMA_Abort+0x4c>
 80021a4:	2320      	movs	r3, #32
 80021a6:	2003      	movs	r0, #3
 80021a8:	6563      	str	r3, [r4, #84]	@ 0x54
 80021aa:	f884 0035 	strb.w	r0, [r4, #53]	@ 0x35
 80021ae:	e7ce      	b.n	800214e <HAL_DMA_Abort+0x1a>

080021b0 <HAL_DMA_Abort_IT>:
 80021b0:	f890 3035 	ldrb.w	r3, [r0, #53]	@ 0x35
 80021b4:	2b02      	cmp	r3, #2
 80021b6:	d003      	beq.n	80021c0 <HAL_DMA_Abort_IT+0x10>
 80021b8:	2380      	movs	r3, #128	@ 0x80
 80021ba:	6543      	str	r3, [r0, #84]	@ 0x54
 80021bc:	2001      	movs	r0, #1
 80021be:	4770      	bx	lr
 80021c0:	6802      	ldr	r2, [r0, #0]
 80021c2:	2305      	movs	r3, #5
 80021c4:	f880 3035 	strb.w	r3, [r0, #53]	@ 0x35
 80021c8:	2000      	movs	r0, #0
 80021ca:	6813      	ldr	r3, [r2, #0]
 80021cc:	f023 0301 	bic.w	r3, r3, #1
 80021d0:	6013      	str	r3, [r2, #0]
 80021d2:	4770      	bx	lr

080021d4 <HAL_DMA_IRQHandler>:
 80021d4:	2300      	movs	r3, #0
 80021d6:	b5f7      	push	{r0, r1, r2, r4, r5, r6, r7, lr}
 80021d8:	9301      	str	r3, [sp, #4]
 80021da:	2208      	movs	r2, #8
 80021dc:	4b5b      	ldr	r3, [pc, #364]	@ (800234c <HAL_DMA_IRQHandler+0x178>)
 80021de:	4604      	mov	r4, r0
 80021e0:	6d85      	ldr	r5, [r0, #88]	@ 0x58
 80021e2:	681f      	ldr	r7, [r3, #0]
 80021e4:	6dc3      	ldr	r3, [r0, #92]	@ 0x5c
 80021e6:	682e      	ldr	r6, [r5, #0]
 80021e8:	409a      	lsls	r2, r3
 80021ea:	4232      	tst	r2, r6
 80021ec:	d00c      	beq.n	8002208 <HAL_DMA_IRQHandler+0x34>
 80021ee:	6801      	ldr	r1, [r0, #0]
 80021f0:	6808      	ldr	r0, [r1, #0]
 80021f2:	0740      	lsls	r0, r0, #29
 80021f4:	d508      	bpl.n	8002208 <HAL_DMA_IRQHandler+0x34>
 80021f6:	6808      	ldr	r0, [r1, #0]
 80021f8:	f020 0004 	bic.w	r0, r0, #4
 80021fc:	6008      	str	r0, [r1, #0]
 80021fe:	60aa      	str	r2, [r5, #8]
 8002200:	6d62      	ldr	r2, [r4, #84]	@ 0x54
 8002202:	f042 0201 	orr.w	r2, r2, #1
 8002206:	6562      	str	r2, [r4, #84]	@ 0x54
 8002208:	2201      	movs	r2, #1
 800220a:	409a      	lsls	r2, r3
 800220c:	4232      	tst	r2, r6
 800220e:	d008      	beq.n	8002222 <HAL_DMA_IRQHandler+0x4e>
 8002210:	6821      	ldr	r1, [r4, #0]
 8002212:	6949      	ldr	r1, [r1, #20]
 8002214:	0609      	lsls	r1, r1, #24
 8002216:	d504      	bpl.n	8002222 <HAL_DMA_IRQHandler+0x4e>
 8002218:	60aa      	str	r2, [r5, #8]
 800221a:	6d62      	ldr	r2, [r4, #84]	@ 0x54
 800221c:	f042 0202 	orr.w	r2, r2, #2
 8002220:	6562      	str	r2, [r4, #84]	@ 0x54
 8002222:	2204      	movs	r2, #4
 8002224:	409a      	lsls	r2, r3
 8002226:	4232      	tst	r2, r6
 8002228:	d008      	beq.n	800223c <HAL_DMA_IRQHandler+0x68>
 800222a:	6821      	ldr	r1, [r4, #0]
 800222c:	6809      	ldr	r1, [r1, #0]
 800222e:	0788      	lsls	r0, r1, #30
 8002230:	d504      	bpl.n	800223c <HAL_DMA_IRQHandler+0x68>
 8002232:	60aa      	str	r2, [r5, #8]
 8002234:	6d62      	ldr	r2, [r4, #84]	@ 0x54
 8002236:	f042 0204 	orr.w	r2, r2, #4
 800223a:	6562      	str	r2, [r4, #84]	@ 0x54
 800223c:	2210      	movs	r2, #16
 800223e:	409a      	lsls	r2, r3
 8002240:	4232      	tst	r2, r6
 8002242:	d010      	beq.n	8002266 <HAL_DMA_IRQHandler+0x92>
 8002244:	6823      	ldr	r3, [r4, #0]
 8002246:	6819      	ldr	r1, [r3, #0]
 8002248:	0709      	lsls	r1, r1, #28
 800224a:	d50c      	bpl.n	8002266 <HAL_DMA_IRQHandler+0x92>
 800224c:	60aa      	str	r2, [r5, #8]
 800224e:	681a      	ldr	r2, [r3, #0]
 8002250:	0350      	lsls	r0, r2, #13
 8002252:	d537      	bpl.n	80022c4 <HAL_DMA_IRQHandler+0xf0>
 8002254:	681b      	ldr	r3, [r3, #0]
 8002256:	0319      	lsls	r1, r3, #12
 8002258:	d401      	bmi.n	800225e <HAL_DMA_IRQHandler+0x8a>
 800225a:	6c23      	ldr	r3, [r4, #64]	@ 0x40
 800225c:	e000      	b.n	8002260 <HAL_DMA_IRQHandler+0x8c>
 800225e:	6ca3      	ldr	r3, [r4, #72]	@ 0x48
 8002260:	b10b      	cbz	r3, 8002266 <HAL_DMA_IRQHandler+0x92>
 8002262:	4620      	mov	r0, r4
 8002264:	4798      	blx	r3
 8002266:	6de1      	ldr	r1, [r4, #92]	@ 0x5c
 8002268:	2220      	movs	r2, #32
 800226a:	408a      	lsls	r2, r1
 800226c:	4232      	tst	r2, r6
 800226e:	d03a      	beq.n	80022e6 <HAL_DMA_IRQHandler+0x112>
 8002270:	6823      	ldr	r3, [r4, #0]
 8002272:	6818      	ldr	r0, [r3, #0]
 8002274:	06c6      	lsls	r6, r0, #27
 8002276:	d536      	bpl.n	80022e6 <HAL_DMA_IRQHandler+0x112>
 8002278:	60aa      	str	r2, [r5, #8]
 800227a:	f894 2035 	ldrb.w	r2, [r4, #53]	@ 0x35
 800227e:	2a05      	cmp	r2, #5
 8002280:	681a      	ldr	r2, [r3, #0]
 8002282:	d127      	bne.n	80022d4 <HAL_DMA_IRQHandler+0x100>
 8002284:	f022 0216 	bic.w	r2, r2, #22
 8002288:	601a      	str	r2, [r3, #0]
 800228a:	695a      	ldr	r2, [r3, #20]
 800228c:	f022 0280 	bic.w	r2, r2, #128	@ 0x80
 8002290:	615a      	str	r2, [r3, #20]
 8002292:	6c22      	ldr	r2, [r4, #64]	@ 0x40
 8002294:	b90a      	cbnz	r2, 800229a <HAL_DMA_IRQHandler+0xc6>
 8002296:	6ca2      	ldr	r2, [r4, #72]	@ 0x48
 8002298:	b11a      	cbz	r2, 80022a2 <HAL_DMA_IRQHandler+0xce>
 800229a:	681a      	ldr	r2, [r3, #0]
 800229c:	f022 0208 	bic.w	r2, r2, #8
 80022a0:	601a      	str	r2, [r3, #0]
 80022a2:	233f      	movs	r3, #63	@ 0x3f
 80022a4:	408b      	lsls	r3, r1
 80022a6:	60ab      	str	r3, [r5, #8]
 80022a8:	2301      	movs	r3, #1
 80022aa:	f884 3035 	strb.w	r3, [r4, #53]	@ 0x35
 80022ae:	2300      	movs	r3, #0
 80022b0:	f884 3034 	strb.w	r3, [r4, #52]	@ 0x34
 80022b4:	6d23      	ldr	r3, [r4, #80]	@ 0x50
 80022b6:	2b00      	cmp	r3, #0
 80022b8:	d045      	beq.n	8002346 <HAL_DMA_IRQHandler+0x172>
 80022ba:	4620      	mov	r0, r4
 80022bc:	b003      	add	sp, #12
 80022be:	e8bd 40f0 	ldmia.w	sp!, {r4, r5, r6, r7, lr}
 80022c2:	4718      	bx	r3
 80022c4:	681a      	ldr	r2, [r3, #0]
 80022c6:	05d2      	lsls	r2, r2, #23
 80022c8:	d4c7      	bmi.n	800225a <HAL_DMA_IRQHandler+0x86>
 80022ca:	681a      	ldr	r2, [r3, #0]
 80022cc:	f022 0208 	bic.w	r2, r2, #8
 80022d0:	601a      	str	r2, [r3, #0]
 80022d2:	e7c2      	b.n	800225a <HAL_DMA_IRQHandler+0x86>
 80022d4:	0350      	lsls	r0, r2, #13
 80022d6:	d527      	bpl.n	8002328 <HAL_DMA_IRQHandler+0x154>
 80022d8:	681b      	ldr	r3, [r3, #0]
 80022da:	0319      	lsls	r1, r3, #12
 80022dc:	d431      	bmi.n	8002342 <HAL_DMA_IRQHandler+0x16e>
 80022de:	6c63      	ldr	r3, [r4, #68]	@ 0x44
 80022e0:	b10b      	cbz	r3, 80022e6 <HAL_DMA_IRQHandler+0x112>
 80022e2:	4620      	mov	r0, r4
 80022e4:	4798      	blx	r3
 80022e6:	6d63      	ldr	r3, [r4, #84]	@ 0x54
 80022e8:	b36b      	cbz	r3, 8002346 <HAL_DMA_IRQHandler+0x172>
 80022ea:	6d63      	ldr	r3, [r4, #84]	@ 0x54
 80022ec:	07da      	lsls	r2, r3, #31
 80022ee:	d519      	bpl.n	8002324 <HAL_DMA_IRQHandler+0x150>
 80022f0:	f44f 5316 	mov.w	r3, #9600	@ 0x2580
 80022f4:	6822      	ldr	r2, [r4, #0]
 80022f6:	fbb7 f7f3 	udiv	r7, r7, r3
 80022fa:	2305      	movs	r3, #5
 80022fc:	f884 3035 	strb.w	r3, [r4, #53]	@ 0x35
 8002300:	6813      	ldr	r3, [r2, #0]
 8002302:	f023 0301 	bic.w	r3, r3, #1
 8002306:	6013      	str	r3, [r2, #0]
 8002308:	9b01      	ldr	r3, [sp, #4]
 800230a:	3301      	adds	r3, #1
 800230c:	42bb      	cmp	r3, r7
 800230e:	9301      	str	r3, [sp, #4]
 8002310:	d802      	bhi.n	8002318 <HAL_DMA_IRQHandler+0x144>
 8002312:	6813      	ldr	r3, [r2, #0]
 8002314:	07db      	lsls	r3, r3, #31
 8002316:	d4f7      	bmi.n	8002308 <HAL_DMA_IRQHandler+0x134>
 8002318:	2301      	movs	r3, #1
 800231a:	f884 3035 	strb.w	r3, [r4, #53]	@ 0x35
 800231e:	2300      	movs	r3, #0
 8002320:	f884 3034 	strb.w	r3, [r4, #52]	@ 0x34
 8002324:	6ce3      	ldr	r3, [r4, #76]	@ 0x4c
 8002326:	e7c6      	b.n	80022b6 <HAL_DMA_IRQHandler+0xe2>
 8002328:	681a      	ldr	r2, [r3, #0]
 800232a:	f412 7280 	ands.w	r2, r2, #256	@ 0x100
 800232e:	d108      	bne.n	8002342 <HAL_DMA_IRQHandler+0x16e>
 8002330:	6819      	ldr	r1, [r3, #0]
 8002332:	f021 0110 	bic.w	r1, r1, #16
 8002336:	6019      	str	r1, [r3, #0]
 8002338:	2301      	movs	r3, #1
 800233a:	f884 2034 	strb.w	r2, [r4, #52]	@ 0x34
 800233e:	f884 3035 	strb.w	r3, [r4, #53]	@ 0x35
 8002342:	6be3      	ldr	r3, [r4, #60]	@ 0x3c
 8002344:	e7cc      	b.n	80022e0 <HAL_DMA_IRQHandler+0x10c>
 8002346:	b003      	add	sp, #12
 8002348:	bdf0      	pop	{r4, r5, r6, r7, pc}
 800234a:	bf00      	nop
 800234c:	20000000 	.word	0x20000000

08002350 <HAL_GPIO_Init>:
 8002350:	e92d 4ff7 	stmdb	sp!, {r0, r1, r2, r4, r5, r6, r7, r8, r9, sl, fp, lr}
 8002354:	2300      	movs	r3, #0
 8002356:	f8df 91bc 	ldr.w	r9, [pc, #444]	@ 8002514 <HAL_GPIO_Init+0x1c4>
 800235a:	4a6c      	ldr	r2, [pc, #432]	@ (800250c <HAL_GPIO_Init+0x1bc>)
 800235c:	2401      	movs	r4, #1
 800235e:	680d      	ldr	r5, [r1, #0]
 8002360:	409c      	lsls	r4, r3
 8002362:	ea04 0605 	and.w	r6, r4, r5
 8002366:	43ac      	bics	r4, r5
 8002368:	f040 80b7 	bne.w	80024da <HAL_GPIO_Init+0x18a>
 800236c:	684d      	ldr	r5, [r1, #4]
 800236e:	2703      	movs	r7, #3
 8002370:	ea4f 0e43 	mov.w	lr, r3, lsl #1
 8002374:	f005 0403 	and.w	r4, r5, #3
 8002378:	fa07 fc0e 	lsl.w	ip, r7, lr
 800237c:	1e67      	subs	r7, r4, #1
 800237e:	ea6f 0c0c 	mvn.w	ip, ip
 8002382:	2f01      	cmp	r7, #1
 8002384:	d834      	bhi.n	80023f0 <HAL_GPIO_Init+0xa0>
 8002386:	6887      	ldr	r7, [r0, #8]
 8002388:	ea07 080c 	and.w	r8, r7, ip
 800238c:	68cf      	ldr	r7, [r1, #12]
 800238e:	fa07 f70e 	lsl.w	r7, r7, lr
 8002392:	ea47 0708 	orr.w	r7, r7, r8
 8002396:	6087      	str	r7, [r0, #8]
 8002398:	6847      	ldr	r7, [r0, #4]
 800239a:	ea27 0806 	bic.w	r8, r7, r6
 800239e:	f3c5 1700 	ubfx	r7, r5, #4, #1
 80023a2:	409f      	lsls	r7, r3
 80023a4:	ea47 0708 	orr.w	r7, r7, r8
 80023a8:	6047      	str	r7, [r0, #4]
 80023aa:	68c7      	ldr	r7, [r0, #12]
 80023ac:	2c02      	cmp	r4, #2
 80023ae:	ea07 080c 	and.w	r8, r7, ip
 80023b2:	688f      	ldr	r7, [r1, #8]
 80023b4:	fa07 f70e 	lsl.w	r7, r7, lr
 80023b8:	ea47 0708 	orr.w	r7, r7, r8
 80023bc:	60c7      	str	r7, [r0, #12]
 80023be:	d119      	bne.n	80023f4 <HAL_GPIO_Init+0xa4>
 80023c0:	ea4f 08d3 	mov.w	r8, r3, lsr #3
 80023c4:	f003 0a07 	and.w	sl, r3, #7
 80023c8:	f04f 0b0f 	mov.w	fp, #15
 80023cc:	eb00 0888 	add.w	r8, r0, r8, lsl #2
 80023d0:	ea4f 0a8a 	mov.w	sl, sl, lsl #2
 80023d4:	f8d8 7020 	ldr.w	r7, [r8, #32]
 80023d8:	fa0b fb0a 	lsl.w	fp, fp, sl
 80023dc:	ea27 0b0b 	bic.w	fp, r7, fp
 80023e0:	690f      	ldr	r7, [r1, #16]
 80023e2:	fa07 f70a 	lsl.w	r7, r7, sl
 80023e6:	ea47 070b 	orr.w	r7, r7, fp
 80023ea:	f8c8 7020 	str.w	r7, [r8, #32]
 80023ee:	e001      	b.n	80023f4 <HAL_GPIO_Init+0xa4>
 80023f0:	2c03      	cmp	r4, #3
 80023f2:	d1da      	bne.n	80023aa <HAL_GPIO_Init+0x5a>
 80023f4:	6807      	ldr	r7, [r0, #0]
 80023f6:	fa04 f40e 	lsl.w	r4, r4, lr
 80023fa:	f415 3f40 	tst.w	r5, #196608	@ 0x30000
 80023fe:	ea07 070c 	and.w	r7, r7, ip
 8002402:	ea44 0407 	orr.w	r4, r4, r7
 8002406:	6004      	str	r4, [r0, #0]
 8002408:	d067      	beq.n	80024da <HAL_GPIO_Init+0x18a>
 800240a:	f8d9 4044 	ldr.w	r4, [r9, #68]	@ 0x44
 800240e:	f023 0703 	bic.w	r7, r3, #3
 8002412:	f003 0c03 	and.w	ip, r3, #3
 8002416:	f04f 0e0f 	mov.w	lr, #15
 800241a:	f444 4480 	orr.w	r4, r4, #16384	@ 0x4000
 800241e:	f107 4780 	add.w	r7, r7, #1073741824	@ 0x40000000
 8002422:	ea4f 0c8c 	mov.w	ip, ip, lsl #2
 8002426:	f8c9 4044 	str.w	r4, [r9, #68]	@ 0x44
 800242a:	f507 379c 	add.w	r7, r7, #79872	@ 0x13800
 800242e:	f8d9 4044 	ldr.w	r4, [r9, #68]	@ 0x44
 8002432:	fa0e fe0c 	lsl.w	lr, lr, ip
 8002436:	f404 4480 	and.w	r4, r4, #16384	@ 0x4000
 800243a:	9401      	str	r4, [sp, #4]
 800243c:	9c01      	ldr	r4, [sp, #4]
 800243e:	68bc      	ldr	r4, [r7, #8]
 8002440:	ea24 0e0e 	bic.w	lr, r4, lr
 8002444:	4c32      	ldr	r4, [pc, #200]	@ (8002510 <HAL_GPIO_Init+0x1c0>)
 8002446:	42a0      	cmp	r0, r4
 8002448:	d04e      	beq.n	80024e8 <HAL_GPIO_Init+0x198>
 800244a:	f504 6480 	add.w	r4, r4, #1024	@ 0x400
 800244e:	42a0      	cmp	r0, r4
 8002450:	d04c      	beq.n	80024ec <HAL_GPIO_Init+0x19c>
 8002452:	f504 6480 	add.w	r4, r4, #1024	@ 0x400
 8002456:	42a0      	cmp	r0, r4
 8002458:	d04a      	beq.n	80024f0 <HAL_GPIO_Init+0x1a0>
 800245a:	f504 6480 	add.w	r4, r4, #1024	@ 0x400
 800245e:	42a0      	cmp	r0, r4
 8002460:	d048      	beq.n	80024f4 <HAL_GPIO_Init+0x1a4>
 8002462:	f504 6480 	add.w	r4, r4, #1024	@ 0x400
 8002466:	42a0      	cmp	r0, r4
 8002468:	d046      	beq.n	80024f8 <HAL_GPIO_Init+0x1a8>
 800246a:	f504 6480 	add.w	r4, r4, #1024	@ 0x400
 800246e:	42a0      	cmp	r0, r4
 8002470:	d044      	beq.n	80024fc <HAL_GPIO_Init+0x1ac>
 8002472:	f504 6480 	add.w	r4, r4, #1024	@ 0x400
 8002476:	42a0      	cmp	r0, r4
 8002478:	d042      	beq.n	8002500 <HAL_GPIO_Init+0x1b0>
 800247a:	f504 6480 	add.w	r4, r4, #1024	@ 0x400
 800247e:	42a0      	cmp	r0, r4
 8002480:	d040      	beq.n	8002504 <HAL_GPIO_Init+0x1b4>
 8002482:	f504 6480 	add.w	r4, r4, #1024	@ 0x400
 8002486:	42a0      	cmp	r0, r4
 8002488:	d03e      	beq.n	8002508 <HAL_GPIO_Init+0x1b8>
 800248a:	f504 6480 	add.w	r4, r4, #1024	@ 0x400
 800248e:	42a0      	cmp	r0, r4
 8002490:	bf14      	ite	ne
 8002492:	240a      	movne	r4, #10
 8002494:	2409      	moveq	r4, #9
 8002496:	fa04 f40c 	lsl.w	r4, r4, ip
 800249a:	f415 1f80 	tst.w	r5, #1048576	@ 0x100000
 800249e:	ea44 040e 	orr.w	r4, r4, lr
 80024a2:	60bc      	str	r4, [r7, #8]
 80024a4:	ea6f 0706 	mvn.w	r7, r6
 80024a8:	6894      	ldr	r4, [r2, #8]
 80024aa:	bf0c      	ite	eq
 80024ac:	403c      	andeq	r4, r7
 80024ae:	4334      	orrne	r4, r6
 80024b0:	f415 1f00 	tst.w	r5, #2097152	@ 0x200000
 80024b4:	6094      	str	r4, [r2, #8]
 80024b6:	68d4      	ldr	r4, [r2, #12]
 80024b8:	bf0c      	ite	eq
 80024ba:	403c      	andeq	r4, r7
 80024bc:	4334      	orrne	r4, r6
 80024be:	f415 3f00 	tst.w	r5, #131072	@ 0x20000
 80024c2:	60d4      	str	r4, [r2, #12]
 80024c4:	6854      	ldr	r4, [r2, #4]
 80024c6:	bf0c      	ite	eq
 80024c8:	403c      	andeq	r4, r7
 80024ca:	4334      	orrne	r4, r6
 80024cc:	03ed      	lsls	r5, r5, #15
 80024ce:	6054      	str	r4, [r2, #4]
 80024d0:	6814      	ldr	r4, [r2, #0]
 80024d2:	bf54      	ite	pl
 80024d4:	403c      	andpl	r4, r7
 80024d6:	4334      	orrmi	r4, r6
 80024d8:	6014      	str	r4, [r2, #0]
 80024da:	3301      	adds	r3, #1
 80024dc:	2b10      	cmp	r3, #16
 80024de:	f47f af3d 	bne.w	800235c <HAL_GPIO_Init+0xc>
 80024e2:	b003      	add	sp, #12
 80024e4:	e8bd 8ff0 	ldmia.w	sp!, {r4, r5, r6, r7, r8, r9, sl, fp, pc}
 80024e8:	2400      	movs	r4, #0
 80024ea:	e7d4      	b.n	8002496 <HAL_GPIO_Init+0x146>
 80024ec:	2401      	movs	r4, #1
 80024ee:	e7d2      	b.n	8002496 <HAL_GPIO_Init+0x146>
 80024f0:	2402      	movs	r4, #2
 80024f2:	e7d0      	b.n	8002496 <HAL_GPIO_Init+0x146>
 80024f4:	2403      	movs	r4, #3
 80024f6:	e7ce      	b.n	8002496 <HAL_GPIO_Init+0x146>
 80024f8:	2404      	movs	r4, #4
 80024fa:	e7cc      	b.n	8002496 <HAL_GPIO_Init+0x146>
 80024fc:	2405      	movs	r4, #5
 80024fe:	e7ca      	b.n	8002496 <HAL_GPIO_Init+0x146>
 8002500:	2406      	movs	r4, #6
 8002502:	e7c8      	b.n	8002496 <HAL_GPIO_Init+0x146>
 8002504:	2407      	movs	r4, #7
 8002506:	e7c6      	b.n	8002496 <HAL_GPIO_Init+0x146>
 8002508:	2408      	movs	r4, #8
 800250a:	e7c4      	b.n	8002496 <HAL_GPIO_Init+0x146>
 800250c:	40013c00 	.word	0x40013c00
 8002510:	40020000 	.word	0x40020000
 8002514:	40023800 	.word	0x40023800

08002518 <HAL_GPIO_ReadPin>:
 8002518:	6903      	ldr	r3, [r0, #16]
 800251a:	4219      	tst	r1, r3
 800251c:	bf14      	ite	ne
 800251e:	2001      	movne	r0, #1
 8002520:	2000      	moveq	r0, #0
 8002522:	4770      	bx	lr

08002524 <HAL_GPIO_WritePin>:
 8002524:	b10a      	cbz	r2, 800252a <HAL_GPIO_WritePin+0x6>
 8002526:	6181      	str	r1, [r0, #24]
 8002528:	4770      	bx	lr
 800252a:	0409      	lsls	r1, r1, #16
 800252c:	e7fb      	b.n	8002526 <HAL_GPIO_WritePin+0x2>

0800252e <HAL_GPIO_TogglePin>:
 800252e:	6943      	ldr	r3, [r0, #20]
 8002530:	ea01 0203 	and.w	r2, r1, r3
 8002534:	ea21 0103 	bic.w	r1, r1, r3
 8002538:	ea41 4102 	orr.w	r1, r1, r2, lsl #16
 800253c:	6181      	str	r1, [r0, #24]
 800253e:	4770      	bx	lr

08002540 <HAL_GPIO_EXTI_IRQHandler>:
 8002540:	4a04      	ldr	r2, [pc, #16]	@ (8002554 <HAL_GPIO_EXTI_IRQHandler+0x14>)
 8002542:	6951      	ldr	r1, [r2, #20]
 8002544:	4201      	tst	r1, r0
 8002546:	b508      	push	{r3, lr}
 8002548:	d002      	beq.n	8002550 <HAL_GPIO_EXTI_IRQHandler+0x10>
 800254a:	6150      	str	r0, [r2, #20]
 800254c:	f7fe fb9a 	bl	8000c84 <HAL_GPIO_EXTI_Callback>
 8002550:	bd08      	pop	{r3, pc}
 8002552:	bf00      	nop
 8002554:	40013c00 	.word	0x40013c00

08002558 <HAL_PCD_Init>:
 8002558:	b5f7      	push	{r0, r1, r2, r4, r5, r6, r7, lr}
 800255a:	4604      	mov	r4, r0
 800255c:	b318      	cbz	r0, 80025a6 <HAL_PCD_Init+0x4e>
 800255e:	f890 3495 	ldrb.w	r3, [r0, #1173]	@ 0x495
 8002562:	6805      	ldr	r5, [r0, #0]
 8002564:	f003 02ff 	and.w	r2, r3, #255	@ 0xff
 8002568:	b91b      	cbnz	r3, 8002572 <HAL_PCD_Init+0x1a>
 800256a:	f880 2494 	strb.w	r2, [r0, #1172]	@ 0x494
 800256e:	f7ff fc15 	bl	8001d9c <HAL_PCD_MspInit>
 8002572:	2303      	movs	r3, #3
 8002574:	f1b5 4fa0 	cmp.w	r5, #1342177280	@ 0x50000000
 8002578:	6820      	ldr	r0, [r4, #0]
 800257a:	f104 0504 	add.w	r5, r4, #4
 800257e:	f884 3495 	strb.w	r3, [r4, #1173]	@ 0x495
 8002582:	bf04      	itt	eq
 8002584:	2300      	moveq	r3, #0
 8002586:	71a3      	strbeq	r3, [r4, #6]
 8002588:	f002 fb08 	bl	8004b9c <USB_DisableGlobalInt>
 800258c:	7c23      	ldrb	r3, [r4, #16]
 800258e:	f88d 3000 	strb.w	r3, [sp]
 8002592:	6820      	ldr	r0, [r4, #0]
 8002594:	e895 000e 	ldmia.w	r5, {r1, r2, r3}
 8002598:	f002 fac2 	bl	8004b20 <USB_CoreInit>
 800259c:	4601      	mov	r1, r0
 800259e:	b130      	cbz	r0, 80025ae <HAL_PCD_Init+0x56>
 80025a0:	2302      	movs	r3, #2
 80025a2:	f884 3495 	strb.w	r3, [r4, #1173]	@ 0x495
 80025a6:	2501      	movs	r5, #1
 80025a8:	4628      	mov	r0, r5
 80025aa:	b003      	add	sp, #12
 80025ac:	bdf0      	pop	{r4, r5, r6, r7, pc}
 80025ae:	6820      	ldr	r0, [r4, #0]
 80025b0:	f002 fafa 	bl	8004ba8 <USB_SetCurrentMode>
 80025b4:	2800      	cmp	r0, #0
 80025b6:	d1f3      	bne.n	80025a0 <HAL_PCD_Init+0x48>
 80025b8:	7926      	ldrb	r6, [r4, #4]
 80025ba:	f104 0314 	add.w	r3, r4, #20
 80025be:	2701      	movs	r7, #1
 80025c0:	4602      	mov	r2, r0
 80025c2:	b2c1      	uxtb	r1, r0
 80025c4:	3324      	adds	r3, #36	@ 0x24
 80025c6:	428e      	cmp	r6, r1
 80025c8:	d820      	bhi.n	800260c <HAL_PCD_Init+0xb4>
 80025ca:	2100      	movs	r1, #0
 80025cc:	f504 7315 	add.w	r3, r4, #596	@ 0x254
 80025d0:	460a      	mov	r2, r1
 80025d2:	b2c8      	uxtb	r0, r1
 80025d4:	3324      	adds	r3, #36	@ 0x24
 80025d6:	4286      	cmp	r6, r0
 80025d8:	d826      	bhi.n	8002628 <HAL_PCD_Init+0xd0>
 80025da:	7c23      	ldrb	r3, [r4, #16]
 80025dc:	f88d 3000 	strb.w	r3, [sp]
 80025e0:	6820      	ldr	r0, [r4, #0]
 80025e2:	e895 000e 	ldmia.w	r5, {r1, r2, r3}
 80025e6:	f002 fb59 	bl	8004c9c <USB_DevInit>
 80025ea:	4605      	mov	r5, r0
 80025ec:	2800      	cmp	r0, #0
 80025ee:	d1d7      	bne.n	80025a0 <HAL_PCD_Init+0x48>
 80025f0:	2301      	movs	r3, #1
 80025f2:	7460      	strb	r0, [r4, #17]
 80025f4:	f884 3495 	strb.w	r3, [r4, #1173]	@ 0x495
 80025f8:	7b23      	ldrb	r3, [r4, #12]
 80025fa:	2b01      	cmp	r3, #1
 80025fc:	d102      	bne.n	8002604 <HAL_PCD_Init+0xac>
 80025fe:	4620      	mov	r0, r4
 8002600:	f000 f81e 	bl	8002640 <HAL_PCDEx_ActivateLPM>
 8002604:	6820      	ldr	r0, [r4, #0]
 8002606:	f002 fc01 	bl	8004e0c <USB_DevDisconnect>
 800260a:	e7cd      	b.n	80025a8 <HAL_PCD_Init+0x50>
 800260c:	f823 0c0a 	strh.w	r0, [r3, #-10]
 8002610:	3001      	adds	r0, #1
 8002612:	f803 7c23 	strb.w	r7, [r3, #-35]
 8002616:	f803 1c24 	strb.w	r1, [r3, #-36]
 800261a:	f803 2c20 	strb.w	r2, [r3, #-32]
 800261e:	f843 2c14 	str.w	r2, [r3, #-20]
 8002622:	e943 2207 	strd	r2, r2, [r3, #-28]
 8002626:	e7cc      	b.n	80025c2 <HAL_PCD_Init+0x6a>
 8002628:	3101      	adds	r1, #1
 800262a:	f803 2c23 	strb.w	r2, [r3, #-35]
 800262e:	f803 0c24 	strb.w	r0, [r3, #-36]
 8002632:	f803 2c20 	strb.w	r2, [r3, #-32]
 8002636:	f843 2c14 	str.w	r2, [r3, #-20]
 800263a:	e943 2207 	strd	r2, r2, [r3, #-28]
 800263e:	e7c8      	b.n	80025d2 <HAL_PCD_Init+0x7a>

08002640 <HAL_PCDEx_ActivateLPM>:
 8002640:	2101      	movs	r1, #1
 8002642:	6802      	ldr	r2, [r0, #0]
 8002644:	4603      	mov	r3, r0
 8002646:	f8c0 14d8 	str.w	r1, [r0, #1240]	@ 0x4d8
 800264a:	2000      	movs	r0, #0
 800264c:	f883 04cc 	strb.w	r0, [r3, #1228]	@ 0x4cc
 8002650:	6993      	ldr	r3, [r2, #24]
 8002652:	f043 6300 	orr.w	r3, r3, #134217728	@ 0x8000000
 8002656:	6193      	str	r3, [r2, #24]
 8002658:	6d53      	ldr	r3, [r2, #84]	@ 0x54
 800265a:	f043 5380 	orr.w	r3, r3, #268435456	@ 0x10000000
 800265e:	f043 0303 	orr.w	r3, r3, #3
 8002662:	6553      	str	r3, [r2, #84]	@ 0x54
 8002664:	4770      	bx	lr
	...

08002668 <HAL_PWR_EnableBkUpAccess>:
 8002668:	4a02      	ldr	r2, [pc, #8]	@ (8002674 <HAL_PWR_EnableBkUpAccess+0xc>)
 800266a:	6813      	ldr	r3, [r2, #0]
 800266c:	f443 7380 	orr.w	r3, r3, #256	@ 0x100
 8002670:	6013      	str	r3, [r2, #0]
 8002672:	4770      	bx	lr
 8002674:	40007000 	.word	0x40007000

08002678 <HAL_PWREx_EnableOverDrive>:
 8002678:	4b19      	ldr	r3, [pc, #100]	@ (80026e0 <HAL_PWREx_EnableOverDrive+0x68>)
 800267a:	b537      	push	{r0, r1, r2, r4, r5, lr}
 800267c:	6c1a      	ldr	r2, [r3, #64]	@ 0x40
 800267e:	4c19      	ldr	r4, [pc, #100]	@ (80026e4 <HAL_PWREx_EnableOverDrive+0x6c>)
 8002680:	f042 5280 	orr.w	r2, r2, #268435456	@ 0x10000000
 8002684:	641a      	str	r2, [r3, #64]	@ 0x40
 8002686:	6c1b      	ldr	r3, [r3, #64]	@ 0x40
 8002688:	f003 5380 	and.w	r3, r3, #268435456	@ 0x10000000
 800268c:	9301      	str	r3, [sp, #4]
 800268e:	9b01      	ldr	r3, [sp, #4]
 8002690:	6823      	ldr	r3, [r4, #0]
 8002692:	f443 3380 	orr.w	r3, r3, #65536	@ 0x10000
 8002696:	6023      	str	r3, [r4, #0]
 8002698:	f7ff fc3a 	bl	8001f10 <HAL_GetTick>
 800269c:	4605      	mov	r5, r0
 800269e:	6863      	ldr	r3, [r4, #4]
 80026a0:	03da      	lsls	r2, r3, #15
 80026a2:	d50c      	bpl.n	80026be <HAL_PWREx_EnableOverDrive+0x46>
 80026a4:	6823      	ldr	r3, [r4, #0]
 80026a6:	4d0f      	ldr	r5, [pc, #60]	@ (80026e4 <HAL_PWREx_EnableOverDrive+0x6c>)
 80026a8:	f443 3300 	orr.w	r3, r3, #131072	@ 0x20000
 80026ac:	6023      	str	r3, [r4, #0]
 80026ae:	f7ff fc2f 	bl	8001f10 <HAL_GetTick>
 80026b2:	4604      	mov	r4, r0
 80026b4:	686b      	ldr	r3, [r5, #4]
 80026b6:	039b      	lsls	r3, r3, #14
 80026b8:	d50a      	bpl.n	80026d0 <HAL_PWREx_EnableOverDrive+0x58>
 80026ba:	2000      	movs	r0, #0
 80026bc:	e006      	b.n	80026cc <HAL_PWREx_EnableOverDrive+0x54>
 80026be:	f7ff fc27 	bl	8001f10 <HAL_GetTick>
 80026c2:	1b40      	subs	r0, r0, r5
 80026c4:	f5b0 7f7a 	cmp.w	r0, #1000	@ 0x3e8
 80026c8:	d9e9      	bls.n	800269e <HAL_PWREx_EnableOverDrive+0x26>
 80026ca:	2003      	movs	r0, #3
 80026cc:	b003      	add	sp, #12
 80026ce:	bd30      	pop	{r4, r5, pc}
 80026d0:	f7ff fc1e 	bl	8001f10 <HAL_GetTick>
 80026d4:	1b00      	subs	r0, r0, r4
 80026d6:	f5b0 7f7a 	cmp.w	r0, #1000	@ 0x3e8
 80026da:	d9eb      	bls.n	80026b4 <HAL_PWREx_EnableOverDrive+0x3c>
 80026dc:	e7f5      	b.n	80026ca <HAL_PWREx_EnableOverDrive+0x52>
 80026de:	bf00      	nop
 80026e0:	40023800 	.word	0x40023800
 80026e4:	40007000 	.word	0x40007000

080026e8 <HAL_RCC_OscConfig>:
 80026e8:	e92d 41f3 	stmdb	sp!, {r0, r1, r4, r5, r6, r7, r8, lr}
 80026ec:	4604      	mov	r4, r0
 80026ee:	b918      	cbnz	r0, 80026f8 <HAL_RCC_OscConfig+0x10>
 80026f0:	2001      	movs	r0, #1
 80026f2:	b002      	add	sp, #8
 80026f4:	e8bd 81f0 	ldmia.w	sp!, {r4, r5, r6, r7, r8, pc}
 80026f8:	6803      	ldr	r3, [r0, #0]
 80026fa:	07de      	lsls	r6, r3, #31
 80026fc:	d410      	bmi.n	8002720 <HAL_RCC_OscConfig+0x38>
 80026fe:	6823      	ldr	r3, [r4, #0]
 8002700:	079d      	lsls	r5, r3, #30
 8002702:	d45e      	bmi.n	80027c2 <HAL_RCC_OscConfig+0xda>
 8002704:	6823      	ldr	r3, [r4, #0]
 8002706:	0719      	lsls	r1, r3, #28
 8002708:	f100 80a3 	bmi.w	8002852 <HAL_RCC_OscConfig+0x16a>
 800270c:	6823      	ldr	r3, [r4, #0]
 800270e:	075a      	lsls	r2, r3, #29
 8002710:	f100 80c4 	bmi.w	800289c <HAL_RCC_OscConfig+0x1b4>
 8002714:	69a2      	ldr	r2, [r4, #24]
 8002716:	2a00      	cmp	r2, #0
 8002718:	f040 812e 	bne.w	8002978 <HAL_RCC_OscConfig+0x290>
 800271c:	2000      	movs	r0, #0
 800271e:	e7e8      	b.n	80026f2 <HAL_RCC_OscConfig+0xa>
 8002720:	4b93      	ldr	r3, [pc, #588]	@ (8002970 <HAL_RCC_OscConfig+0x288>)
 8002722:	689a      	ldr	r2, [r3, #8]
 8002724:	f002 020c 	and.w	r2, r2, #12
 8002728:	2a04      	cmp	r2, #4
 800272a:	d007      	beq.n	800273c <HAL_RCC_OscConfig+0x54>
 800272c:	689a      	ldr	r2, [r3, #8]
 800272e:	f002 020c 	and.w	r2, r2, #12
 8002732:	2a08      	cmp	r2, #8
 8002734:	d10a      	bne.n	800274c <HAL_RCC_OscConfig+0x64>
 8002736:	685b      	ldr	r3, [r3, #4]
 8002738:	0259      	lsls	r1, r3, #9
 800273a:	d507      	bpl.n	800274c <HAL_RCC_OscConfig+0x64>
 800273c:	4b8c      	ldr	r3, [pc, #560]	@ (8002970 <HAL_RCC_OscConfig+0x288>)
 800273e:	681b      	ldr	r3, [r3, #0]
 8002740:	039a      	lsls	r2, r3, #14
 8002742:	d5dc      	bpl.n	80026fe <HAL_RCC_OscConfig+0x16>
 8002744:	6863      	ldr	r3, [r4, #4]
 8002746:	2b00      	cmp	r3, #0
 8002748:	d1d9      	bne.n	80026fe <HAL_RCC_OscConfig+0x16>
 800274a:	e7d1      	b.n	80026f0 <HAL_RCC_OscConfig+0x8>
 800274c:	6863      	ldr	r3, [r4, #4]
 800274e:	4d88      	ldr	r5, [pc, #544]	@ (8002970 <HAL_RCC_OscConfig+0x288>)
 8002750:	f5b3 3f80 	cmp.w	r3, #65536	@ 0x10000
 8002754:	d111      	bne.n	800277a <HAL_RCC_OscConfig+0x92>
 8002756:	682b      	ldr	r3, [r5, #0]
 8002758:	f443 3380 	orr.w	r3, r3, #65536	@ 0x10000
 800275c:	602b      	str	r3, [r5, #0]
 800275e:	f7ff fbd7 	bl	8001f10 <HAL_GetTick>
 8002762:	4e83      	ldr	r6, [pc, #524]	@ (8002970 <HAL_RCC_OscConfig+0x288>)
 8002764:	4605      	mov	r5, r0
 8002766:	6833      	ldr	r3, [r6, #0]
 8002768:	039b      	lsls	r3, r3, #14
 800276a:	d4c8      	bmi.n	80026fe <HAL_RCC_OscConfig+0x16>
 800276c:	f7ff fbd0 	bl	8001f10 <HAL_GetTick>
 8002770:	1b40      	subs	r0, r0, r5
 8002772:	2864      	cmp	r0, #100	@ 0x64
 8002774:	d9f7      	bls.n	8002766 <HAL_RCC_OscConfig+0x7e>
 8002776:	2003      	movs	r0, #3
 8002778:	e7bb      	b.n	80026f2 <HAL_RCC_OscConfig+0xa>
 800277a:	b99b      	cbnz	r3, 80027a4 <HAL_RCC_OscConfig+0xbc>
 800277c:	682b      	ldr	r3, [r5, #0]
 800277e:	f423 3380 	bic.w	r3, r3, #65536	@ 0x10000
 8002782:	602b      	str	r3, [r5, #0]
 8002784:	682b      	ldr	r3, [r5, #0]
 8002786:	f423 2380 	bic.w	r3, r3, #262144	@ 0x40000
 800278a:	602b      	str	r3, [r5, #0]
 800278c:	f7ff fbc0 	bl	8001f10 <HAL_GetTick>
 8002790:	4606      	mov	r6, r0
 8002792:	682b      	ldr	r3, [r5, #0]
 8002794:	039f      	lsls	r7, r3, #14
 8002796:	d5b2      	bpl.n	80026fe <HAL_RCC_OscConfig+0x16>
 8002798:	f7ff fbba 	bl	8001f10 <HAL_GetTick>
 800279c:	1b80      	subs	r0, r0, r6
 800279e:	2864      	cmp	r0, #100	@ 0x64
 80027a0:	d9f7      	bls.n	8002792 <HAL_RCC_OscConfig+0xaa>
 80027a2:	e7e8      	b.n	8002776 <HAL_RCC_OscConfig+0x8e>
 80027a4:	f5b3 2fa0 	cmp.w	r3, #327680	@ 0x50000
 80027a8:	682b      	ldr	r3, [r5, #0]
 80027aa:	d103      	bne.n	80027b4 <HAL_RCC_OscConfig+0xcc>
 80027ac:	f443 2380 	orr.w	r3, r3, #262144	@ 0x40000
 80027b0:	602b      	str	r3, [r5, #0]
 80027b2:	e7d0      	b.n	8002756 <HAL_RCC_OscConfig+0x6e>
 80027b4:	f423 3380 	bic.w	r3, r3, #65536	@ 0x10000
 80027b8:	602b      	str	r3, [r5, #0]
 80027ba:	682b      	ldr	r3, [r5, #0]
 80027bc:	f423 2380 	bic.w	r3, r3, #262144	@ 0x40000
 80027c0:	e7cc      	b.n	800275c <HAL_RCC_OscConfig+0x74>
 80027c2:	4b6b      	ldr	r3, [pc, #428]	@ (8002970 <HAL_RCC_OscConfig+0x288>)
 80027c4:	689a      	ldr	r2, [r3, #8]
 80027c6:	f012 0f0c 	tst.w	r2, #12
 80027ca:	d007      	beq.n	80027dc <HAL_RCC_OscConfig+0xf4>
 80027cc:	689a      	ldr	r2, [r3, #8]
 80027ce:	f002 020c 	and.w	r2, r2, #12
 80027d2:	2a08      	cmp	r2, #8
 80027d4:	d111      	bne.n	80027fa <HAL_RCC_OscConfig+0x112>
 80027d6:	685b      	ldr	r3, [r3, #4]
 80027d8:	025d      	lsls	r5, r3, #9
 80027da:	d40e      	bmi.n	80027fa <HAL_RCC_OscConfig+0x112>
 80027dc:	4a64      	ldr	r2, [pc, #400]	@ (8002970 <HAL_RCC_OscConfig+0x288>)
 80027de:	6813      	ldr	r3, [r2, #0]
 80027e0:	0799      	lsls	r1, r3, #30
 80027e2:	d502      	bpl.n	80027ea <HAL_RCC_OscConfig+0x102>
 80027e4:	68e3      	ldr	r3, [r4, #12]
 80027e6:	2b01      	cmp	r3, #1
 80027e8:	d182      	bne.n	80026f0 <HAL_RCC_OscConfig+0x8>
 80027ea:	6813      	ldr	r3, [r2, #0]
 80027ec:	6921      	ldr	r1, [r4, #16]
 80027ee:	f023 03f8 	bic.w	r3, r3, #248	@ 0xf8
 80027f2:	ea43 03c1 	orr.w	r3, r3, r1, lsl #3
 80027f6:	6013      	str	r3, [r2, #0]
 80027f8:	e784      	b.n	8002704 <HAL_RCC_OscConfig+0x1c>
 80027fa:	68e3      	ldr	r3, [r4, #12]
 80027fc:	4d5c      	ldr	r5, [pc, #368]	@ (8002970 <HAL_RCC_OscConfig+0x288>)
 80027fe:	b1bb      	cbz	r3, 8002830 <HAL_RCC_OscConfig+0x148>
 8002800:	682b      	ldr	r3, [r5, #0]
 8002802:	f043 0301 	orr.w	r3, r3, #1
 8002806:	602b      	str	r3, [r5, #0]
 8002808:	f7ff fb82 	bl	8001f10 <HAL_GetTick>
 800280c:	4606      	mov	r6, r0
 800280e:	682b      	ldr	r3, [r5, #0]
 8002810:	079b      	lsls	r3, r3, #30
 8002812:	d507      	bpl.n	8002824 <HAL_RCC_OscConfig+0x13c>
 8002814:	682b      	ldr	r3, [r5, #0]
 8002816:	6922      	ldr	r2, [r4, #16]
 8002818:	f023 03f8 	bic.w	r3, r3, #248	@ 0xf8
 800281c:	ea43 03c2 	orr.w	r3, r3, r2, lsl #3
 8002820:	602b      	str	r3, [r5, #0]
 8002822:	e76f      	b.n	8002704 <HAL_RCC_OscConfig+0x1c>
 8002824:	f7ff fb74 	bl	8001f10 <HAL_GetTick>
 8002828:	1b80      	subs	r0, r0, r6
 800282a:	2802      	cmp	r0, #2
 800282c:	d9ef      	bls.n	800280e <HAL_RCC_OscConfig+0x126>
 800282e:	e7a2      	b.n	8002776 <HAL_RCC_OscConfig+0x8e>
 8002830:	682b      	ldr	r3, [r5, #0]
 8002832:	f023 0301 	bic.w	r3, r3, #1
 8002836:	602b      	str	r3, [r5, #0]
 8002838:	f7ff fb6a 	bl	8001f10 <HAL_GetTick>
 800283c:	4606      	mov	r6, r0
 800283e:	682b      	ldr	r3, [r5, #0]
 8002840:	079f      	lsls	r7, r3, #30
 8002842:	f57f af5f 	bpl.w	8002704 <HAL_RCC_OscConfig+0x1c>
 8002846:	f7ff fb63 	bl	8001f10 <HAL_GetTick>
 800284a:	1b80      	subs	r0, r0, r6
 800284c:	2802      	cmp	r0, #2
 800284e:	d9f6      	bls.n	800283e <HAL_RCC_OscConfig+0x156>
 8002850:	e791      	b.n	8002776 <HAL_RCC_OscConfig+0x8e>
 8002852:	6963      	ldr	r3, [r4, #20]
 8002854:	4d46      	ldr	r5, [pc, #280]	@ (8002970 <HAL_RCC_OscConfig+0x288>)
 8002856:	b183      	cbz	r3, 800287a <HAL_RCC_OscConfig+0x192>
 8002858:	6f6b      	ldr	r3, [r5, #116]	@ 0x74
 800285a:	f043 0301 	orr.w	r3, r3, #1
 800285e:	676b      	str	r3, [r5, #116]	@ 0x74
 8002860:	f7ff fb56 	bl	8001f10 <HAL_GetTick>
 8002864:	4606      	mov	r6, r0
 8002866:	6f6b      	ldr	r3, [r5, #116]	@ 0x74
 8002868:	079b      	lsls	r3, r3, #30
 800286a:	f53f af4f 	bmi.w	800270c <HAL_RCC_OscConfig+0x24>
 800286e:	f7ff fb4f 	bl	8001f10 <HAL_GetTick>
 8002872:	1b80      	subs	r0, r0, r6
 8002874:	2802      	cmp	r0, #2
 8002876:	d9f6      	bls.n	8002866 <HAL_RCC_OscConfig+0x17e>
 8002878:	e77d      	b.n	8002776 <HAL_RCC_OscConfig+0x8e>
 800287a:	6f6b      	ldr	r3, [r5, #116]	@ 0x74
 800287c:	f023 0301 	bic.w	r3, r3, #1
 8002880:	676b      	str	r3, [r5, #116]	@ 0x74
 8002882:	f7ff fb45 	bl	8001f10 <HAL_GetTick>
 8002886:	4606      	mov	r6, r0
 8002888:	6f6b      	ldr	r3, [r5, #116]	@ 0x74
 800288a:	079f      	lsls	r7, r3, #30
 800288c:	f57f af3e 	bpl.w	800270c <HAL_RCC_OscConfig+0x24>
 8002890:	f7ff fb3e 	bl	8001f10 <HAL_GetTick>
 8002894:	1b80      	subs	r0, r0, r6
 8002896:	2802      	cmp	r0, #2
 8002898:	d9f6      	bls.n	8002888 <HAL_RCC_OscConfig+0x1a0>
 800289a:	e76c      	b.n	8002776 <HAL_RCC_OscConfig+0x8e>
 800289c:	4b34      	ldr	r3, [pc, #208]	@ (8002970 <HAL_RCC_OscConfig+0x288>)
 800289e:	6c1a      	ldr	r2, [r3, #64]	@ 0x40
 80028a0:	00d5      	lsls	r5, r2, #3
 80028a2:	d427      	bmi.n	80028f4 <HAL_RCC_OscConfig+0x20c>
 80028a4:	6c1a      	ldr	r2, [r3, #64]	@ 0x40
 80028a6:	2701      	movs	r7, #1
 80028a8:	f042 5280 	orr.w	r2, r2, #268435456	@ 0x10000000
 80028ac:	641a      	str	r2, [r3, #64]	@ 0x40
 80028ae:	6c1b      	ldr	r3, [r3, #64]	@ 0x40
 80028b0:	f003 5380 	and.w	r3, r3, #268435456	@ 0x10000000
 80028b4:	9301      	str	r3, [sp, #4]
 80028b6:	9b01      	ldr	r3, [sp, #4]
 80028b8:	4d2e      	ldr	r5, [pc, #184]	@ (8002974 <HAL_RCC_OscConfig+0x28c>)
 80028ba:	682b      	ldr	r3, [r5, #0]
 80028bc:	05d8      	lsls	r0, r3, #23
 80028be:	d51b      	bpl.n	80028f8 <HAL_RCC_OscConfig+0x210>
 80028c0:	68a3      	ldr	r3, [r4, #8]
 80028c2:	4d2b      	ldr	r5, [pc, #172]	@ (8002970 <HAL_RCC_OscConfig+0x288>)
 80028c4:	2b01      	cmp	r3, #1
 80028c6:	d127      	bne.n	8002918 <HAL_RCC_OscConfig+0x230>
 80028c8:	6f2b      	ldr	r3, [r5, #112]	@ 0x70
 80028ca:	f043 0301 	orr.w	r3, r3, #1
 80028ce:	672b      	str	r3, [r5, #112]	@ 0x70
 80028d0:	f241 3888 	movw	r8, #5000	@ 0x1388
 80028d4:	f7ff fb1c 	bl	8001f10 <HAL_GetTick>
 80028d8:	4e25      	ldr	r6, [pc, #148]	@ (8002970 <HAL_RCC_OscConfig+0x288>)
 80028da:	4605      	mov	r5, r0
 80028dc:	6f33      	ldr	r3, [r6, #112]	@ 0x70
 80028de:	079a      	lsls	r2, r3, #30
 80028e0:	d53f      	bpl.n	8002962 <HAL_RCC_OscConfig+0x27a>
 80028e2:	2f00      	cmp	r7, #0
 80028e4:	f43f af16 	beq.w	8002714 <HAL_RCC_OscConfig+0x2c>
 80028e8:	4a21      	ldr	r2, [pc, #132]	@ (8002970 <HAL_RCC_OscConfig+0x288>)
 80028ea:	6c13      	ldr	r3, [r2, #64]	@ 0x40
 80028ec:	f023 5380 	bic.w	r3, r3, #268435456	@ 0x10000000
 80028f0:	6413      	str	r3, [r2, #64]	@ 0x40
 80028f2:	e70f      	b.n	8002714 <HAL_RCC_OscConfig+0x2c>
 80028f4:	2700      	movs	r7, #0
 80028f6:	e7df      	b.n	80028b8 <HAL_RCC_OscConfig+0x1d0>
 80028f8:	682b      	ldr	r3, [r5, #0]
 80028fa:	f443 7380 	orr.w	r3, r3, #256	@ 0x100
 80028fe:	602b      	str	r3, [r5, #0]
 8002900:	f7ff fb06 	bl	8001f10 <HAL_GetTick>
 8002904:	4606      	mov	r6, r0
 8002906:	682b      	ldr	r3, [r5, #0]
 8002908:	05d9      	lsls	r1, r3, #23
 800290a:	d4d9      	bmi.n	80028c0 <HAL_RCC_OscConfig+0x1d8>
 800290c:	f7ff fb00 	bl	8001f10 <HAL_GetTick>
 8002910:	1b80      	subs	r0, r0, r6
 8002912:	2864      	cmp	r0, #100	@ 0x64
 8002914:	d9f7      	bls.n	8002906 <HAL_RCC_OscConfig+0x21e>
 8002916:	e72e      	b.n	8002776 <HAL_RCC_OscConfig+0x8e>
 8002918:	b9ab      	cbnz	r3, 8002946 <HAL_RCC_OscConfig+0x25e>
 800291a:	6f2b      	ldr	r3, [r5, #112]	@ 0x70
 800291c:	f241 3888 	movw	r8, #5000	@ 0x1388
 8002920:	f023 0301 	bic.w	r3, r3, #1
 8002924:	672b      	str	r3, [r5, #112]	@ 0x70
 8002926:	6f2b      	ldr	r3, [r5, #112]	@ 0x70
 8002928:	f023 0304 	bic.w	r3, r3, #4
 800292c:	672b      	str	r3, [r5, #112]	@ 0x70
 800292e:	f7ff faef 	bl	8001f10 <HAL_GetTick>
 8002932:	4606      	mov	r6, r0
 8002934:	6f2b      	ldr	r3, [r5, #112]	@ 0x70
 8002936:	079b      	lsls	r3, r3, #30
 8002938:	d5d3      	bpl.n	80028e2 <HAL_RCC_OscConfig+0x1fa>
 800293a:	f7ff fae9 	bl	8001f10 <HAL_GetTick>
 800293e:	1b80      	subs	r0, r0, r6
 8002940:	4540      	cmp	r0, r8
 8002942:	d9f7      	bls.n	8002934 <HAL_RCC_OscConfig+0x24c>
 8002944:	e717      	b.n	8002776 <HAL_RCC_OscConfig+0x8e>
 8002946:	2b05      	cmp	r3, #5
 8002948:	6f2b      	ldr	r3, [r5, #112]	@ 0x70
 800294a:	d103      	bne.n	8002954 <HAL_RCC_OscConfig+0x26c>
 800294c:	f043 0304 	orr.w	r3, r3, #4
 8002950:	672b      	str	r3, [r5, #112]	@ 0x70
 8002952:	e7b9      	b.n	80028c8 <HAL_RCC_OscConfig+0x1e0>
 8002954:	f023 0301 	bic.w	r3, r3, #1
 8002958:	672b      	str	r3, [r5, #112]	@ 0x70
 800295a:	6f2b      	ldr	r3, [r5, #112]	@ 0x70
 800295c:	f023 0304 	bic.w	r3, r3, #4
 8002960:	e7b5      	b.n	80028ce <HAL_RCC_OscConfig+0x1e6>
 8002962:	f7ff fad5 	bl	8001f10 <HAL_GetTick>
 8002966:	1b40      	subs	r0, r0, r5
 8002968:	4540      	cmp	r0, r8
 800296a:	d9b7      	bls.n	80028dc <HAL_RCC_OscConfig+0x1f4>
 800296c:	e703      	b.n	8002776 <HAL_RCC_OscConfig+0x8e>
 800296e:	bf00      	nop
 8002970:	40023800 	.word	0x40023800
 8002974:	40007000 	.word	0x40007000
 8002978:	4d3c      	ldr	r5, [pc, #240]	@ (8002a6c <HAL_RCC_OscConfig+0x384>)
 800297a:	68ab      	ldr	r3, [r5, #8]
 800297c:	f003 030c 	and.w	r3, r3, #12
 8002980:	2b08      	cmp	r3, #8
 8002982:	d042      	beq.n	8002a0a <HAL_RCC_OscConfig+0x322>
 8002984:	682b      	ldr	r3, [r5, #0]
 8002986:	2a02      	cmp	r2, #2
 8002988:	f023 7380 	bic.w	r3, r3, #16777216	@ 0x1000000
 800298c:	602b      	str	r3, [r5, #0]
 800298e:	d12f      	bne.n	80029f0 <HAL_RCC_OscConfig+0x308>
 8002990:	f7ff fabe 	bl	8001f10 <HAL_GetTick>
 8002994:	4606      	mov	r6, r0
 8002996:	682b      	ldr	r3, [r5, #0]
 8002998:	0199      	lsls	r1, r3, #6
 800299a:	d423      	bmi.n	80029e4 <HAL_RCC_OscConfig+0x2fc>
 800299c:	e9d4 3207 	ldrd	r3, r2, [r4, #28]
 80029a0:	4313      	orrs	r3, r2
 80029a2:	6a62      	ldr	r2, [r4, #36]	@ 0x24
 80029a4:	ea43 1382 	orr.w	r3, r3, r2, lsl #6
 80029a8:	6ae2      	ldr	r2, [r4, #44]	@ 0x2c
 80029aa:	ea43 6302 	orr.w	r3, r3, r2, lsl #24
 80029ae:	6b22      	ldr	r2, [r4, #48]	@ 0x30
 80029b0:	ea43 7302 	orr.w	r3, r3, r2, lsl #28
 80029b4:	6aa2      	ldr	r2, [r4, #40]	@ 0x28
 80029b6:	0852      	lsrs	r2, r2, #1
 80029b8:	3a01      	subs	r2, #1
 80029ba:	ea43 4302 	orr.w	r3, r3, r2, lsl #16
 80029be:	606b      	str	r3, [r5, #4]
 80029c0:	682b      	ldr	r3, [r5, #0]
 80029c2:	f043 7380 	orr.w	r3, r3, #16777216	@ 0x1000000
 80029c6:	602b      	str	r3, [r5, #0]
 80029c8:	f7ff faa2 	bl	8001f10 <HAL_GetTick>
 80029cc:	4d27      	ldr	r5, [pc, #156]	@ (8002a6c <HAL_RCC_OscConfig+0x384>)
 80029ce:	4604      	mov	r4, r0
 80029d0:	682b      	ldr	r3, [r5, #0]
 80029d2:	019a      	lsls	r2, r3, #6
 80029d4:	f53f aea2 	bmi.w	800271c <HAL_RCC_OscConfig+0x34>
 80029d8:	f7ff fa9a 	bl	8001f10 <HAL_GetTick>
 80029dc:	1b00      	subs	r0, r0, r4
 80029de:	2802      	cmp	r0, #2
 80029e0:	d9f6      	bls.n	80029d0 <HAL_RCC_OscConfig+0x2e8>
 80029e2:	e6c8      	b.n	8002776 <HAL_RCC_OscConfig+0x8e>
 80029e4:	f7ff fa94 	bl	8001f10 <HAL_GetTick>
 80029e8:	1b80      	subs	r0, r0, r6
 80029ea:	2802      	cmp	r0, #2
 80029ec:	d9d3      	bls.n	8002996 <HAL_RCC_OscConfig+0x2ae>
 80029ee:	e6c2      	b.n	8002776 <HAL_RCC_OscConfig+0x8e>
 80029f0:	f7ff fa8e 	bl	8001f10 <HAL_GetTick>
 80029f4:	4604      	mov	r4, r0
 80029f6:	682b      	ldr	r3, [r5, #0]
 80029f8:	019b      	lsls	r3, r3, #6
 80029fa:	f57f ae8f 	bpl.w	800271c <HAL_RCC_OscConfig+0x34>
 80029fe:	f7ff fa87 	bl	8001f10 <HAL_GetTick>
 8002a02:	1b00      	subs	r0, r0, r4
 8002a04:	2802      	cmp	r0, #2
 8002a06:	d9f6      	bls.n	80029f6 <HAL_RCC_OscConfig+0x30e>
 8002a08:	e6b5      	b.n	8002776 <HAL_RCC_OscConfig+0x8e>
 8002a0a:	2a01      	cmp	r2, #1
 8002a0c:	686b      	ldr	r3, [r5, #4]
 8002a0e:	f43f ae6f 	beq.w	80026f0 <HAL_RCC_OscConfig+0x8>
 8002a12:	f403 0280 	and.w	r2, r3, #4194304	@ 0x400000
 8002a16:	69e1      	ldr	r1, [r4, #28]
 8002a18:	428a      	cmp	r2, r1
 8002a1a:	f47f ae69 	bne.w	80026f0 <HAL_RCC_OscConfig+0x8>
 8002a1e:	f003 023f 	and.w	r2, r3, #63	@ 0x3f
 8002a22:	6a21      	ldr	r1, [r4, #32]
 8002a24:	428a      	cmp	r2, r1
 8002a26:	f47f ae63 	bne.w	80026f0 <HAL_RCC_OscConfig+0x8>
 8002a2a:	f647 72c0 	movw	r2, #32704	@ 0x7fc0
 8002a2e:	6a61      	ldr	r1, [r4, #36]	@ 0x24
 8002a30:	401a      	ands	r2, r3
 8002a32:	ebb2 1f81 	cmp.w	r2, r1, lsl #6
 8002a36:	f47f ae5b 	bne.w	80026f0 <HAL_RCC_OscConfig+0x8>
 8002a3a:	6aa2      	ldr	r2, [r4, #40]	@ 0x28
 8002a3c:	f403 3140 	and.w	r1, r3, #196608	@ 0x30000
 8002a40:	0852      	lsrs	r2, r2, #1
 8002a42:	3a01      	subs	r2, #1
 8002a44:	ebb1 4f02 	cmp.w	r1, r2, lsl #16
 8002a48:	f47f ae52 	bne.w	80026f0 <HAL_RCC_OscConfig+0x8>
 8002a4c:	f003 6270 	and.w	r2, r3, #251658240	@ 0xf000000
 8002a50:	6ae1      	ldr	r1, [r4, #44]	@ 0x2c
 8002a52:	ebb2 6f01 	cmp.w	r2, r1, lsl #24
 8002a56:	f47f ae4b 	bne.w	80026f0 <HAL_RCC_OscConfig+0x8>
 8002a5a:	6b22      	ldr	r2, [r4, #48]	@ 0x30
 8002a5c:	f003 43e0 	and.w	r3, r3, #1879048192	@ 0x70000000
 8002a60:	ebb3 7f02 	cmp.w	r3, r2, lsl #28
 8002a64:	bf14      	ite	ne
 8002a66:	2001      	movne	r0, #1
 8002a68:	2000      	moveq	r0, #0
 8002a6a:	e642      	b.n	80026f2 <HAL_RCC_OscConfig+0xa>
 8002a6c:	40023800 	.word	0x40023800

08002a70 <HAL_RCC_GetSysClockFreq>:
 8002a70:	4913      	ldr	r1, [pc, #76]	@ (8002ac0 <HAL_RCC_GetSysClockFreq+0x50>)
 8002a72:	b508      	push	{r3, lr}
 8002a74:	688b      	ldr	r3, [r1, #8]
 8002a76:	f003 030c 	and.w	r3, r3, #12
 8002a7a:	2b04      	cmp	r3, #4
 8002a7c:	d01b      	beq.n	8002ab6 <HAL_RCC_GetSysClockFreq+0x46>
 8002a7e:	2b08      	cmp	r3, #8
 8002a80:	d11b      	bne.n	8002aba <HAL_RCC_GetSysClockFreq+0x4a>
 8002a82:	684a      	ldr	r2, [r1, #4]
 8002a84:	684b      	ldr	r3, [r1, #4]
 8002a86:	6849      	ldr	r1, [r1, #4]
 8002a88:	f002 023f 	and.w	r2, r2, #63	@ 0x3f
 8002a8c:	f413 0380 	ands.w	r3, r3, #4194304	@ 0x400000
 8002a90:	f3c1 1188 	ubfx	r1, r1, #6, #9
 8002a94:	bf1a      	itte	ne
 8002a96:	480b      	ldrne	r0, [pc, #44]	@ (8002ac4 <HAL_RCC_GetSysClockFreq+0x54>)
 8002a98:	2300      	movne	r3, #0
 8002a9a:	480b      	ldreq	r0, [pc, #44]	@ (8002ac8 <HAL_RCC_GetSysClockFreq+0x58>)
 8002a9c:	fba1 0100 	umull	r0, r1, r1, r0
 8002aa0:	f7fd fbd8 	bl	8000254 <__aeabi_uldivmod>
 8002aa4:	4b06      	ldr	r3, [pc, #24]	@ (8002ac0 <HAL_RCC_GetSysClockFreq+0x50>)
 8002aa6:	685b      	ldr	r3, [r3, #4]
 8002aa8:	f3c3 4301 	ubfx	r3, r3, #16, #2
 8002aac:	3301      	adds	r3, #1
 8002aae:	005b      	lsls	r3, r3, #1
 8002ab0:	fbb0 f0f3 	udiv	r0, r0, r3
 8002ab4:	bd08      	pop	{r3, pc}
 8002ab6:	4803      	ldr	r0, [pc, #12]	@ (8002ac4 <HAL_RCC_GetSysClockFreq+0x54>)
 8002ab8:	e7fc      	b.n	8002ab4 <HAL_RCC_GetSysClockFreq+0x44>
 8002aba:	4803      	ldr	r0, [pc, #12]	@ (8002ac8 <HAL_RCC_GetSysClockFreq+0x58>)
 8002abc:	e7fa      	b.n	8002ab4 <HAL_RCC_GetSysClockFreq+0x44>
 8002abe:	bf00      	nop
 8002ac0:	40023800 	.word	0x40023800
 8002ac4:	007a1200 	.word	0x007a1200
 8002ac8:	00f42400 	.word	0x00f42400

08002acc <HAL_RCC_ClockConfig>:
 8002acc:	e92d 41f0 	stmdb	sp!, {r4, r5, r6, r7, r8, lr}
 8002ad0:	460d      	mov	r5, r1
 8002ad2:	4604      	mov	r4, r0
 8002ad4:	b910      	cbnz	r0, 8002adc <HAL_RCC_ClockConfig+0x10>
 8002ad6:	2001      	movs	r0, #1
 8002ad8:	e8bd 81f0 	ldmia.w	sp!, {r4, r5, r6, r7, r8, pc}
 8002adc:	4a45      	ldr	r2, [pc, #276]	@ (8002bf4 <HAL_RCC_ClockConfig+0x128>)
 8002ade:	6813      	ldr	r3, [r2, #0]
 8002ae0:	f003 030f 	and.w	r3, r3, #15
 8002ae4:	428b      	cmp	r3, r1
 8002ae6:	d328      	bcc.n	8002b3a <HAL_RCC_ClockConfig+0x6e>
 8002ae8:	6821      	ldr	r1, [r4, #0]
 8002aea:	078f      	lsls	r7, r1, #30
 8002aec:	d430      	bmi.n	8002b50 <HAL_RCC_ClockConfig+0x84>
 8002aee:	07c8      	lsls	r0, r1, #31
 8002af0:	d443      	bmi.n	8002b7a <HAL_RCC_ClockConfig+0xae>
 8002af2:	4a40      	ldr	r2, [pc, #256]	@ (8002bf4 <HAL_RCC_ClockConfig+0x128>)
 8002af4:	6813      	ldr	r3, [r2, #0]
 8002af6:	f003 030f 	and.w	r3, r3, #15
 8002afa:	42ab      	cmp	r3, r5
 8002afc:	d866      	bhi.n	8002bcc <HAL_RCC_ClockConfig+0x100>
 8002afe:	6822      	ldr	r2, [r4, #0]
 8002b00:	0751      	lsls	r1, r2, #29
 8002b02:	d46f      	bmi.n	8002be4 <HAL_RCC_ClockConfig+0x118>
 8002b04:	0713      	lsls	r3, r2, #28
 8002b06:	d507      	bpl.n	8002b18 <HAL_RCC_ClockConfig+0x4c>
 8002b08:	4a3b      	ldr	r2, [pc, #236]	@ (8002bf8 <HAL_RCC_ClockConfig+0x12c>)
 8002b0a:	6921      	ldr	r1, [r4, #16]
 8002b0c:	6893      	ldr	r3, [r2, #8]
 8002b0e:	f423 4360 	bic.w	r3, r3, #57344	@ 0xe000
 8002b12:	ea43 03c1 	orr.w	r3, r3, r1, lsl #3
 8002b16:	6093      	str	r3, [r2, #8]
 8002b18:	f7ff ffaa 	bl	8002a70 <HAL_RCC_GetSysClockFreq>
 8002b1c:	4b36      	ldr	r3, [pc, #216]	@ (8002bf8 <HAL_RCC_ClockConfig+0x12c>)
 8002b1e:	4a37      	ldr	r2, [pc, #220]	@ (8002bfc <HAL_RCC_ClockConfig+0x130>)
 8002b20:	689b      	ldr	r3, [r3, #8]
 8002b22:	f3c3 1303 	ubfx	r3, r3, #4, #4
 8002b26:	5cd3      	ldrb	r3, [r2, r3]
 8002b28:	40d8      	lsrs	r0, r3
 8002b2a:	4b35      	ldr	r3, [pc, #212]	@ (8002c00 <HAL_RCC_ClockConfig+0x134>)
 8002b2c:	6018      	str	r0, [r3, #0]
 8002b2e:	4b35      	ldr	r3, [pc, #212]	@ (8002c04 <HAL_RCC_ClockConfig+0x138>)
 8002b30:	6818      	ldr	r0, [r3, #0]
 8002b32:	f7ff f9b1 	bl	8001e98 <HAL_InitTick>
 8002b36:	2000      	movs	r0, #0
 8002b38:	e7ce      	b.n	8002ad8 <HAL_RCC_ClockConfig+0xc>
 8002b3a:	6813      	ldr	r3, [r2, #0]
 8002b3c:	f023 030f 	bic.w	r3, r3, #15
 8002b40:	430b      	orrs	r3, r1
 8002b42:	6013      	str	r3, [r2, #0]
 8002b44:	6813      	ldr	r3, [r2, #0]
 8002b46:	f003 030f 	and.w	r3, r3, #15
 8002b4a:	428b      	cmp	r3, r1
 8002b4c:	d1c3      	bne.n	8002ad6 <HAL_RCC_ClockConfig+0xa>
 8002b4e:	e7cb      	b.n	8002ae8 <HAL_RCC_ClockConfig+0x1c>
 8002b50:	f011 0f04 	tst.w	r1, #4
 8002b54:	4b28      	ldr	r3, [pc, #160]	@ (8002bf8 <HAL_RCC_ClockConfig+0x12c>)
 8002b56:	d003      	beq.n	8002b60 <HAL_RCC_ClockConfig+0x94>
 8002b58:	689a      	ldr	r2, [r3, #8]
 8002b5a:	f442 52e0 	orr.w	r2, r2, #7168	@ 0x1c00
 8002b5e:	609a      	str	r2, [r3, #8]
 8002b60:	070e      	lsls	r6, r1, #28
 8002b62:	d503      	bpl.n	8002b6c <HAL_RCC_ClockConfig+0xa0>
 8002b64:	689a      	ldr	r2, [r3, #8]
 8002b66:	f442 4260 	orr.w	r2, r2, #57344	@ 0xe000
 8002b6a:	609a      	str	r2, [r3, #8]
 8002b6c:	689a      	ldr	r2, [r3, #8]
 8002b6e:	68a0      	ldr	r0, [r4, #8]
 8002b70:	f022 02f0 	bic.w	r2, r2, #240	@ 0xf0
 8002b74:	4302      	orrs	r2, r0
 8002b76:	609a      	str	r2, [r3, #8]
 8002b78:	e7b9      	b.n	8002aee <HAL_RCC_ClockConfig+0x22>
 8002b7a:	6861      	ldr	r1, [r4, #4]
 8002b7c:	4b1e      	ldr	r3, [pc, #120]	@ (8002bf8 <HAL_RCC_ClockConfig+0x12c>)
 8002b7e:	2901      	cmp	r1, #1
 8002b80:	681a      	ldr	r2, [r3, #0]
 8002b82:	d11b      	bne.n	8002bbc <HAL_RCC_ClockConfig+0xf0>
 8002b84:	f412 3f00 	tst.w	r2, #131072	@ 0x20000
 8002b88:	d0a5      	beq.n	8002ad6 <HAL_RCC_ClockConfig+0xa>
 8002b8a:	689a      	ldr	r2, [r3, #8]
 8002b8c:	f241 3888 	movw	r8, #5000	@ 0x1388
 8002b90:	4f19      	ldr	r7, [pc, #100]	@ (8002bf8 <HAL_RCC_ClockConfig+0x12c>)
 8002b92:	f022 0203 	bic.w	r2, r2, #3
 8002b96:	430a      	orrs	r2, r1
 8002b98:	609a      	str	r2, [r3, #8]
 8002b9a:	f7ff f9b9 	bl	8001f10 <HAL_GetTick>
 8002b9e:	4606      	mov	r6, r0
 8002ba0:	68bb      	ldr	r3, [r7, #8]
 8002ba2:	6862      	ldr	r2, [r4, #4]
 8002ba4:	f003 030c 	and.w	r3, r3, #12
 8002ba8:	ebb3 0f82 	cmp.w	r3, r2, lsl #2
 8002bac:	d0a1      	beq.n	8002af2 <HAL_RCC_ClockConfig+0x26>
 8002bae:	f7ff f9af 	bl	8001f10 <HAL_GetTick>
 8002bb2:	1b80      	subs	r0, r0, r6
 8002bb4:	4540      	cmp	r0, r8
 8002bb6:	d9f3      	bls.n	8002ba0 <HAL_RCC_ClockConfig+0xd4>
 8002bb8:	2003      	movs	r0, #3
 8002bba:	e78d      	b.n	8002ad8 <HAL_RCC_ClockConfig+0xc>
 8002bbc:	2902      	cmp	r1, #2
 8002bbe:	d102      	bne.n	8002bc6 <HAL_RCC_ClockConfig+0xfa>
 8002bc0:	f012 7f00 	tst.w	r2, #33554432	@ 0x2000000
 8002bc4:	e7e0      	b.n	8002b88 <HAL_RCC_ClockConfig+0xbc>
 8002bc6:	f012 0f02 	tst.w	r2, #2
 8002bca:	e7dd      	b.n	8002b88 <HAL_RCC_ClockConfig+0xbc>
 8002bcc:	6813      	ldr	r3, [r2, #0]
 8002bce:	f023 030f 	bic.w	r3, r3, #15
 8002bd2:	432b      	orrs	r3, r5
 8002bd4:	6013      	str	r3, [r2, #0]
 8002bd6:	6813      	ldr	r3, [r2, #0]
 8002bd8:	f003 030f 	and.w	r3, r3, #15
 8002bdc:	42ab      	cmp	r3, r5
 8002bde:	f47f af7a 	bne.w	8002ad6 <HAL_RCC_ClockConfig+0xa>
 8002be2:	e78c      	b.n	8002afe <HAL_RCC_ClockConfig+0x32>
 8002be4:	4904      	ldr	r1, [pc, #16]	@ (8002bf8 <HAL_RCC_ClockConfig+0x12c>)
 8002be6:	68e0      	ldr	r0, [r4, #12]
 8002be8:	688b      	ldr	r3, [r1, #8]
 8002bea:	f423 53e0 	bic.w	r3, r3, #7168	@ 0x1c00
 8002bee:	4303      	orrs	r3, r0
 8002bf0:	608b      	str	r3, [r1, #8]
 8002bf2:	e787      	b.n	8002b04 <HAL_RCC_ClockConfig+0x38>
 8002bf4:	40023c00 	.word	0x40023c00
 8002bf8:	40023800 	.word	0x40023800
 8002bfc:	08006c1f 	.word	0x08006c1f
 8002c00:	20000000 	.word	0x20000000
 8002c04:	20000008 	.word	0x20000008

08002c08 <HAL_RCC_GetPCLK1Freq>:
 8002c08:	4b04      	ldr	r3, [pc, #16]	@ (8002c1c <HAL_RCC_GetPCLK1Freq+0x14>)
 8002c0a:	4a05      	ldr	r2, [pc, #20]	@ (8002c20 <HAL_RCC_GetPCLK1Freq+0x18>)
 8002c0c:	689b      	ldr	r3, [r3, #8]
 8002c0e:	f3c3 2382 	ubfx	r3, r3, #10, #3
 8002c12:	5cd3      	ldrb	r3, [r2, r3]
 8002c14:	4a03      	ldr	r2, [pc, #12]	@ (8002c24 <HAL_RCC_GetPCLK1Freq+0x1c>)
 8002c16:	6810      	ldr	r0, [r2, #0]
 8002c18:	40d8      	lsrs	r0, r3
 8002c1a:	4770      	bx	lr
 8002c1c:	40023800 	.word	0x40023800
 8002c20:	08006c17 	.word	0x08006c17
 8002c24:	20000000 	.word	0x20000000

08002c28 <HAL_RCC_GetPCLK2Freq>:
 8002c28:	4b04      	ldr	r3, [pc, #16]	@ (8002c3c <HAL_RCC_GetPCLK2Freq+0x14>)
 8002c2a:	4a05      	ldr	r2, [pc, #20]	@ (8002c40 <HAL_RCC_GetPCLK2Freq+0x18>)
 8002c2c:	689b      	ldr	r3, [r3, #8]
 8002c2e:	f3c3 3342 	ubfx	r3, r3, #13, #3
 8002c32:	5cd3      	ldrb	r3, [r2, r3]
 8002c34:	4a03      	ldr	r2, [pc, #12]	@ (8002c44 <HAL_RCC_GetPCLK2Freq+0x1c>)
 8002c36:	6810      	ldr	r0, [r2, #0]
 8002c38:	40d8      	lsrs	r0, r3
 8002c3a:	4770      	bx	lr
 8002c3c:	40023800 	.word	0x40023800
 8002c40:	08006c17 	.word	0x08006c17
 8002c44:	20000000 	.word	0x20000000

08002c48 <HAL_RCCEx_PeriphCLKConfig>:
 8002c48:	6803      	ldr	r3, [r0, #0]
 8002c4a:	e92d 43f7 	stmdb	sp!, {r0, r1, r2, r4, r5, r6, r7, r8, r9, lr}
 8002c4e:	f013 0601 	ands.w	r6, r3, #1
 8002c52:	4604      	mov	r4, r0
 8002c54:	d00b      	beq.n	8002c6e <HAL_RCCEx_PeriphCLKConfig+0x26>
 8002c56:	4ab1      	ldr	r2, [pc, #708]	@ (8002f1c <HAL_RCCEx_PeriphCLKConfig+0x2d4>)
 8002c58:	6891      	ldr	r1, [r2, #8]
 8002c5a:	f421 0100 	bic.w	r1, r1, #8388608	@ 0x800000
 8002c5e:	6091      	str	r1, [r2, #8]
 8002c60:	6b46      	ldr	r6, [r0, #52]	@ 0x34
 8002c62:	6891      	ldr	r1, [r2, #8]
 8002c64:	4331      	orrs	r1, r6
 8002c66:	fab6 f686 	clz	r6, r6
 8002c6a:	0976      	lsrs	r6, r6, #5
 8002c6c:	6091      	str	r1, [r2, #8]
 8002c6e:	f413 2500 	ands.w	r5, r3, #524288	@ 0x80000
 8002c72:	d012      	beq.n	8002c9a <HAL_RCCEx_PeriphCLKConfig+0x52>
 8002c74:	49a9      	ldr	r1, [pc, #676]	@ (8002f1c <HAL_RCCEx_PeriphCLKConfig+0x2d4>)
 8002c76:	6be5      	ldr	r5, [r4, #60]	@ 0x3c
 8002c78:	f8d1 208c 	ldr.w	r2, [r1, #140]	@ 0x8c
 8002c7c:	f5b5 1f80 	cmp.w	r5, #1048576	@ 0x100000
 8002c80:	f422 1240 	bic.w	r2, r2, #3145728	@ 0x300000
 8002c84:	bf08      	it	eq
 8002c86:	2601      	moveq	r6, #1
 8002c88:	ea42 0205 	orr.w	r2, r2, r5
 8002c8c:	bf16      	itet	ne
 8002c8e:	fab5 f585 	clzne	r5, r5
 8002c92:	2500      	moveq	r5, #0
 8002c94:	096d      	lsrne	r5, r5, #5
 8002c96:	f8c1 208c 	str.w	r2, [r1, #140]	@ 0x8c
 8002c9a:	02d9      	lsls	r1, r3, #11
 8002c9c:	d510      	bpl.n	8002cc0 <HAL_RCCEx_PeriphCLKConfig+0x78>
 8002c9e:	489f      	ldr	r0, [pc, #636]	@ (8002f1c <HAL_RCCEx_PeriphCLKConfig+0x2d4>)
 8002ca0:	6c21      	ldr	r1, [r4, #64]	@ 0x40
 8002ca2:	f8d0 208c 	ldr.w	r2, [r0, #140]	@ 0x8c
 8002ca6:	f5b1 0f80 	cmp.w	r1, #4194304	@ 0x400000
 8002caa:	f422 0240 	bic.w	r2, r2, #12582912	@ 0xc00000
 8002cae:	ea42 0201 	orr.w	r2, r2, r1
 8002cb2:	f8c0 208c 	str.w	r2, [r0, #140]	@ 0x8c
 8002cb6:	f000 81aa 	beq.w	800300e <HAL_RCCEx_PeriphCLKConfig+0x3c6>
 8002cba:	2900      	cmp	r1, #0
 8002cbc:	bf08      	it	eq
 8002cbe:	2501      	moveq	r5, #1
 8002cc0:	f013 7f80 	tst.w	r3, #16777216	@ 0x1000000
 8002cc4:	bf18      	it	ne
 8002cc6:	2601      	movne	r6, #1
 8002cc8:	069a      	lsls	r2, r3, #26
 8002cca:	d532      	bpl.n	8002d32 <HAL_RCCEx_PeriphCLKConfig+0xea>
 8002ccc:	4b93      	ldr	r3, [pc, #588]	@ (8002f1c <HAL_RCCEx_PeriphCLKConfig+0x2d4>)
 8002cce:	4f94      	ldr	r7, [pc, #592]	@ (8002f20 <HAL_RCCEx_PeriphCLKConfig+0x2d8>)
 8002cd0:	6c1a      	ldr	r2, [r3, #64]	@ 0x40
 8002cd2:	f042 5280 	orr.w	r2, r2, #268435456	@ 0x10000000
 8002cd6:	641a      	str	r2, [r3, #64]	@ 0x40
 8002cd8:	6c1b      	ldr	r3, [r3, #64]	@ 0x40
 8002cda:	f003 5380 	and.w	r3, r3, #268435456	@ 0x10000000
 8002cde:	9301      	str	r3, [sp, #4]
 8002ce0:	9b01      	ldr	r3, [sp, #4]
 8002ce2:	683b      	ldr	r3, [r7, #0]
 8002ce4:	f443 7380 	orr.w	r3, r3, #256	@ 0x100
 8002ce8:	603b      	str	r3, [r7, #0]
 8002cea:	f7ff f911 	bl	8001f10 <HAL_GetTick>
 8002cee:	4680      	mov	r8, r0
 8002cf0:	683b      	ldr	r3, [r7, #0]
 8002cf2:	05db      	lsls	r3, r3, #23
 8002cf4:	f140 818d 	bpl.w	8003012 <HAL_RCCEx_PeriphCLKConfig+0x3ca>
 8002cf8:	4f88      	ldr	r7, [pc, #544]	@ (8002f1c <HAL_RCCEx_PeriphCLKConfig+0x2d4>)
 8002cfa:	6b22      	ldr	r2, [r4, #48]	@ 0x30
 8002cfc:	6f3b      	ldr	r3, [r7, #112]	@ 0x70
 8002cfe:	f413 7340 	ands.w	r3, r3, #768	@ 0x300
 8002d02:	f040 8191 	bne.w	8003028 <HAL_RCCEx_PeriphCLKConfig+0x3e0>
 8002d06:	6b23      	ldr	r3, [r4, #48]	@ 0x30
 8002d08:	f403 7240 	and.w	r2, r3, #768	@ 0x300
 8002d0c:	f5b2 7f40 	cmp.w	r2, #768	@ 0x300
 8002d10:	4a82      	ldr	r2, [pc, #520]	@ (8002f1c <HAL_RCCEx_PeriphCLKConfig+0x2d4>)
 8002d12:	f040 81ae 	bne.w	8003072 <HAL_RCCEx_PeriphCLKConfig+0x42a>
 8002d16:	6891      	ldr	r1, [r2, #8]
 8002d18:	f023 4070 	bic.w	r0, r3, #4026531840	@ 0xf0000000
 8002d1c:	f421 11f8 	bic.w	r1, r1, #2031616	@ 0x1f0000
 8002d20:	f420 7040 	bic.w	r0, r0, #768	@ 0x300
 8002d24:	4301      	orrs	r1, r0
 8002d26:	6091      	str	r1, [r2, #8]
 8002d28:	f3c3 030b 	ubfx	r3, r3, #0, #12
 8002d2c:	6f11      	ldr	r1, [r2, #112]	@ 0x70
 8002d2e:	430b      	orrs	r3, r1
 8002d30:	6713      	str	r3, [r2, #112]	@ 0x70
 8002d32:	6823      	ldr	r3, [r4, #0]
 8002d34:	06da      	lsls	r2, r3, #27
 8002d36:	d50c      	bpl.n	8002d52 <HAL_RCCEx_PeriphCLKConfig+0x10a>
 8002d38:	4a78      	ldr	r2, [pc, #480]	@ (8002f1c <HAL_RCCEx_PeriphCLKConfig+0x2d4>)
 8002d3a:	f8d2 108c 	ldr.w	r1, [r2, #140]	@ 0x8c
 8002d3e:	f021 7180 	bic.w	r1, r1, #16777216	@ 0x1000000
 8002d42:	f8c2 108c 	str.w	r1, [r2, #140]	@ 0x8c
 8002d46:	f8d2 108c 	ldr.w	r1, [r2, #140]	@ 0x8c
 8002d4a:	6ba0      	ldr	r0, [r4, #56]	@ 0x38
 8002d4c:	4301      	orrs	r1, r0
 8002d4e:	f8c2 108c 	str.w	r1, [r2, #140]	@ 0x8c
 8002d52:	045f      	lsls	r7, r3, #17
 8002d54:	d508      	bpl.n	8002d68 <HAL_RCCEx_PeriphCLKConfig+0x120>
 8002d56:	4971      	ldr	r1, [pc, #452]	@ (8002f1c <HAL_RCCEx_PeriphCLKConfig+0x2d4>)
 8002d58:	6e60      	ldr	r0, [r4, #100]	@ 0x64
 8002d5a:	f8d1 2090 	ldr.w	r2, [r1, #144]	@ 0x90
 8002d5e:	f422 3240 	bic.w	r2, r2, #196608	@ 0x30000
 8002d62:	4302      	orrs	r2, r0
 8002d64:	f8c1 2090 	str.w	r2, [r1, #144]	@ 0x90
 8002d68:	0418      	lsls	r0, r3, #16
 8002d6a:	d508      	bpl.n	8002d7e <HAL_RCCEx_PeriphCLKConfig+0x136>
 8002d6c:	496b      	ldr	r1, [pc, #428]	@ (8002f1c <HAL_RCCEx_PeriphCLKConfig+0x2d4>)
 8002d6e:	6ea0      	ldr	r0, [r4, #104]	@ 0x68
 8002d70:	f8d1 2090 	ldr.w	r2, [r1, #144]	@ 0x90
 8002d74:	f422 2240 	bic.w	r2, r2, #786432	@ 0xc0000
 8002d78:	4302      	orrs	r2, r0
 8002d7a:	f8c1 2090 	str.w	r2, [r1, #144]	@ 0x90
 8002d7e:	03d9      	lsls	r1, r3, #15
 8002d80:	d508      	bpl.n	8002d94 <HAL_RCCEx_PeriphCLKConfig+0x14c>
 8002d82:	4966      	ldr	r1, [pc, #408]	@ (8002f1c <HAL_RCCEx_PeriphCLKConfig+0x2d4>)
 8002d84:	6ee0      	ldr	r0, [r4, #108]	@ 0x6c
 8002d86:	f8d1 2090 	ldr.w	r2, [r1, #144]	@ 0x90
 8002d8a:	f422 1240 	bic.w	r2, r2, #3145728	@ 0x300000
 8002d8e:	4302      	orrs	r2, r0
 8002d90:	f8c1 2090 	str.w	r2, [r1, #144]	@ 0x90
 8002d94:	039a      	lsls	r2, r3, #14
 8002d96:	d508      	bpl.n	8002daa <HAL_RCCEx_PeriphCLKConfig+0x162>
 8002d98:	4960      	ldr	r1, [pc, #384]	@ (8002f1c <HAL_RCCEx_PeriphCLKConfig+0x2d4>)
 8002d9a:	6f20      	ldr	r0, [r4, #112]	@ 0x70
 8002d9c:	f8d1 2090 	ldr.w	r2, [r1, #144]	@ 0x90
 8002da0:	f422 0240 	bic.w	r2, r2, #12582912	@ 0xc00000
 8002da4:	4302      	orrs	r2, r0
 8002da6:	f8c1 2090 	str.w	r2, [r1, #144]	@ 0x90
 8002daa:	065f      	lsls	r7, r3, #25
 8002dac:	d508      	bpl.n	8002dc0 <HAL_RCCEx_PeriphCLKConfig+0x178>
 8002dae:	495b      	ldr	r1, [pc, #364]	@ (8002f1c <HAL_RCCEx_PeriphCLKConfig+0x2d4>)
 8002db0:	6c60      	ldr	r0, [r4, #68]	@ 0x44
 8002db2:	f8d1 2090 	ldr.w	r2, [r1, #144]	@ 0x90
 8002db6:	f022 0203 	bic.w	r2, r2, #3
 8002dba:	4302      	orrs	r2, r0
 8002dbc:	f8c1 2090 	str.w	r2, [r1, #144]	@ 0x90
 8002dc0:	0618      	lsls	r0, r3, #24
 8002dc2:	d508      	bpl.n	8002dd6 <HAL_RCCEx_PeriphCLKConfig+0x18e>
 8002dc4:	4955      	ldr	r1, [pc, #340]	@ (8002f1c <HAL_RCCEx_PeriphCLKConfig+0x2d4>)
 8002dc6:	6ca0      	ldr	r0, [r4, #72]	@ 0x48
 8002dc8:	f8d1 2090 	ldr.w	r2, [r1, #144]	@ 0x90
 8002dcc:	f022 020c 	bic.w	r2, r2, #12
 8002dd0:	4302      	orrs	r2, r0
 8002dd2:	f8c1 2090 	str.w	r2, [r1, #144]	@ 0x90
 8002dd6:	05d9      	lsls	r1, r3, #23
 8002dd8:	d508      	bpl.n	8002dec <HAL_RCCEx_PeriphCLKConfig+0x1a4>
 8002dda:	4950      	ldr	r1, [pc, #320]	@ (8002f1c <HAL_RCCEx_PeriphCLKConfig+0x2d4>)
 8002ddc:	6ce0      	ldr	r0, [r4, #76]	@ 0x4c
 8002dde:	f8d1 2090 	ldr.w	r2, [r1, #144]	@ 0x90
 8002de2:	f022 0230 	bic.w	r2, r2, #48	@ 0x30
 8002de6:	4302      	orrs	r2, r0
 8002de8:	f8c1 2090 	str.w	r2, [r1, #144]	@ 0x90
 8002dec:	059a      	lsls	r2, r3, #22
 8002dee:	d508      	bpl.n	8002e02 <HAL_RCCEx_PeriphCLKConfig+0x1ba>
 8002df0:	494a      	ldr	r1, [pc, #296]	@ (8002f1c <HAL_RCCEx_PeriphCLKConfig+0x2d4>)
 8002df2:	6d20      	ldr	r0, [r4, #80]	@ 0x50
 8002df4:	f8d1 2090 	ldr.w	r2, [r1, #144]	@ 0x90
 8002df8:	f022 02c0 	bic.w	r2, r2, #192	@ 0xc0
 8002dfc:	4302      	orrs	r2, r0
 8002dfe:	f8c1 2090 	str.w	r2, [r1, #144]	@ 0x90
 8002e02:	055f      	lsls	r7, r3, #21
 8002e04:	d508      	bpl.n	8002e18 <HAL_RCCEx_PeriphCLKConfig+0x1d0>
 8002e06:	4945      	ldr	r1, [pc, #276]	@ (8002f1c <HAL_RCCEx_PeriphCLKConfig+0x2d4>)
 8002e08:	6d60      	ldr	r0, [r4, #84]	@ 0x54
 8002e0a:	f8d1 2090 	ldr.w	r2, [r1, #144]	@ 0x90
 8002e0e:	f422 7240 	bic.w	r2, r2, #768	@ 0x300
 8002e12:	4302      	orrs	r2, r0
 8002e14:	f8c1 2090 	str.w	r2, [r1, #144]	@ 0x90
 8002e18:	0518      	lsls	r0, r3, #20
 8002e1a:	d508      	bpl.n	8002e2e <HAL_RCCEx_PeriphCLKConfig+0x1e6>
 8002e1c:	493f      	ldr	r1, [pc, #252]	@ (8002f1c <HAL_RCCEx_PeriphCLKConfig+0x2d4>)
 8002e1e:	6da0      	ldr	r0, [r4, #88]	@ 0x58
 8002e20:	f8d1 2090 	ldr.w	r2, [r1, #144]	@ 0x90
 8002e24:	f422 6240 	bic.w	r2, r2, #3072	@ 0xc00
 8002e28:	4302      	orrs	r2, r0
 8002e2a:	f8c1 2090 	str.w	r2, [r1, #144]	@ 0x90
 8002e2e:	04d9      	lsls	r1, r3, #19
 8002e30:	d508      	bpl.n	8002e44 <HAL_RCCEx_PeriphCLKConfig+0x1fc>
 8002e32:	493a      	ldr	r1, [pc, #232]	@ (8002f1c <HAL_RCCEx_PeriphCLKConfig+0x2d4>)
 8002e34:	6de0      	ldr	r0, [r4, #92]	@ 0x5c
 8002e36:	f8d1 2090 	ldr.w	r2, [r1, #144]	@ 0x90
 8002e3a:	f422 5240 	bic.w	r2, r2, #12288	@ 0x3000
 8002e3e:	4302      	orrs	r2, r0
 8002e40:	f8c1 2090 	str.w	r2, [r1, #144]	@ 0x90
 8002e44:	049a      	lsls	r2, r3, #18
 8002e46:	d508      	bpl.n	8002e5a <HAL_RCCEx_PeriphCLKConfig+0x212>
 8002e48:	4934      	ldr	r1, [pc, #208]	@ (8002f1c <HAL_RCCEx_PeriphCLKConfig+0x2d4>)
 8002e4a:	6e20      	ldr	r0, [r4, #96]	@ 0x60
 8002e4c:	f8d1 2090 	ldr.w	r2, [r1, #144]	@ 0x90
 8002e50:	f422 4240 	bic.w	r2, r2, #49152	@ 0xc000
 8002e54:	4302      	orrs	r2, r0
 8002e56:	f8c1 2090 	str.w	r2, [r1, #144]	@ 0x90
 8002e5a:	025f      	lsls	r7, r3, #9
 8002e5c:	d508      	bpl.n	8002e70 <HAL_RCCEx_PeriphCLKConfig+0x228>
 8002e5e:	492f      	ldr	r1, [pc, #188]	@ (8002f1c <HAL_RCCEx_PeriphCLKConfig+0x2d4>)
 8002e60:	6fa0      	ldr	r0, [r4, #120]	@ 0x78
 8002e62:	f8d1 2090 	ldr.w	r2, [r1, #144]	@ 0x90
 8002e66:	f022 6280 	bic.w	r2, r2, #67108864	@ 0x4000000
 8002e6a:	4302      	orrs	r2, r0
 8002e6c:	f8c1 2090 	str.w	r2, [r1, #144]	@ 0x90
 8002e70:	0298      	lsls	r0, r3, #10
 8002e72:	d50c      	bpl.n	8002e8e <HAL_RCCEx_PeriphCLKConfig+0x246>
 8002e74:	4829      	ldr	r0, [pc, #164]	@ (8002f1c <HAL_RCCEx_PeriphCLKConfig+0x2d4>)
 8002e76:	6fe1      	ldr	r1, [r4, #124]	@ 0x7c
 8002e78:	f8d0 2090 	ldr.w	r2, [r0, #144]	@ 0x90
 8002e7c:	f1b1 6f00 	cmp.w	r1, #134217728	@ 0x8000000
 8002e80:	f022 6200 	bic.w	r2, r2, #134217728	@ 0x8000000
 8002e84:	bf08      	it	eq
 8002e86:	2501      	moveq	r5, #1
 8002e88:	430a      	orrs	r2, r1
 8002e8a:	f8c0 2090 	str.w	r2, [r0, #144]	@ 0x90
 8002e8e:	f013 0f08 	tst.w	r3, #8
 8002e92:	bf18      	it	ne
 8002e94:	2501      	movne	r5, #1
 8002e96:	0359      	lsls	r1, r3, #13
 8002e98:	d508      	bpl.n	8002eac <HAL_RCCEx_PeriphCLKConfig+0x264>
 8002e9a:	4920      	ldr	r1, [pc, #128]	@ (8002f1c <HAL_RCCEx_PeriphCLKConfig+0x2d4>)
 8002e9c:	6f60      	ldr	r0, [r4, #116]	@ 0x74
 8002e9e:	f8d1 2090 	ldr.w	r2, [r1, #144]	@ 0x90
 8002ea2:	f022 7240 	bic.w	r2, r2, #50331648	@ 0x3000000
 8002ea6:	4302      	orrs	r2, r0
 8002ea8:	f8c1 2090 	str.w	r2, [r1, #144]	@ 0x90
 8002eac:	021a      	lsls	r2, r3, #8
 8002eae:	d509      	bpl.n	8002ec4 <HAL_RCCEx_PeriphCLKConfig+0x27c>
 8002eb0:	491a      	ldr	r1, [pc, #104]	@ (8002f1c <HAL_RCCEx_PeriphCLKConfig+0x2d4>)
 8002eb2:	f8d4 0080 	ldr.w	r0, [r4, #128]	@ 0x80
 8002eb6:	f8d1 2090 	ldr.w	r2, [r1, #144]	@ 0x90
 8002eba:	f022 5280 	bic.w	r2, r2, #268435456	@ 0x10000000
 8002ebe:	4302      	orrs	r2, r0
 8002ec0:	f8c1 2090 	str.w	r2, [r1, #144]	@ 0x90
 8002ec4:	015f      	lsls	r7, r3, #5
 8002ec6:	d509      	bpl.n	8002edc <HAL_RCCEx_PeriphCLKConfig+0x294>
 8002ec8:	4914      	ldr	r1, [pc, #80]	@ (8002f1c <HAL_RCCEx_PeriphCLKConfig+0x2d4>)
 8002eca:	f8d4 0084 	ldr.w	r0, [r4, #132]	@ 0x84
 8002ece:	f8d1 2090 	ldr.w	r2, [r1, #144]	@ 0x90
 8002ed2:	f022 5200 	bic.w	r2, r2, #536870912	@ 0x20000000
 8002ed6:	4302      	orrs	r2, r0
 8002ed8:	f8c1 2090 	str.w	r2, [r1, #144]	@ 0x90
 8002edc:	0118      	lsls	r0, r3, #4
 8002ede:	d509      	bpl.n	8002ef4 <HAL_RCCEx_PeriphCLKConfig+0x2ac>
 8002ee0:	490e      	ldr	r1, [pc, #56]	@ (8002f1c <HAL_RCCEx_PeriphCLKConfig+0x2d4>)
 8002ee2:	f8d4 0088 	ldr.w	r0, [r4, #136]	@ 0x88
 8002ee6:	f8d1 208c 	ldr.w	r2, [r1, #140]	@ 0x8c
 8002eea:	f022 7200 	bic.w	r2, r2, #33554432	@ 0x2000000
 8002eee:	4302      	orrs	r2, r0
 8002ef0:	f8c1 208c 	str.w	r2, [r1, #140]	@ 0x8c
 8002ef4:	00d9      	lsls	r1, r3, #3
 8002ef6:	d509      	bpl.n	8002f0c <HAL_RCCEx_PeriphCLKConfig+0x2c4>
 8002ef8:	4908      	ldr	r1, [pc, #32]	@ (8002f1c <HAL_RCCEx_PeriphCLKConfig+0x2d4>)
 8002efa:	f8d4 008c 	ldr.w	r0, [r4, #140]	@ 0x8c
 8002efe:	f8d1 208c 	ldr.w	r2, [r1, #140]	@ 0x8c
 8002f02:	f022 6280 	bic.w	r2, r2, #67108864	@ 0x4000000
 8002f06:	4302      	orrs	r2, r0
 8002f08:	f8c1 208c 	str.w	r2, [r1, #140]	@ 0x8c
 8002f0c:	2e01      	cmp	r6, #1
 8002f0e:	f000 80b4 	beq.w	800307a <HAL_RCCEx_PeriphCLKConfig+0x432>
 8002f12:	019a      	lsls	r2, r3, #6
 8002f14:	f100 80b1 	bmi.w	800307a <HAL_RCCEx_PeriphCLKConfig+0x432>
 8002f18:	e004      	b.n	8002f24 <HAL_RCCEx_PeriphCLKConfig+0x2dc>
 8002f1a:	bf00      	nop
 8002f1c:	40023800 	.word	0x40023800
 8002f20:	40007000 	.word	0x40007000
 8002f24:	2d01      	cmp	r5, #1
 8002f26:	d170      	bne.n	800300a <HAL_RCCEx_PeriphCLKConfig+0x3c2>
 8002f28:	4d9d      	ldr	r5, [pc, #628]	@ (80031a0 <HAL_RCCEx_PeriphCLKConfig+0x558>)
 8002f2a:	682b      	ldr	r3, [r5, #0]
 8002f2c:	f023 5380 	bic.w	r3, r3, #268435456	@ 0x10000000
 8002f30:	602b      	str	r3, [r5, #0]
 8002f32:	f7fe ffed 	bl	8001f10 <HAL_GetTick>
 8002f36:	4606      	mov	r6, r0
 8002f38:	682b      	ldr	r3, [r5, #0]
 8002f3a:	009f      	lsls	r7, r3, #2
 8002f3c:	f100 8121 	bmi.w	8003182 <HAL_RCCEx_PeriphCLKConfig+0x53a>
 8002f40:	6821      	ldr	r1, [r4, #0]
 8002f42:	030e      	lsls	r6, r1, #12
 8002f44:	d501      	bpl.n	8002f4a <HAL_RCCEx_PeriphCLKConfig+0x302>
 8002f46:	6be3      	ldr	r3, [r4, #60]	@ 0x3c
 8002f48:	b11b      	cbz	r3, 8002f52 <HAL_RCCEx_PeriphCLKConfig+0x30a>
 8002f4a:	02cd      	lsls	r5, r1, #11
 8002f4c:	d51d      	bpl.n	8002f8a <HAL_RCCEx_PeriphCLKConfig+0x342>
 8002f4e:	6c23      	ldr	r3, [r4, #64]	@ 0x40
 8002f50:	b9db      	cbnz	r3, 8002f8a <HAL_RCCEx_PeriphCLKConfig+0x342>
 8002f52:	4a93      	ldr	r2, [pc, #588]	@ (80031a0 <HAL_RCCEx_PeriphCLKConfig+0x558>)
 8002f54:	f8d2 3088 	ldr.w	r3, [r2, #136]	@ 0x88
 8002f58:	f8d2 0088 	ldr.w	r0, [r2, #136]	@ 0x88
 8002f5c:	f403 3340 	and.w	r3, r3, #196608	@ 0x30000
 8002f60:	f000 40e0 	and.w	r0, r0, #1879048192	@ 0x70000000
 8002f64:	4303      	orrs	r3, r0
 8002f66:	6960      	ldr	r0, [r4, #20]
 8002f68:	ea43 1380 	orr.w	r3, r3, r0, lsl #6
 8002f6c:	69a0      	ldr	r0, [r4, #24]
 8002f6e:	ea43 6300 	orr.w	r3, r3, r0, lsl #24
 8002f72:	f8c2 3088 	str.w	r3, [r2, #136]	@ 0x88
 8002f76:	f8d2 308c 	ldr.w	r3, [r2, #140]	@ 0x8c
 8002f7a:	6aa0      	ldr	r0, [r4, #40]	@ 0x28
 8002f7c:	f423 53f8 	bic.w	r3, r3, #7936	@ 0x1f00
 8002f80:	3801      	subs	r0, #1
 8002f82:	ea43 2300 	orr.w	r3, r3, r0, lsl #8
 8002f86:	f8c2 308c 	str.w	r3, [r2, #140]	@ 0x8c
 8002f8a:	0288      	lsls	r0, r1, #10
 8002f8c:	d515      	bpl.n	8002fba <HAL_RCCEx_PeriphCLKConfig+0x372>
 8002f8e:	6fe3      	ldr	r3, [r4, #124]	@ 0x7c
 8002f90:	f1b3 6f00 	cmp.w	r3, #134217728	@ 0x8000000
 8002f94:	d111      	bne.n	8002fba <HAL_RCCEx_PeriphCLKConfig+0x372>
 8002f96:	4a82      	ldr	r2, [pc, #520]	@ (80031a0 <HAL_RCCEx_PeriphCLKConfig+0x558>)
 8002f98:	f8d2 3088 	ldr.w	r3, [r2, #136]	@ 0x88
 8002f9c:	f8d2 0088 	ldr.w	r0, [r2, #136]	@ 0x88
 8002fa0:	f003 6370 	and.w	r3, r3, #251658240	@ 0xf000000
 8002fa4:	f000 40e0 	and.w	r0, r0, #1879048192	@ 0x70000000
 8002fa8:	4303      	orrs	r3, r0
 8002faa:	6960      	ldr	r0, [r4, #20]
 8002fac:	ea43 1380 	orr.w	r3, r3, r0, lsl #6
 8002fb0:	6a20      	ldr	r0, [r4, #32]
 8002fb2:	ea43 4300 	orr.w	r3, r3, r0, lsl #16
 8002fb6:	f8c2 3088 	str.w	r3, [r2, #136]	@ 0x88
 8002fba:	070a      	lsls	r2, r1, #28
 8002fbc:	d519      	bpl.n	8002ff2 <HAL_RCCEx_PeriphCLKConfig+0x3aa>
 8002fbe:	4a78      	ldr	r2, [pc, #480]	@ (80031a0 <HAL_RCCEx_PeriphCLKConfig+0x558>)
 8002fc0:	f8d2 1088 	ldr.w	r1, [r2, #136]	@ 0x88
 8002fc4:	f8d2 3088 	ldr.w	r3, [r2, #136]	@ 0x88
 8002fc8:	f001 6170 	and.w	r1, r1, #251658240	@ 0xf000000
 8002fcc:	f403 3340 	and.w	r3, r3, #196608	@ 0x30000
 8002fd0:	430b      	orrs	r3, r1
 8002fd2:	6961      	ldr	r1, [r4, #20]
 8002fd4:	ea43 1381 	orr.w	r3, r3, r1, lsl #6
 8002fd8:	69e1      	ldr	r1, [r4, #28]
 8002fda:	ea43 7301 	orr.w	r3, r3, r1, lsl #28
 8002fde:	f8c2 3088 	str.w	r3, [r2, #136]	@ 0x88
 8002fe2:	f8d2 308c 	ldr.w	r3, [r2, #140]	@ 0x8c
 8002fe6:	6ae1      	ldr	r1, [r4, #44]	@ 0x2c
 8002fe8:	f423 3340 	bic.w	r3, r3, #196608	@ 0x30000
 8002fec:	430b      	orrs	r3, r1
 8002fee:	f8c2 308c 	str.w	r3, [r2, #140]	@ 0x8c
 8002ff2:	4c6b      	ldr	r4, [pc, #428]	@ (80031a0 <HAL_RCCEx_PeriphCLKConfig+0x558>)
 8002ff4:	6823      	ldr	r3, [r4, #0]
 8002ff6:	f043 5380 	orr.w	r3, r3, #268435456	@ 0x10000000
 8002ffa:	6023      	str	r3, [r4, #0]
 8002ffc:	f7fe ff88 	bl	8001f10 <HAL_GetTick>
 8003000:	4605      	mov	r5, r0
 8003002:	6823      	ldr	r3, [r4, #0]
 8003004:	009b      	lsls	r3, r3, #2
 8003006:	f140 80c3 	bpl.w	8003190 <HAL_RCCEx_PeriphCLKConfig+0x548>
 800300a:	2000      	movs	r0, #0
 800300c:	e009      	b.n	8003022 <HAL_RCCEx_PeriphCLKConfig+0x3da>
 800300e:	2601      	movs	r6, #1
 8003010:	e656      	b.n	8002cc0 <HAL_RCCEx_PeriphCLKConfig+0x78>
 8003012:	f7fe ff7d 	bl	8001f10 <HAL_GetTick>
 8003016:	eba0 0008 	sub.w	r0, r0, r8
 800301a:	2864      	cmp	r0, #100	@ 0x64
 800301c:	f67f ae68 	bls.w	8002cf0 <HAL_RCCEx_PeriphCLKConfig+0xa8>
 8003020:	2003      	movs	r0, #3
 8003022:	b003      	add	sp, #12
 8003024:	e8bd 83f0 	ldmia.w	sp!, {r4, r5, r6, r7, r8, r9, pc}
 8003028:	f402 7240 	and.w	r2, r2, #768	@ 0x300
 800302c:	4293      	cmp	r3, r2
 800302e:	f43f ae6a 	beq.w	8002d06 <HAL_RCCEx_PeriphCLKConfig+0xbe>
 8003032:	6f3b      	ldr	r3, [r7, #112]	@ 0x70
 8003034:	6f3a      	ldr	r2, [r7, #112]	@ 0x70
 8003036:	f423 7340 	bic.w	r3, r3, #768	@ 0x300
 800303a:	f442 3280 	orr.w	r2, r2, #65536	@ 0x10000
 800303e:	673a      	str	r2, [r7, #112]	@ 0x70
 8003040:	6f3a      	ldr	r2, [r7, #112]	@ 0x70
 8003042:	f422 3280 	bic.w	r2, r2, #65536	@ 0x10000
 8003046:	673a      	str	r2, [r7, #112]	@ 0x70
 8003048:	673b      	str	r3, [r7, #112]	@ 0x70
 800304a:	6f3b      	ldr	r3, [r7, #112]	@ 0x70
 800304c:	07d8      	lsls	r0, r3, #31
 800304e:	f57f ae5a 	bpl.w	8002d06 <HAL_RCCEx_PeriphCLKConfig+0xbe>
 8003052:	f7fe ff5d 	bl	8001f10 <HAL_GetTick>
 8003056:	f241 3988 	movw	r9, #5000	@ 0x1388
 800305a:	4680      	mov	r8, r0
 800305c:	6f3b      	ldr	r3, [r7, #112]	@ 0x70
 800305e:	0799      	lsls	r1, r3, #30
 8003060:	f53f ae51 	bmi.w	8002d06 <HAL_RCCEx_PeriphCLKConfig+0xbe>
 8003064:	f7fe ff54 	bl	8001f10 <HAL_GetTick>
 8003068:	eba0 0008 	sub.w	r0, r0, r8
 800306c:	4548      	cmp	r0, r9
 800306e:	d9f5      	bls.n	800305c <HAL_RCCEx_PeriphCLKConfig+0x414>
 8003070:	e7d6      	b.n	8003020 <HAL_RCCEx_PeriphCLKConfig+0x3d8>
 8003072:	6891      	ldr	r1, [r2, #8]
 8003074:	f421 11f8 	bic.w	r1, r1, #2031616	@ 0x1f0000
 8003078:	e655      	b.n	8002d26 <HAL_RCCEx_PeriphCLKConfig+0xde>
 800307a:	4e49      	ldr	r6, [pc, #292]	@ (80031a0 <HAL_RCCEx_PeriphCLKConfig+0x558>)
 800307c:	6833      	ldr	r3, [r6, #0]
 800307e:	f023 6380 	bic.w	r3, r3, #67108864	@ 0x4000000
 8003082:	6033      	str	r3, [r6, #0]
 8003084:	f7fe ff44 	bl	8001f10 <HAL_GetTick>
 8003088:	4607      	mov	r7, r0
 800308a:	6833      	ldr	r3, [r6, #0]
 800308c:	011b      	lsls	r3, r3, #4
 800308e:	d472      	bmi.n	8003176 <HAL_RCCEx_PeriphCLKConfig+0x52e>
 8003090:	6822      	ldr	r2, [r4, #0]
 8003092:	07d7      	lsls	r7, r2, #31
 8003094:	d512      	bpl.n	80030bc <HAL_RCCEx_PeriphCLKConfig+0x474>
 8003096:	6b63      	ldr	r3, [r4, #52]	@ 0x34
 8003098:	b983      	cbnz	r3, 80030bc <HAL_RCCEx_PeriphCLKConfig+0x474>
 800309a:	f8d6 3084 	ldr.w	r3, [r6, #132]	@ 0x84
 800309e:	f8d6 1084 	ldr.w	r1, [r6, #132]	@ 0x84
 80030a2:	f403 3340 	and.w	r3, r3, #196608	@ 0x30000
 80030a6:	f001 6170 	and.w	r1, r1, #251658240	@ 0xf000000
 80030aa:	430b      	orrs	r3, r1
 80030ac:	6861      	ldr	r1, [r4, #4]
 80030ae:	ea43 1381 	orr.w	r3, r3, r1, lsl #6
 80030b2:	68a1      	ldr	r1, [r4, #8]
 80030b4:	ea43 7301 	orr.w	r3, r3, r1, lsl #28
 80030b8:	f8c6 3084 	str.w	r3, [r6, #132]	@ 0x84
 80030bc:	0316      	lsls	r6, r2, #12
 80030be:	d503      	bpl.n	80030c8 <HAL_RCCEx_PeriphCLKConfig+0x480>
 80030c0:	6be3      	ldr	r3, [r4, #60]	@ 0x3c
 80030c2:	f5b3 1f80 	cmp.w	r3, #1048576	@ 0x100000
 80030c6:	d005      	beq.n	80030d4 <HAL_RCCEx_PeriphCLKConfig+0x48c>
 80030c8:	02d0      	lsls	r0, r2, #11
 80030ca:	d51e      	bpl.n	800310a <HAL_RCCEx_PeriphCLKConfig+0x4c2>
 80030cc:	6c23      	ldr	r3, [r4, #64]	@ 0x40
 80030ce:	f5b3 0f80 	cmp.w	r3, #4194304	@ 0x400000
 80030d2:	d11a      	bne.n	800310a <HAL_RCCEx_PeriphCLKConfig+0x4c2>
 80030d4:	4932      	ldr	r1, [pc, #200]	@ (80031a0 <HAL_RCCEx_PeriphCLKConfig+0x558>)
 80030d6:	f8d1 3084 	ldr.w	r3, [r1, #132]	@ 0x84
 80030da:	f8d1 0084 	ldr.w	r0, [r1, #132]	@ 0x84
 80030de:	f403 3340 	and.w	r3, r3, #196608	@ 0x30000
 80030e2:	f000 40e0 	and.w	r0, r0, #1879048192	@ 0x70000000
 80030e6:	4303      	orrs	r3, r0
 80030e8:	6860      	ldr	r0, [r4, #4]
 80030ea:	ea43 1380 	orr.w	r3, r3, r0, lsl #6
 80030ee:	68e0      	ldr	r0, [r4, #12]
 80030f0:	ea43 6300 	orr.w	r3, r3, r0, lsl #24
 80030f4:	f8c1 3084 	str.w	r3, [r1, #132]	@ 0x84
 80030f8:	f8d1 008c 	ldr.w	r0, [r1, #140]	@ 0x8c
 80030fc:	6a63      	ldr	r3, [r4, #36]	@ 0x24
 80030fe:	f020 001f 	bic.w	r0, r0, #31
 8003102:	3b01      	subs	r3, #1
 8003104:	4303      	orrs	r3, r0
 8003106:	f8c1 308c 	str.w	r3, [r1, #140]	@ 0x8c
 800310a:	01d1      	lsls	r1, r2, #7
 800310c:	d511      	bpl.n	8003132 <HAL_RCCEx_PeriphCLKConfig+0x4ea>
 800310e:	4924      	ldr	r1, [pc, #144]	@ (80031a0 <HAL_RCCEx_PeriphCLKConfig+0x558>)
 8003110:	f8d1 3084 	ldr.w	r3, [r1, #132]	@ 0x84
 8003114:	f8d1 0084 	ldr.w	r0, [r1, #132]	@ 0x84
 8003118:	f003 6370 	and.w	r3, r3, #251658240	@ 0xf000000
 800311c:	f000 40e0 	and.w	r0, r0, #1879048192	@ 0x70000000
 8003120:	4303      	orrs	r3, r0
 8003122:	6860      	ldr	r0, [r4, #4]
 8003124:	ea43 1380 	orr.w	r3, r3, r0, lsl #6
 8003128:	6920      	ldr	r0, [r4, #16]
 800312a:	ea43 4300 	orr.w	r3, r3, r0, lsl #16
 800312e:	f8c1 3084 	str.w	r3, [r1, #132]	@ 0x84
 8003132:	0192      	lsls	r2, r2, #6
 8003134:	d50d      	bpl.n	8003152 <HAL_RCCEx_PeriphCLKConfig+0x50a>
 8003136:	6923      	ldr	r3, [r4, #16]
 8003138:	6862      	ldr	r2, [r4, #4]
 800313a:	041b      	lsls	r3, r3, #16
 800313c:	ea43 1382 	orr.w	r3, r3, r2, lsl #6
 8003140:	68e2      	ldr	r2, [r4, #12]
 8003142:	ea43 6302 	orr.w	r3, r3, r2, lsl #24
 8003146:	68a2      	ldr	r2, [r4, #8]
 8003148:	ea43 7302 	orr.w	r3, r3, r2, lsl #28
 800314c:	4a14      	ldr	r2, [pc, #80]	@ (80031a0 <HAL_RCCEx_PeriphCLKConfig+0x558>)
 800314e:	f8c2 3084 	str.w	r3, [r2, #132]	@ 0x84
 8003152:	4e13      	ldr	r6, [pc, #76]	@ (80031a0 <HAL_RCCEx_PeriphCLKConfig+0x558>)
 8003154:	6833      	ldr	r3, [r6, #0]
 8003156:	f043 6380 	orr.w	r3, r3, #67108864	@ 0x4000000
 800315a:	6033      	str	r3, [r6, #0]
 800315c:	f7fe fed8 	bl	8001f10 <HAL_GetTick>
 8003160:	4607      	mov	r7, r0
 8003162:	6833      	ldr	r3, [r6, #0]
 8003164:	011b      	lsls	r3, r3, #4
 8003166:	f53f aedd 	bmi.w	8002f24 <HAL_RCCEx_PeriphCLKConfig+0x2dc>
 800316a:	f7fe fed1 	bl	8001f10 <HAL_GetTick>
 800316e:	1bc0      	subs	r0, r0, r7
 8003170:	2864      	cmp	r0, #100	@ 0x64
 8003172:	d9f6      	bls.n	8003162 <HAL_RCCEx_PeriphCLKConfig+0x51a>
 8003174:	e754      	b.n	8003020 <HAL_RCCEx_PeriphCLKConfig+0x3d8>
 8003176:	f7fe fecb 	bl	8001f10 <HAL_GetTick>
 800317a:	1bc0      	subs	r0, r0, r7
 800317c:	2864      	cmp	r0, #100	@ 0x64
 800317e:	d984      	bls.n	800308a <HAL_RCCEx_PeriphCLKConfig+0x442>
 8003180:	e74e      	b.n	8003020 <HAL_RCCEx_PeriphCLKConfig+0x3d8>
 8003182:	f7fe fec5 	bl	8001f10 <HAL_GetTick>
 8003186:	1b80      	subs	r0, r0, r6
 8003188:	2864      	cmp	r0, #100	@ 0x64
 800318a:	f67f aed5 	bls.w	8002f38 <HAL_RCCEx_PeriphCLKConfig+0x2f0>
 800318e:	e747      	b.n	8003020 <HAL_RCCEx_PeriphCLKConfig+0x3d8>
 8003190:	f7fe febe 	bl	8001f10 <HAL_GetTick>
 8003194:	1b40      	subs	r0, r0, r5
 8003196:	2864      	cmp	r0, #100	@ 0x64
 8003198:	f67f af33 	bls.w	8003002 <HAL_RCCEx_PeriphCLKConfig+0x3ba>
 800319c:	e740      	b.n	8003020 <HAL_RCCEx_PeriphCLKConfig+0x3d8>
 800319e:	bf00      	nop
 80031a0:	40023800 	.word	0x40023800

080031a4 <TIM_OC1_SetConfig>:
 80031a4:	6a03      	ldr	r3, [r0, #32]
 80031a6:	6a02      	ldr	r2, [r0, #32]
 80031a8:	f023 0302 	bic.w	r3, r3, #2
 80031ac:	f022 0201 	bic.w	r2, r2, #1
 80031b0:	b570      	push	{r4, r5, r6, lr}
 80031b2:	6202      	str	r2, [r0, #32]
 80031b4:	6842      	ldr	r2, [r0, #4]
 80031b6:	6984      	ldr	r4, [r0, #24]
 80031b8:	680d      	ldr	r5, [r1, #0]
 80031ba:	f424 3480 	bic.w	r4, r4, #65536	@ 0x10000
 80031be:	f024 0473 	bic.w	r4, r4, #115	@ 0x73
 80031c2:	432c      	orrs	r4, r5
 80031c4:	688d      	ldr	r5, [r1, #8]
 80031c6:	432b      	orrs	r3, r5
 80031c8:	4d0e      	ldr	r5, [pc, #56]	@ (8003204 <TIM_OC1_SetConfig+0x60>)
 80031ca:	42a8      	cmp	r0, r5
 80031cc:	d002      	beq.n	80031d4 <TIM_OC1_SetConfig+0x30>
 80031ce:	4e0e      	ldr	r6, [pc, #56]	@ (8003208 <TIM_OC1_SetConfig+0x64>)
 80031d0:	42b0      	cmp	r0, r6
 80031d2:	d111      	bne.n	80031f8 <TIM_OC1_SetConfig+0x54>
 80031d4:	f023 0308 	bic.w	r3, r3, #8
 80031d8:	68ce      	ldr	r6, [r1, #12]
 80031da:	42a8      	cmp	r0, r5
 80031dc:	ea43 0306 	orr.w	r3, r3, r6
 80031e0:	f023 0304 	bic.w	r3, r3, #4
 80031e4:	d002      	beq.n	80031ec <TIM_OC1_SetConfig+0x48>
 80031e6:	4d08      	ldr	r5, [pc, #32]	@ (8003208 <TIM_OC1_SetConfig+0x64>)
 80031e8:	42a8      	cmp	r0, r5
 80031ea:	d105      	bne.n	80031f8 <TIM_OC1_SetConfig+0x54>
 80031ec:	f422 7240 	bic.w	r2, r2, #768	@ 0x300
 80031f0:	e9d1 5605 	ldrd	r5, r6, [r1, #20]
 80031f4:	4335      	orrs	r5, r6
 80031f6:	432a      	orrs	r2, r5
 80031f8:	6042      	str	r2, [r0, #4]
 80031fa:	684a      	ldr	r2, [r1, #4]
 80031fc:	6184      	str	r4, [r0, #24]
 80031fe:	6342      	str	r2, [r0, #52]	@ 0x34
 8003200:	6203      	str	r3, [r0, #32]
 8003202:	bd70      	pop	{r4, r5, r6, pc}
 8003204:	40010000 	.word	0x40010000
 8003208:	40010400 	.word	0x40010400

0800320c <TIM_OC3_SetConfig>:
 800320c:	6a03      	ldr	r3, [r0, #32]
 800320e:	6a02      	ldr	r2, [r0, #32]
 8003210:	f423 7300 	bic.w	r3, r3, #512	@ 0x200
 8003214:	f422 7280 	bic.w	r2, r2, #256	@ 0x100
 8003218:	b570      	push	{r4, r5, r6, lr}
 800321a:	6202      	str	r2, [r0, #32]
 800321c:	6842      	ldr	r2, [r0, #4]
 800321e:	69c4      	ldr	r4, [r0, #28]
 8003220:	680d      	ldr	r5, [r1, #0]
 8003222:	f424 3480 	bic.w	r4, r4, #65536	@ 0x10000
 8003226:	f024 0473 	bic.w	r4, r4, #115	@ 0x73
 800322a:	432c      	orrs	r4, r5
 800322c:	688d      	ldr	r5, [r1, #8]
 800322e:	ea43 2305 	orr.w	r3, r3, r5, lsl #8
 8003232:	4d11      	ldr	r5, [pc, #68]	@ (8003278 <TIM_OC3_SetConfig+0x6c>)
 8003234:	42a8      	cmp	r0, r5
 8003236:	d003      	beq.n	8003240 <TIM_OC3_SetConfig+0x34>
 8003238:	f505 6580 	add.w	r5, r5, #1024	@ 0x400
 800323c:	42a8      	cmp	r0, r5
 800323e:	d114      	bne.n	800326a <TIM_OC3_SetConfig+0x5e>
 8003240:	68cd      	ldr	r5, [r1, #12]
 8003242:	f423 6300 	bic.w	r3, r3, #2048	@ 0x800
 8003246:	ea43 2305 	orr.w	r3, r3, r5, lsl #8
 800324a:	4d0b      	ldr	r5, [pc, #44]	@ (8003278 <TIM_OC3_SetConfig+0x6c>)
 800324c:	42a8      	cmp	r0, r5
 800324e:	f423 6380 	bic.w	r3, r3, #1024	@ 0x400
 8003252:	d003      	beq.n	800325c <TIM_OC3_SetConfig+0x50>
 8003254:	f505 6580 	add.w	r5, r5, #1024	@ 0x400
 8003258:	42a8      	cmp	r0, r5
 800325a:	d106      	bne.n	800326a <TIM_OC3_SetConfig+0x5e>
 800325c:	f422 5240 	bic.w	r2, r2, #12288	@ 0x3000
 8003260:	e9d1 5605 	ldrd	r5, r6, [r1, #20]
 8003264:	4335      	orrs	r5, r6
 8003266:	ea42 1205 	orr.w	r2, r2, r5, lsl #4
 800326a:	6042      	str	r2, [r0, #4]
 800326c:	684a      	ldr	r2, [r1, #4]
 800326e:	61c4      	str	r4, [r0, #28]
 8003270:	63c2      	str	r2, [r0, #60]	@ 0x3c
 8003272:	6203      	str	r3, [r0, #32]
 8003274:	bd70      	pop	{r4, r5, r6, pc}
 8003276:	bf00      	nop
 8003278:	40010000 	.word	0x40010000

0800327c <TIM_OC4_SetConfig>:
 800327c:	6a02      	ldr	r2, [r0, #32]
 800327e:	6a03      	ldr	r3, [r0, #32]
 8003280:	f422 5200 	bic.w	r2, r2, #8192	@ 0x2000
 8003284:	f423 5380 	bic.w	r3, r3, #4096	@ 0x1000
 8003288:	b530      	push	{r4, r5, lr}
 800328a:	6203      	str	r3, [r0, #32]
 800328c:	6844      	ldr	r4, [r0, #4]
 800328e:	69c3      	ldr	r3, [r0, #28]
 8003290:	680d      	ldr	r5, [r1, #0]
 8003292:	f023 7380 	bic.w	r3, r3, #16777216	@ 0x1000000
 8003296:	f423 43e6 	bic.w	r3, r3, #29440	@ 0x7300
 800329a:	ea43 2305 	orr.w	r3, r3, r5, lsl #8
 800329e:	688d      	ldr	r5, [r1, #8]
 80032a0:	ea42 3205 	orr.w	r2, r2, r5, lsl #12
 80032a4:	4d08      	ldr	r5, [pc, #32]	@ (80032c8 <TIM_OC4_SetConfig+0x4c>)
 80032a6:	42a8      	cmp	r0, r5
 80032a8:	d003      	beq.n	80032b2 <TIM_OC4_SetConfig+0x36>
 80032aa:	f505 6580 	add.w	r5, r5, #1024	@ 0x400
 80032ae:	42a8      	cmp	r0, r5
 80032b0:	d104      	bne.n	80032bc <TIM_OC4_SetConfig+0x40>
 80032b2:	f424 4480 	bic.w	r4, r4, #16384	@ 0x4000
 80032b6:	694d      	ldr	r5, [r1, #20]
 80032b8:	ea44 1485 	orr.w	r4, r4, r5, lsl #6
 80032bc:	6044      	str	r4, [r0, #4]
 80032be:	61c3      	str	r3, [r0, #28]
 80032c0:	684b      	ldr	r3, [r1, #4]
 80032c2:	6403      	str	r3, [r0, #64]	@ 0x40
 80032c4:	6202      	str	r2, [r0, #32]
 80032c6:	bd30      	pop	{r4, r5, pc}
 80032c8:	40010000 	.word	0x40010000

080032cc <TIM_OC5_SetConfig>:
 80032cc:	6a02      	ldr	r2, [r0, #32]
 80032ce:	6a03      	ldr	r3, [r0, #32]
 80032d0:	f422 3200 	bic.w	r2, r2, #131072	@ 0x20000
 80032d4:	f423 3380 	bic.w	r3, r3, #65536	@ 0x10000
 80032d8:	b530      	push	{r4, r5, lr}
 80032da:	6203      	str	r3, [r0, #32]
 80032dc:	6844      	ldr	r4, [r0, #4]
 80032de:	6d43      	ldr	r3, [r0, #84]	@ 0x54
 80032e0:	680d      	ldr	r5, [r1, #0]
 80032e2:	f423 3380 	bic.w	r3, r3, #65536	@ 0x10000
 80032e6:	f023 0370 	bic.w	r3, r3, #112	@ 0x70
 80032ea:	432b      	orrs	r3, r5
 80032ec:	688d      	ldr	r5, [r1, #8]
 80032ee:	ea42 4205 	orr.w	r2, r2, r5, lsl #16
 80032f2:	4d09      	ldr	r5, [pc, #36]	@ (8003318 <TIM_OC5_SetConfig+0x4c>)
 80032f4:	42a8      	cmp	r0, r5
 80032f6:	d003      	beq.n	8003300 <TIM_OC5_SetConfig+0x34>
 80032f8:	f505 6580 	add.w	r5, r5, #1024	@ 0x400
 80032fc:	42a8      	cmp	r0, r5
 80032fe:	d104      	bne.n	800330a <TIM_OC5_SetConfig+0x3e>
 8003300:	f424 3480 	bic.w	r4, r4, #65536	@ 0x10000
 8003304:	694d      	ldr	r5, [r1, #20]
 8003306:	ea44 2405 	orr.w	r4, r4, r5, lsl #8
 800330a:	6044      	str	r4, [r0, #4]
 800330c:	6543      	str	r3, [r0, #84]	@ 0x54
 800330e:	684b      	ldr	r3, [r1, #4]
 8003310:	6583      	str	r3, [r0, #88]	@ 0x58
 8003312:	6202      	str	r2, [r0, #32]
 8003314:	bd30      	pop	{r4, r5, pc}
 8003316:	bf00      	nop
 8003318:	40010000 	.word	0x40010000

0800331c <TIM_OC6_SetConfig>:
 800331c:	6a02      	ldr	r2, [r0, #32]
 800331e:	6a03      	ldr	r3, [r0, #32]
 8003320:	f422 1200 	bic.w	r2, r2, #2097152	@ 0x200000
 8003324:	f423 1380 	bic.w	r3, r3, #1048576	@ 0x100000
 8003328:	b530      	push	{r4, r5, lr}
 800332a:	6203      	str	r3, [r0, #32]
 800332c:	6844      	ldr	r4, [r0, #4]
 800332e:	6d43      	ldr	r3, [r0, #84]	@ 0x54
 8003330:	680d      	ldr	r5, [r1, #0]
 8003332:	f023 7380 	bic.w	r3, r3, #16777216	@ 0x1000000
 8003336:	f423 43e0 	bic.w	r3, r3, #28672	@ 0x7000
 800333a:	ea43 2305 	orr.w	r3, r3, r5, lsl #8
 800333e:	688d      	ldr	r5, [r1, #8]
 8003340:	ea42 5205 	orr.w	r2, r2, r5, lsl #20
 8003344:	4d08      	ldr	r5, [pc, #32]	@ (8003368 <TIM_OC6_SetConfig+0x4c>)
 8003346:	42a8      	cmp	r0, r5
 8003348:	d003      	beq.n	8003352 <TIM_OC6_SetConfig+0x36>
 800334a:	f505 6580 	add.w	r5, r5, #1024	@ 0x400
 800334e:	42a8      	cmp	r0, r5
 8003350:	d104      	bne.n	800335c <TIM_OC6_SetConfig+0x40>
 8003352:	f424 2480 	bic.w	r4, r4, #262144	@ 0x40000
 8003356:	694d      	ldr	r5, [r1, #20]
 8003358:	ea44 2485 	orr.w	r4, r4, r5, lsl #10
 800335c:	6044      	str	r4, [r0, #4]
 800335e:	6543      	str	r3, [r0, #84]	@ 0x54
 8003360:	684b      	ldr	r3, [r1, #4]
 8003362:	65c3      	str	r3, [r0, #92]	@ 0x5c
 8003364:	6202      	str	r2, [r0, #32]
 8003366:	bd30      	pop	{r4, r5, pc}
 8003368:	40010000 	.word	0x40010000

0800336c <HAL_TIM_Base_Start>:
 800336c:	f890 303d 	ldrb.w	r3, [r0, #61]	@ 0x3d
 8003370:	2b01      	cmp	r3, #1
 8003372:	d12f      	bne.n	80033d4 <HAL_TIM_Base_Start+0x68>
 8003374:	2302      	movs	r3, #2
 8003376:	4a18      	ldr	r2, [pc, #96]	@ (80033d8 <HAL_TIM_Base_Start+0x6c>)
 8003378:	f880 303d 	strb.w	r3, [r0, #61]	@ 0x3d
 800337c:	6803      	ldr	r3, [r0, #0]
 800337e:	4293      	cmp	r3, r2
 8003380:	d01a      	beq.n	80033b8 <HAL_TIM_Base_Start+0x4c>
 8003382:	f1b3 4f80 	cmp.w	r3, #1073741824	@ 0x40000000
 8003386:	d017      	beq.n	80033b8 <HAL_TIM_Base_Start+0x4c>
 8003388:	f5a2 427c 	sub.w	r2, r2, #64512	@ 0xfc00
 800338c:	4293      	cmp	r3, r2
 800338e:	d013      	beq.n	80033b8 <HAL_TIM_Base_Start+0x4c>
 8003390:	f502 6280 	add.w	r2, r2, #1024	@ 0x400
 8003394:	4293      	cmp	r3, r2
 8003396:	d00f      	beq.n	80033b8 <HAL_TIM_Base_Start+0x4c>
 8003398:	f502 6280 	add.w	r2, r2, #1024	@ 0x400
 800339c:	4293      	cmp	r3, r2
 800339e:	d00b      	beq.n	80033b8 <HAL_TIM_Base_Start+0x4c>
 80033a0:	f502 4278 	add.w	r2, r2, #63488	@ 0xf800
 80033a4:	4293      	cmp	r3, r2
 80033a6:	d007      	beq.n	80033b8 <HAL_TIM_Base_Start+0x4c>
 80033a8:	f502 5270 	add.w	r2, r2, #15360	@ 0x3c00
 80033ac:	4293      	cmp	r3, r2
 80033ae:	d003      	beq.n	80033b8 <HAL_TIM_Base_Start+0x4c>
 80033b0:	f5a2 3294 	sub.w	r2, r2, #75776	@ 0x12800
 80033b4:	4293      	cmp	r3, r2
 80033b6:	d107      	bne.n	80033c8 <HAL_TIM_Base_Start+0x5c>
 80033b8:	6899      	ldr	r1, [r3, #8]
 80033ba:	4a08      	ldr	r2, [pc, #32]	@ (80033dc <HAL_TIM_Base_Start+0x70>)
 80033bc:	400a      	ands	r2, r1
 80033be:	2a06      	cmp	r2, #6
 80033c0:	d006      	beq.n	80033d0 <HAL_TIM_Base_Start+0x64>
 80033c2:	f5b2 3f80 	cmp.w	r2, #65536	@ 0x10000
 80033c6:	d003      	beq.n	80033d0 <HAL_TIM_Base_Start+0x64>
 80033c8:	681a      	ldr	r2, [r3, #0]
 80033ca:	f042 0201 	orr.w	r2, r2, #1
 80033ce:	601a      	str	r2, [r3, #0]
 80033d0:	2000      	movs	r0, #0
 80033d2:	4770      	bx	lr
 80033d4:	2001      	movs	r0, #1
 80033d6:	4770      	bx	lr
 80033d8:	40010000 	.word	0x40010000
 80033dc:	00010007 	.word	0x00010007

080033e0 <HAL_TIM_Base_Start_IT>:
 80033e0:	f890 303d 	ldrb.w	r3, [r0, #61]	@ 0x3d
 80033e4:	2b01      	cmp	r3, #1
 80033e6:	d133      	bne.n	8003450 <HAL_TIM_Base_Start_IT+0x70>
 80033e8:	2302      	movs	r3, #2
 80033ea:	f880 303d 	strb.w	r3, [r0, #61]	@ 0x3d
 80033ee:	6803      	ldr	r3, [r0, #0]
 80033f0:	68da      	ldr	r2, [r3, #12]
 80033f2:	f042 0201 	orr.w	r2, r2, #1
 80033f6:	60da      	str	r2, [r3, #12]
 80033f8:	4a16      	ldr	r2, [pc, #88]	@ (8003454 <HAL_TIM_Base_Start_IT+0x74>)
 80033fa:	4293      	cmp	r3, r2
 80033fc:	d01a      	beq.n	8003434 <HAL_TIM_Base_Start_IT+0x54>
 80033fe:	f1b3 4f80 	cmp.w	r3, #1073741824	@ 0x40000000
 8003402:	d017      	beq.n	8003434 <HAL_TIM_Base_Start_IT+0x54>
 8003404:	f5a2 427c 	sub.w	r2, r2, #64512	@ 0xfc00
 8003408:	4293      	cmp	r3, r2
 800340a:	d013      	beq.n	8003434 <HAL_TIM_Base_Start_IT+0x54>
 800340c:	f502 6280 	add.w	r2, r2, #1024	@ 0x400
 8003410:	4293      	cmp	r3, r2
 8003412:	d00f      	beq.n	8003434 <HAL_TIM_Base_Start_IT+0x54>
 8003414:	f502 6280 	add.w	r2, r2, #1024	@ 0x400
 8003418:	4293      	cmp	r3, r2
 800341a:	d00b      	beq.n	8003434 <HAL_TIM_Base_Start_IT+0x54>
 800341c:	f502 4278 	add.w	r2, r2, #63488	@ 0xf800
 8003420:	4293      	cmp	r3, r2
 8003422:	d007      	beq.n	8003434 <HAL_TIM_Base_Start_IT+0x54>
 8003424:	f502 5270 	add.w	r2, r2, #15360	@ 0x3c00
 8003428:	4293      	cmp	r3, r2
 800342a:	d003      	beq.n	8003434 <HAL_TIM_Base_Start_IT+0x54>
 800342c:	f5a2 3294 	sub.w	r2, r2, #75776	@ 0x12800
 8003430:	4293      	cmp	r3, r2
 8003432:	d107      	bne.n	8003444 <HAL_TIM_Base_Start_IT+0x64>
 8003434:	6899      	ldr	r1, [r3, #8]
 8003436:	4a08      	ldr	r2, [pc, #32]	@ (8003458 <HAL_TIM_Base_Start_IT+0x78>)
 8003438:	400a      	ands	r2, r1
 800343a:	2a06      	cmp	r2, #6
 800343c:	d006      	beq.n	800344c <HAL_TIM_Base_Start_IT+0x6c>
 800343e:	f5b2 3f80 	cmp.w	r2, #65536	@ 0x10000
 8003442:	d003      	beq.n	800344c <HAL_TIM_Base_Start_IT+0x6c>
 8003444:	681a      	ldr	r2, [r3, #0]
 8003446:	f042 0201 	orr.w	r2, r2, #1
 800344a:	601a      	str	r2, [r3, #0]
 800344c:	2000      	movs	r0, #0
 800344e:	4770      	bx	lr
 8003450:	2001      	movs	r0, #1
 8003452:	4770      	bx	lr
 8003454:	40010000 	.word	0x40010000
 8003458:	00010007 	.word	0x00010007

0800345c <HAL_TIM_Base_Stop_IT>:
 800345c:	6803      	ldr	r3, [r0, #0]
 800345e:	68da      	ldr	r2, [r3, #12]
 8003460:	f022 0201 	bic.w	r2, r2, #1
 8003464:	60da      	str	r2, [r3, #12]
 8003466:	f241 1211 	movw	r2, #4369	@ 0x1111
 800346a:	6a19      	ldr	r1, [r3, #32]
 800346c:	4211      	tst	r1, r2
 800346e:	d108      	bne.n	8003482 <HAL_TIM_Base_Stop_IT+0x26>
 8003470:	6a19      	ldr	r1, [r3, #32]
 8003472:	f240 4244 	movw	r2, #1092	@ 0x444
 8003476:	4211      	tst	r1, r2
 8003478:	d103      	bne.n	8003482 <HAL_TIM_Base_Stop_IT+0x26>
 800347a:	681a      	ldr	r2, [r3, #0]
 800347c:	f022 0201 	bic.w	r2, r2, #1
 8003480:	601a      	str	r2, [r3, #0]
 8003482:	2301      	movs	r3, #1
 8003484:	f880 303d 	strb.w	r3, [r0, #61]	@ 0x3d
 8003488:	2000      	movs	r0, #0
 800348a:	4770      	bx	lr

0800348c <HAL_TIM_IC_MspInit>:
 800348c:	4770      	bx	lr

0800348e <HAL_TIM_Encoder_Start>:
 800348e:	4603      	mov	r3, r0
 8003490:	b530      	push	{r4, r5, lr}
 8003492:	f890 003e 	ldrb.w	r0, [r0, #62]	@ 0x3e
 8003496:	f893 203f 	ldrb.w	r2, [r3, #63]	@ 0x3f
 800349a:	f893 5044 	ldrb.w	r5, [r3, #68]	@ 0x44
 800349e:	b2c0      	uxtb	r0, r0
 80034a0:	f893 4045 	ldrb.w	r4, [r3, #69]	@ 0x45
 80034a4:	b2d2      	uxtb	r2, r2
 80034a6:	b2ed      	uxtb	r5, r5
 80034a8:	b2e4      	uxtb	r4, r4
 80034aa:	b9c1      	cbnz	r1, 80034de <HAL_TIM_Encoder_Start+0x50>
 80034ac:	2801      	cmp	r0, #1
 80034ae:	d145      	bne.n	800353c <HAL_TIM_Encoder_Start+0xae>
 80034b0:	2d01      	cmp	r5, #1
 80034b2:	d113      	bne.n	80034dc <HAL_TIM_Encoder_Start+0x4e>
 80034b4:	2202      	movs	r2, #2
 80034b6:	f883 203e 	strb.w	r2, [r3, #62]	@ 0x3e
 80034ba:	f883 2044 	strb.w	r2, [r3, #68]	@ 0x44
 80034be:	681a      	ldr	r2, [r3, #0]
 80034c0:	6a11      	ldr	r1, [r2, #32]
 80034c2:	f021 0101 	bic.w	r1, r1, #1
 80034c6:	6211      	str	r1, [r2, #32]
 80034c8:	6a11      	ldr	r1, [r2, #32]
 80034ca:	f041 0101 	orr.w	r1, r1, #1
 80034ce:	6211      	str	r1, [r2, #32]
 80034d0:	2000      	movs	r0, #0
 80034d2:	681a      	ldr	r2, [r3, #0]
 80034d4:	6813      	ldr	r3, [r2, #0]
 80034d6:	f043 0301 	orr.w	r3, r3, #1
 80034da:	6013      	str	r3, [r2, #0]
 80034dc:	bd30      	pop	{r4, r5, pc}
 80034de:	2904      	cmp	r1, #4
 80034e0:	d111      	bne.n	8003506 <HAL_TIM_Encoder_Start+0x78>
 80034e2:	2a01      	cmp	r2, #1
 80034e4:	d12a      	bne.n	800353c <HAL_TIM_Encoder_Start+0xae>
 80034e6:	2c01      	cmp	r4, #1
 80034e8:	d128      	bne.n	800353c <HAL_TIM_Encoder_Start+0xae>
 80034ea:	2202      	movs	r2, #2
 80034ec:	f883 203f 	strb.w	r2, [r3, #63]	@ 0x3f
 80034f0:	f883 2045 	strb.w	r2, [r3, #69]	@ 0x45
 80034f4:	681a      	ldr	r2, [r3, #0]
 80034f6:	6a11      	ldr	r1, [r2, #32]
 80034f8:	f021 0110 	bic.w	r1, r1, #16
 80034fc:	6211      	str	r1, [r2, #32]
 80034fe:	6a11      	ldr	r1, [r2, #32]
 8003500:	f041 0110 	orr.w	r1, r1, #16
 8003504:	e7e3      	b.n	80034ce <HAL_TIM_Encoder_Start+0x40>
 8003506:	2801      	cmp	r0, #1
 8003508:	d118      	bne.n	800353c <HAL_TIM_Encoder_Start+0xae>
 800350a:	2a01      	cmp	r2, #1
 800350c:	d1e6      	bne.n	80034dc <HAL_TIM_Encoder_Start+0x4e>
 800350e:	2d01      	cmp	r5, #1
 8003510:	d1e4      	bne.n	80034dc <HAL_TIM_Encoder_Start+0x4e>
 8003512:	2c01      	cmp	r4, #1
 8003514:	d1e2      	bne.n	80034dc <HAL_TIM_Encoder_Start+0x4e>
 8003516:	2202      	movs	r2, #2
 8003518:	f883 203e 	strb.w	r2, [r3, #62]	@ 0x3e
 800351c:	f883 203f 	strb.w	r2, [r3, #63]	@ 0x3f
 8003520:	f883 2044 	strb.w	r2, [r3, #68]	@ 0x44
 8003524:	f883 2045 	strb.w	r2, [r3, #69]	@ 0x45
 8003528:	681a      	ldr	r2, [r3, #0]
 800352a:	6a11      	ldr	r1, [r2, #32]
 800352c:	f021 0101 	bic.w	r1, r1, #1
 8003530:	6211      	str	r1, [r2, #32]
 8003532:	6a11      	ldr	r1, [r2, #32]
 8003534:	f041 0101 	orr.w	r1, r1, #1
 8003538:	6211      	str	r1, [r2, #32]
 800353a:	e7dc      	b.n	80034f6 <HAL_TIM_Encoder_Start+0x68>
 800353c:	2001      	movs	r0, #1
 800353e:	e7cd      	b.n	80034dc <HAL_TIM_Encoder_Start+0x4e>

08003540 <HAL_TIM_Encoder_Stop>:
 8003540:	6803      	ldr	r3, [r0, #0]
 8003542:	b510      	push	{r4, lr}
 8003544:	b159      	cbz	r1, 800355e <HAL_TIM_Encoder_Stop+0x1e>
 8003546:	2904      	cmp	r1, #4
 8003548:	d005      	beq.n	8003556 <HAL_TIM_Encoder_Stop+0x16>
 800354a:	6a1a      	ldr	r2, [r3, #32]
 800354c:	f022 0201 	bic.w	r2, r2, #1
 8003550:	621a      	str	r2, [r3, #32]
 8003552:	6a1a      	ldr	r2, [r3, #32]
 8003554:	621a      	str	r2, [r3, #32]
 8003556:	6a1a      	ldr	r2, [r3, #32]
 8003558:	f022 0210 	bic.w	r2, r2, #16
 800355c:	e002      	b.n	8003564 <HAL_TIM_Encoder_Stop+0x24>
 800355e:	6a1a      	ldr	r2, [r3, #32]
 8003560:	f022 0201 	bic.w	r2, r2, #1
 8003564:	621a      	str	r2, [r3, #32]
 8003566:	6a1a      	ldr	r2, [r3, #32]
 8003568:	621a      	str	r2, [r3, #32]
 800356a:	f241 1211 	movw	r2, #4369	@ 0x1111
 800356e:	6a1c      	ldr	r4, [r3, #32]
 8003570:	4214      	tst	r4, r2
 8003572:	d108      	bne.n	8003586 <HAL_TIM_Encoder_Stop+0x46>
 8003574:	6a1c      	ldr	r4, [r3, #32]
 8003576:	f240 4244 	movw	r2, #1092	@ 0x444
 800357a:	4214      	tst	r4, r2
 800357c:	d103      	bne.n	8003586 <HAL_TIM_Encoder_Stop+0x46>
 800357e:	681a      	ldr	r2, [r3, #0]
 8003580:	f022 0201 	bic.w	r2, r2, #1
 8003584:	601a      	str	r2, [r3, #0]
 8003586:	2301      	movs	r3, #1
 8003588:	b131      	cbz	r1, 8003598 <HAL_TIM_Encoder_Stop+0x58>
 800358a:	2904      	cmp	r1, #4
 800358c:	d10a      	bne.n	80035a4 <HAL_TIM_Encoder_Stop+0x64>
 800358e:	f880 303f 	strb.w	r3, [r0, #63]	@ 0x3f
 8003592:	f880 3045 	strb.w	r3, [r0, #69]	@ 0x45
 8003596:	e003      	b.n	80035a0 <HAL_TIM_Encoder_Stop+0x60>
 8003598:	f880 303e 	strb.w	r3, [r0, #62]	@ 0x3e
 800359c:	f880 3044 	strb.w	r3, [r0, #68]	@ 0x44
 80035a0:	2000      	movs	r0, #0
 80035a2:	bd10      	pop	{r4, pc}
 80035a4:	f880 303e 	strb.w	r3, [r0, #62]	@ 0x3e
 80035a8:	f880 303f 	strb.w	r3, [r0, #63]	@ 0x3f
 80035ac:	f880 3044 	strb.w	r3, [r0, #68]	@ 0x44
 80035b0:	e7ef      	b.n	8003592 <HAL_TIM_Encoder_Stop+0x52>

080035b2 <HAL_TIM_OC_DelayElapsedCallback>:
 80035b2:	4770      	bx	lr

080035b4 <HAL_TIM_IC_CaptureCallback>:
 80035b4:	4770      	bx	lr

080035b6 <HAL_TIM_PWM_PulseFinishedCallback>:
 80035b6:	4770      	bx	lr

080035b8 <HAL_TIM_TriggerCallback>:
 80035b8:	4770      	bx	lr

080035ba <HAL_TIM_IRQHandler>:
 80035ba:	6803      	ldr	r3, [r0, #0]
 80035bc:	b570      	push	{r4, r5, r6, lr}
 80035be:	68dd      	ldr	r5, [r3, #12]
 80035c0:	4604      	mov	r4, r0
 80035c2:	691e      	ldr	r6, [r3, #16]
 80035c4:	07b2      	lsls	r2, r6, #30
 80035c6:	d50d      	bpl.n	80035e4 <HAL_TIM_IRQHandler+0x2a>
 80035c8:	07a9      	lsls	r1, r5, #30
 80035ca:	d50b      	bpl.n	80035e4 <HAL_TIM_IRQHandler+0x2a>
 80035cc:	f06f 0202 	mvn.w	r2, #2
 80035d0:	611a      	str	r2, [r3, #16]
 80035d2:	2201      	movs	r2, #1
 80035d4:	7702      	strb	r2, [r0, #28]
 80035d6:	699b      	ldr	r3, [r3, #24]
 80035d8:	079a      	lsls	r2, r3, #30
 80035da:	d075      	beq.n	80036c8 <HAL_TIM_IRQHandler+0x10e>
 80035dc:	f7ff ffea 	bl	80035b4 <HAL_TIM_IC_CaptureCallback>
 80035e0:	2300      	movs	r3, #0
 80035e2:	7723      	strb	r3, [r4, #28]
 80035e4:	0773      	lsls	r3, r6, #29
 80035e6:	d510      	bpl.n	800360a <HAL_TIM_IRQHandler+0x50>
 80035e8:	0768      	lsls	r0, r5, #29
 80035ea:	d50e      	bpl.n	800360a <HAL_TIM_IRQHandler+0x50>
 80035ec:	6823      	ldr	r3, [r4, #0]
 80035ee:	f06f 0204 	mvn.w	r2, #4
 80035f2:	4620      	mov	r0, r4
 80035f4:	611a      	str	r2, [r3, #16]
 80035f6:	2202      	movs	r2, #2
 80035f8:	7722      	strb	r2, [r4, #28]
 80035fa:	699b      	ldr	r3, [r3, #24]
 80035fc:	f413 7f40 	tst.w	r3, #768	@ 0x300
 8003600:	d068      	beq.n	80036d4 <HAL_TIM_IRQHandler+0x11a>
 8003602:	f7ff ffd7 	bl	80035b4 <HAL_TIM_IC_CaptureCallback>
 8003606:	2300      	movs	r3, #0
 8003608:	7723      	strb	r3, [r4, #28]
 800360a:	0731      	lsls	r1, r6, #28
 800360c:	d50f      	bpl.n	800362e <HAL_TIM_IRQHandler+0x74>
 800360e:	072a      	lsls	r2, r5, #28
 8003610:	d50d      	bpl.n	800362e <HAL_TIM_IRQHandler+0x74>
 8003612:	6823      	ldr	r3, [r4, #0]
 8003614:	f06f 0208 	mvn.w	r2, #8
 8003618:	4620      	mov	r0, r4
 800361a:	611a      	str	r2, [r3, #16]
 800361c:	2204      	movs	r2, #4
 800361e:	7722      	strb	r2, [r4, #28]
 8003620:	69db      	ldr	r3, [r3, #28]
 8003622:	079b      	lsls	r3, r3, #30
 8003624:	d05c      	beq.n	80036e0 <HAL_TIM_IRQHandler+0x126>
 8003626:	f7ff ffc5 	bl	80035b4 <HAL_TIM_IC_CaptureCallback>
 800362a:	2300      	movs	r3, #0
 800362c:	7723      	strb	r3, [r4, #28]
 800362e:	06f1      	lsls	r1, r6, #27
 8003630:	d510      	bpl.n	8003654 <HAL_TIM_IRQHandler+0x9a>
 8003632:	06ea      	lsls	r2, r5, #27
 8003634:	d50e      	bpl.n	8003654 <HAL_TIM_IRQHandler+0x9a>
 8003636:	6823      	ldr	r3, [r4, #0]
 8003638:	f06f 0210 	mvn.w	r2, #16
 800363c:	4620      	mov	r0, r4
 800363e:	611a      	str	r2, [r3, #16]
 8003640:	2208      	movs	r2, #8
 8003642:	7722      	strb	r2, [r4, #28]
 8003644:	69db      	ldr	r3, [r3, #28]
 8003646:	f413 7f40 	tst.w	r3, #768	@ 0x300
 800364a:	d04f      	beq.n	80036ec <HAL_TIM_IRQHandler+0x132>
 800364c:	f7ff ffb2 	bl	80035b4 <HAL_TIM_IC_CaptureCallback>
 8003650:	2300      	movs	r3, #0
 8003652:	7723      	strb	r3, [r4, #28]
 8003654:	07f3      	lsls	r3, r6, #31
 8003656:	d508      	bpl.n	800366a <HAL_TIM_IRQHandler+0xb0>
 8003658:	07e8      	lsls	r0, r5, #31
 800365a:	d506      	bpl.n	800366a <HAL_TIM_IRQHandler+0xb0>
 800365c:	6823      	ldr	r3, [r4, #0]
 800365e:	f06f 0201 	mvn.w	r2, #1
 8003662:	4620      	mov	r0, r4
 8003664:	611a      	str	r2, [r3, #16]
 8003666:	f7fd fc5b 	bl	8000f20 <HAL_TIM_PeriodElapsedCallback>
 800366a:	f416 5f02 	tst.w	r6, #8320	@ 0x2080
 800366e:	d008      	beq.n	8003682 <HAL_TIM_IRQHandler+0xc8>
 8003670:	0629      	lsls	r1, r5, #24
 8003672:	d506      	bpl.n	8003682 <HAL_TIM_IRQHandler+0xc8>
 8003674:	6823      	ldr	r3, [r4, #0]
 8003676:	f46f 5202 	mvn.w	r2, #8320	@ 0x2080
 800367a:	4620      	mov	r0, r4
 800367c:	611a      	str	r2, [r3, #16]
 800367e:	f000 fcde 	bl	800403e <HAL_TIMEx_BreakCallback>
 8003682:	05f2      	lsls	r2, r6, #23
 8003684:	d508      	bpl.n	8003698 <HAL_TIM_IRQHandler+0xde>
 8003686:	062b      	lsls	r3, r5, #24
 8003688:	d506      	bpl.n	8003698 <HAL_TIM_IRQHandler+0xde>
 800368a:	6823      	ldr	r3, [r4, #0]
 800368c:	f46f 7280 	mvn.w	r2, #256	@ 0x100
 8003690:	4620      	mov	r0, r4
 8003692:	611a      	str	r2, [r3, #16]
 8003694:	f000 fcd4 	bl	8004040 <HAL_TIMEx_Break2Callback>
 8003698:	0670      	lsls	r0, r6, #25
 800369a:	d508      	bpl.n	80036ae <HAL_TIM_IRQHandler+0xf4>
 800369c:	0669      	lsls	r1, r5, #25
 800369e:	d506      	bpl.n	80036ae <HAL_TIM_IRQHandler+0xf4>
 80036a0:	6823      	ldr	r3, [r4, #0]
 80036a2:	f06f 0240 	mvn.w	r2, #64	@ 0x40
 80036a6:	4620      	mov	r0, r4
 80036a8:	611a      	str	r2, [r3, #16]
 80036aa:	f7ff ff85 	bl	80035b8 <HAL_TIM_TriggerCallback>
 80036ae:	06b2      	lsls	r2, r6, #26
 80036b0:	d522      	bpl.n	80036f8 <HAL_TIM_IRQHandler+0x13e>
 80036b2:	06ab      	lsls	r3, r5, #26
 80036b4:	d520      	bpl.n	80036f8 <HAL_TIM_IRQHandler+0x13e>
 80036b6:	6823      	ldr	r3, [r4, #0]
 80036b8:	f06f 0220 	mvn.w	r2, #32
 80036bc:	4620      	mov	r0, r4
 80036be:	611a      	str	r2, [r3, #16]
 80036c0:	e8bd 4070 	ldmia.w	sp!, {r4, r5, r6, lr}
 80036c4:	f000 bcba 	b.w	800403c <HAL_TIMEx_CommutCallback>
 80036c8:	f7ff ff73 	bl	80035b2 <HAL_TIM_OC_DelayElapsedCallback>
 80036cc:	4620      	mov	r0, r4
 80036ce:	f7ff ff72 	bl	80035b6 <HAL_TIM_PWM_PulseFinishedCallback>
 80036d2:	e785      	b.n	80035e0 <HAL_TIM_IRQHandler+0x26>
 80036d4:	f7ff ff6d 	bl	80035b2 <HAL_TIM_OC_DelayElapsedCallback>
 80036d8:	4620      	mov	r0, r4
 80036da:	f7ff ff6c 	bl	80035b6 <HAL_TIM_PWM_PulseFinishedCallback>
 80036de:	e792      	b.n	8003606 <HAL_TIM_IRQHandler+0x4c>
 80036e0:	f7ff ff67 	bl	80035b2 <HAL_TIM_OC_DelayElapsedCallback>
 80036e4:	4620      	mov	r0, r4
 80036e6:	f7ff ff66 	bl	80035b6 <HAL_TIM_PWM_PulseFinishedCallback>
 80036ea:	e79e      	b.n	800362a <HAL_TIM_IRQHandler+0x70>
 80036ec:	f7ff ff61 	bl	80035b2 <HAL_TIM_OC_DelayElapsedCallback>
 80036f0:	4620      	mov	r0, r4
 80036f2:	f7ff ff60 	bl	80035b6 <HAL_TIM_PWM_PulseFinishedCallback>
 80036f6:	e7ab      	b.n	8003650 <HAL_TIM_IRQHandler+0x96>
 80036f8:	bd70      	pop	{r4, r5, r6, pc}
	...

080036fc <TIM_Base_SetConfig>:
 80036fc:	4a33      	ldr	r2, [pc, #204]	@ (80037cc <TIM_Base_SetConfig+0xd0>)
 80036fe:	6803      	ldr	r3, [r0, #0]
 8003700:	4290      	cmp	r0, r2
 8003702:	d012      	beq.n	800372a <TIM_Base_SetConfig+0x2e>
 8003704:	f1b0 4f80 	cmp.w	r0, #1073741824	@ 0x40000000
 8003708:	d00f      	beq.n	800372a <TIM_Base_SetConfig+0x2e>
 800370a:	f5a2 427c 	sub.w	r2, r2, #64512	@ 0xfc00
 800370e:	4290      	cmp	r0, r2
 8003710:	d00b      	beq.n	800372a <TIM_Base_SetConfig+0x2e>
 8003712:	f502 6280 	add.w	r2, r2, #1024	@ 0x400
 8003716:	4290      	cmp	r0, r2
 8003718:	d007      	beq.n	800372a <TIM_Base_SetConfig+0x2e>
 800371a:	f502 6280 	add.w	r2, r2, #1024	@ 0x400
 800371e:	4290      	cmp	r0, r2
 8003720:	d003      	beq.n	800372a <TIM_Base_SetConfig+0x2e>
 8003722:	f502 4278 	add.w	r2, r2, #63488	@ 0xf800
 8003726:	4290      	cmp	r0, r2
 8003728:	d119      	bne.n	800375e <TIM_Base_SetConfig+0x62>
 800372a:	684a      	ldr	r2, [r1, #4]
 800372c:	f023 0370 	bic.w	r3, r3, #112	@ 0x70
 8003730:	4313      	orrs	r3, r2
 8003732:	4a26      	ldr	r2, [pc, #152]	@ (80037cc <TIM_Base_SetConfig+0xd0>)
 8003734:	4290      	cmp	r0, r2
 8003736:	d029      	beq.n	800378c <TIM_Base_SetConfig+0x90>
 8003738:	f1b0 4f80 	cmp.w	r0, #1073741824	@ 0x40000000
 800373c:	d026      	beq.n	800378c <TIM_Base_SetConfig+0x90>
 800373e:	f5a2 427c 	sub.w	r2, r2, #64512	@ 0xfc00
 8003742:	4290      	cmp	r0, r2
 8003744:	d022      	beq.n	800378c <TIM_Base_SetConfig+0x90>
 8003746:	f502 6280 	add.w	r2, r2, #1024	@ 0x400
 800374a:	4290      	cmp	r0, r2
 800374c:	d01e      	beq.n	800378c <TIM_Base_SetConfig+0x90>
 800374e:	f502 6280 	add.w	r2, r2, #1024	@ 0x400
 8003752:	4290      	cmp	r0, r2
 8003754:	d01a      	beq.n	800378c <TIM_Base_SetConfig+0x90>
 8003756:	f502 4278 	add.w	r2, r2, #63488	@ 0xf800
 800375a:	4290      	cmp	r0, r2
 800375c:	d016      	beq.n	800378c <TIM_Base_SetConfig+0x90>
 800375e:	4a1c      	ldr	r2, [pc, #112]	@ (80037d0 <TIM_Base_SetConfig+0xd4>)
 8003760:	4290      	cmp	r0, r2
 8003762:	d013      	beq.n	800378c <TIM_Base_SetConfig+0x90>
 8003764:	f502 6280 	add.w	r2, r2, #1024	@ 0x400
 8003768:	4290      	cmp	r0, r2
 800376a:	d00f      	beq.n	800378c <TIM_Base_SetConfig+0x90>
 800376c:	f502 6280 	add.w	r2, r2, #1024	@ 0x400
 8003770:	4290      	cmp	r0, r2
 8003772:	d00b      	beq.n	800378c <TIM_Base_SetConfig+0x90>
 8003774:	f5a2 3298 	sub.w	r2, r2, #77824	@ 0x13000
 8003778:	4290      	cmp	r0, r2
 800377a:	d007      	beq.n	800378c <TIM_Base_SetConfig+0x90>
 800377c:	f502 6280 	add.w	r2, r2, #1024	@ 0x400
 8003780:	4290      	cmp	r0, r2
 8003782:	d003      	beq.n	800378c <TIM_Base_SetConfig+0x90>
 8003784:	f502 6280 	add.w	r2, r2, #1024	@ 0x400
 8003788:	4290      	cmp	r0, r2
 800378a:	d103      	bne.n	8003794 <TIM_Base_SetConfig+0x98>
 800378c:	f423 7340 	bic.w	r3, r3, #768	@ 0x300
 8003790:	68ca      	ldr	r2, [r1, #12]
 8003792:	4313      	orrs	r3, r2
 8003794:	694a      	ldr	r2, [r1, #20]
 8003796:	f023 0380 	bic.w	r3, r3, #128	@ 0x80
 800379a:	4313      	orrs	r3, r2
 800379c:	6003      	str	r3, [r0, #0]
 800379e:	688b      	ldr	r3, [r1, #8]
 80037a0:	62c3      	str	r3, [r0, #44]	@ 0x2c
 80037a2:	680b      	ldr	r3, [r1, #0]
 80037a4:	6283      	str	r3, [r0, #40]	@ 0x28
 80037a6:	4b09      	ldr	r3, [pc, #36]	@ (80037cc <TIM_Base_SetConfig+0xd0>)
 80037a8:	4298      	cmp	r0, r3
 80037aa:	d003      	beq.n	80037b4 <TIM_Base_SetConfig+0xb8>
 80037ac:	f503 6380 	add.w	r3, r3, #1024	@ 0x400
 80037b0:	4298      	cmp	r0, r3
 80037b2:	d101      	bne.n	80037b8 <TIM_Base_SetConfig+0xbc>
 80037b4:	690b      	ldr	r3, [r1, #16]
 80037b6:	6303      	str	r3, [r0, #48]	@ 0x30
 80037b8:	2301      	movs	r3, #1
 80037ba:	6143      	str	r3, [r0, #20]
 80037bc:	6903      	ldr	r3, [r0, #16]
 80037be:	07db      	lsls	r3, r3, #31
 80037c0:	d503      	bpl.n	80037ca <TIM_Base_SetConfig+0xce>
 80037c2:	6903      	ldr	r3, [r0, #16]
 80037c4:	f023 0301 	bic.w	r3, r3, #1
 80037c8:	6103      	str	r3, [r0, #16]
 80037ca:	4770      	bx	lr
 80037cc:	40010000 	.word	0x40010000
 80037d0:	40014000 	.word	0x40014000

080037d4 <HAL_TIM_Base_Init>:
 80037d4:	b510      	push	{r4, lr}
 80037d6:	4604      	mov	r4, r0
 80037d8:	b350      	cbz	r0, 8003830 <HAL_TIM_Base_Init+0x5c>
 80037da:	f890 303d 	ldrb.w	r3, [r0, #61]	@ 0x3d
 80037de:	f003 02ff 	and.w	r2, r3, #255	@ 0xff
 80037e2:	b91b      	cbnz	r3, 80037ec <HAL_TIM_Base_Init+0x18>
 80037e4:	f880 203c 	strb.w	r2, [r0, #60]	@ 0x3c
 80037e8:	f7fe f84e 	bl	8001888 <HAL_TIM_Base_MspInit>
 80037ec:	2302      	movs	r3, #2
 80037ee:	6820      	ldr	r0, [r4, #0]
 80037f0:	1d21      	adds	r1, r4, #4
 80037f2:	f884 303d 	strb.w	r3, [r4, #61]	@ 0x3d
 80037f6:	f7ff ff81 	bl	80036fc <TIM_Base_SetConfig>
 80037fa:	2301      	movs	r3, #1
 80037fc:	2000      	movs	r0, #0
 80037fe:	f884 3048 	strb.w	r3, [r4, #72]	@ 0x48
 8003802:	f884 303e 	strb.w	r3, [r4, #62]	@ 0x3e
 8003806:	f884 303f 	strb.w	r3, [r4, #63]	@ 0x3f
 800380a:	f884 3040 	strb.w	r3, [r4, #64]	@ 0x40
 800380e:	f884 3041 	strb.w	r3, [r4, #65]	@ 0x41
 8003812:	f884 3042 	strb.w	r3, [r4, #66]	@ 0x42
 8003816:	f884 3043 	strb.w	r3, [r4, #67]	@ 0x43
 800381a:	f884 3044 	strb.w	r3, [r4, #68]	@ 0x44
 800381e:	f884 3045 	strb.w	r3, [r4, #69]	@ 0x45
 8003822:	f884 3046 	strb.w	r3, [r4, #70]	@ 0x46
 8003826:	f884 3047 	strb.w	r3, [r4, #71]	@ 0x47
 800382a:	f884 303d 	strb.w	r3, [r4, #61]	@ 0x3d
 800382e:	bd10      	pop	{r4, pc}
 8003830:	2001      	movs	r0, #1
 8003832:	e7fc      	b.n	800382e <HAL_TIM_Base_Init+0x5a>

08003834 <HAL_TIM_PWM_Init>:
 8003834:	b510      	push	{r4, lr}
 8003836:	4604      	mov	r4, r0
 8003838:	b350      	cbz	r0, 8003890 <HAL_TIM_PWM_Init+0x5c>
 800383a:	f890 303d 	ldrb.w	r3, [r0, #61]	@ 0x3d
 800383e:	f003 02ff 	and.w	r2, r3, #255	@ 0xff
 8003842:	b91b      	cbnz	r3, 800384c <HAL_TIM_PWM_Init+0x18>
 8003844:	f880 203c 	strb.w	r2, [r0, #60]	@ 0x3c
 8003848:	f7fd ffd2 	bl	80017f0 <HAL_TIM_PWM_MspInit>
 800384c:	2302      	movs	r3, #2
 800384e:	6820      	ldr	r0, [r4, #0]
 8003850:	1d21      	adds	r1, r4, #4
 8003852:	f884 303d 	strb.w	r3, [r4, #61]	@ 0x3d
 8003856:	f7ff ff51 	bl	80036fc <TIM_Base_SetConfig>
 800385a:	2301      	movs	r3, #1
 800385c:	2000      	movs	r0, #0
 800385e:	f884 3048 	strb.w	r3, [r4, #72]	@ 0x48
 8003862:	f884 303e 	strb.w	r3, [r4, #62]	@ 0x3e
 8003866:	f884 303f 	strb.w	r3, [r4, #63]	@ 0x3f
 800386a:	f884 3040 	strb.w	r3, [r4, #64]	@ 0x40
 800386e:	f884 3041 	strb.w	r3, [r4, #65]	@ 0x41
 8003872:	f884 3042 	strb.w	r3, [r4, #66]	@ 0x42
 8003876:	f884 3043 	strb.w	r3, [r4, #67]	@ 0x43
 800387a:	f884 3044 	strb.w	r3, [r4, #68]	@ 0x44
 800387e:	f884 3045 	strb.w	r3, [r4, #69]	@ 0x45
 8003882:	f884 3046 	strb.w	r3, [r4, #70]	@ 0x46
 8003886:	f884 3047 	strb.w	r3, [r4, #71]	@ 0x47
 800388a:	f884 303d 	strb.w	r3, [r4, #61]	@ 0x3d
 800388e:	bd10      	pop	{r4, pc}
 8003890:	2001      	movs	r0, #1
 8003892:	e7fc      	b.n	800388e <HAL_TIM_PWM_Init+0x5a>

08003894 <HAL_TIM_IC_Init>:
 8003894:	b510      	push	{r4, lr}
 8003896:	4604      	mov	r4, r0
 8003898:	b350      	cbz	r0, 80038f0 <HAL_TIM_IC_Init+0x5c>
 800389a:	f890 303d 	ldrb.w	r3, [r0, #61]	@ 0x3d
 800389e:	f003 02ff 	and.w	r2, r3, #255	@ 0xff
 80038a2:	b91b      	cbnz	r3, 80038ac <HAL_TIM_IC_Init+0x18>
 80038a4:	f880 203c 	strb.w	r2, [r0, #60]	@ 0x3c
 80038a8:	f7ff fdf0 	bl	800348c <HAL_TIM_IC_MspInit>
 80038ac:	2302      	movs	r3, #2
 80038ae:	6820      	ldr	r0, [r4, #0]
 80038b0:	1d21      	adds	r1, r4, #4
 80038b2:	f884 303d 	strb.w	r3, [r4, #61]	@ 0x3d
 80038b6:	f7ff ff21 	bl	80036fc <TIM_Base_SetConfig>
 80038ba:	2301      	movs	r3, #1
 80038bc:	2000      	movs	r0, #0
 80038be:	f884 3048 	strb.w	r3, [r4, #72]	@ 0x48
 80038c2:	f884 303e 	strb.w	r3, [r4, #62]	@ 0x3e
 80038c6:	f884 303f 	strb.w	r3, [r4, #63]	@ 0x3f
 80038ca:	f884 3040 	strb.w	r3, [r4, #64]	@ 0x40
 80038ce:	f884 3041 	strb.w	r3, [r4, #65]	@ 0x41
 80038d2:	f884 3042 	strb.w	r3, [r4, #66]	@ 0x42
 80038d6:	f884 3043 	strb.w	r3, [r4, #67]	@ 0x43
 80038da:	f884 3044 	strb.w	r3, [r4, #68]	@ 0x44
 80038de:	f884 3045 	strb.w	r3, [r4, #69]	@ 0x45
 80038e2:	f884 3046 	strb.w	r3, [r4, #70]	@ 0x46
 80038e6:	f884 3047 	strb.w	r3, [r4, #71]	@ 0x47
 80038ea:	f884 303d 	strb.w	r3, [r4, #61]	@ 0x3d
 80038ee:	bd10      	pop	{r4, pc}
 80038f0:	2001      	movs	r0, #1
 80038f2:	e7fc      	b.n	80038ee <HAL_TIM_IC_Init+0x5a>

080038f4 <HAL_TIM_Encoder_Init>:
 80038f4:	b5f8      	push	{r3, r4, r5, r6, r7, lr}
 80038f6:	460d      	mov	r5, r1
 80038f8:	4604      	mov	r4, r0
 80038fa:	2800      	cmp	r0, #0
 80038fc:	d04c      	beq.n	8003998 <HAL_TIM_Encoder_Init+0xa4>
 80038fe:	f890 303d 	ldrb.w	r3, [r0, #61]	@ 0x3d
 8003902:	f003 02ff 	and.w	r2, r3, #255	@ 0xff
 8003906:	b91b      	cbnz	r3, 8003910 <HAL_TIM_Encoder_Init+0x1c>
 8003908:	f880 203c 	strb.w	r2, [r0, #60]	@ 0x3c
 800390c:	f7fd fe70 	bl	80015f0 <HAL_TIM_Encoder_MspInit>
 8003910:	4621      	mov	r1, r4
 8003912:	2302      	movs	r3, #2
 8003914:	f884 303d 	strb.w	r3, [r4, #61]	@ 0x3d
 8003918:	f851 0b04 	ldr.w	r0, [r1], #4
 800391c:	6883      	ldr	r3, [r0, #8]
 800391e:	f423 33a0 	bic.w	r3, r3, #81920	@ 0x14000
 8003922:	f023 0307 	bic.w	r3, r3, #7
 8003926:	6083      	str	r3, [r0, #8]
 8003928:	f7ff fee8 	bl	80036fc <TIM_Base_SetConfig>
 800392c:	6881      	ldr	r1, [r0, #8]
 800392e:	682a      	ldr	r2, [r5, #0]
 8003930:	6983      	ldr	r3, [r0, #24]
 8003932:	69ae      	ldr	r6, [r5, #24]
 8003934:	4311      	orrs	r1, r2
 8003936:	f423 7340 	bic.w	r3, r3, #768	@ 0x300
 800393a:	68aa      	ldr	r2, [r5, #8]
 800393c:	6a07      	ldr	r7, [r0, #32]
 800393e:	f023 0303 	bic.w	r3, r3, #3
 8003942:	ea42 2206 	orr.w	r2, r2, r6, lsl #8
 8003946:	69ee      	ldr	r6, [r5, #28]
 8003948:	f027 07aa 	bic.w	r7, r7, #170	@ 0xaa
 800394c:	431a      	orrs	r2, r3
 800394e:	692b      	ldr	r3, [r5, #16]
 8003950:	011b      	lsls	r3, r3, #4
 8003952:	f422 427c 	bic.w	r2, r2, #64512	@ 0xfc00
 8003956:	ea43 2306 	orr.w	r3, r3, r6, lsl #8
 800395a:	68ee      	ldr	r6, [r5, #12]
 800395c:	f022 02fc 	bic.w	r2, r2, #252	@ 0xfc
 8003960:	4333      	orrs	r3, r6
 8003962:	6a2e      	ldr	r6, [r5, #32]
 8003964:	ea43 3306 	orr.w	r3, r3, r6, lsl #12
 8003968:	696e      	ldr	r6, [r5, #20]
 800396a:	4313      	orrs	r3, r2
 800396c:	686a      	ldr	r2, [r5, #4]
 800396e:	6081      	str	r1, [r0, #8]
 8003970:	ea42 1206 	orr.w	r2, r2, r6, lsl #4
 8003974:	6183      	str	r3, [r0, #24]
 8003976:	2301      	movs	r3, #1
 8003978:	4317      	orrs	r7, r2
 800397a:	6207      	str	r7, [r0, #32]
 800397c:	2000      	movs	r0, #0
 800397e:	f884 3048 	strb.w	r3, [r4, #72]	@ 0x48
 8003982:	f884 303e 	strb.w	r3, [r4, #62]	@ 0x3e
 8003986:	f884 303f 	strb.w	r3, [r4, #63]	@ 0x3f
 800398a:	f884 3044 	strb.w	r3, [r4, #68]	@ 0x44
 800398e:	f884 3045 	strb.w	r3, [r4, #69]	@ 0x45
 8003992:	f884 303d 	strb.w	r3, [r4, #61]	@ 0x3d
 8003996:	bdf8      	pop	{r3, r4, r5, r6, r7, pc}
 8003998:	2001      	movs	r0, #1
 800399a:	e7fc      	b.n	8003996 <HAL_TIM_Encoder_Init+0xa2>

0800399c <TIM_OC2_SetConfig>:
 800399c:	6a03      	ldr	r3, [r0, #32]
 800399e:	6a02      	ldr	r2, [r0, #32]
 80039a0:	f023 0320 	bic.w	r3, r3, #32
 80039a4:	f022 0210 	bic.w	r2, r2, #16
 80039a8:	b570      	push	{r4, r5, r6, lr}
 80039aa:	6202      	str	r2, [r0, #32]
 80039ac:	6842      	ldr	r2, [r0, #4]
 80039ae:	6984      	ldr	r4, [r0, #24]
 80039b0:	680d      	ldr	r5, [r1, #0]
 80039b2:	f024 7480 	bic.w	r4, r4, #16777216	@ 0x1000000
 80039b6:	f424 44e6 	bic.w	r4, r4, #29440	@ 0x7300
 80039ba:	ea44 2405 	orr.w	r4, r4, r5, lsl #8
 80039be:	688d      	ldr	r5, [r1, #8]
 80039c0:	ea43 1305 	orr.w	r3, r3, r5, lsl #4
 80039c4:	4d10      	ldr	r5, [pc, #64]	@ (8003a08 <TIM_OC2_SetConfig+0x6c>)
 80039c6:	42a8      	cmp	r0, r5
 80039c8:	d003      	beq.n	80039d2 <TIM_OC2_SetConfig+0x36>
 80039ca:	f505 6580 	add.w	r5, r5, #1024	@ 0x400
 80039ce:	42a8      	cmp	r0, r5
 80039d0:	d114      	bne.n	80039fc <TIM_OC2_SetConfig+0x60>
 80039d2:	68cd      	ldr	r5, [r1, #12]
 80039d4:	f023 0380 	bic.w	r3, r3, #128	@ 0x80
 80039d8:	ea43 1305 	orr.w	r3, r3, r5, lsl #4
 80039dc:	4d0a      	ldr	r5, [pc, #40]	@ (8003a08 <TIM_OC2_SetConfig+0x6c>)
 80039de:	42a8      	cmp	r0, r5
 80039e0:	f023 0340 	bic.w	r3, r3, #64	@ 0x40
 80039e4:	d003      	beq.n	80039ee <TIM_OC2_SetConfig+0x52>
 80039e6:	f505 6580 	add.w	r5, r5, #1024	@ 0x400
 80039ea:	42a8      	cmp	r0, r5
 80039ec:	d106      	bne.n	80039fc <TIM_OC2_SetConfig+0x60>
 80039ee:	f422 6240 	bic.w	r2, r2, #3072	@ 0xc00
 80039f2:	e9d1 5605 	ldrd	r5, r6, [r1, #20]
 80039f6:	4335      	orrs	r5, r6
 80039f8:	ea42 0285 	orr.w	r2, r2, r5, lsl #2
 80039fc:	6042      	str	r2, [r0, #4]
 80039fe:	684a      	ldr	r2, [r1, #4]
 8003a00:	6184      	str	r4, [r0, #24]
 8003a02:	6382      	str	r2, [r0, #56]	@ 0x38
 8003a04:	6203      	str	r3, [r0, #32]
 8003a06:	bd70      	pop	{r4, r5, r6, pc}
 8003a08:	40010000 	.word	0x40010000

08003a0c <HAL_TIM_PWM_ConfigChannel>:
 8003a0c:	b538      	push	{r3, r4, r5, lr}
 8003a0e:	f890 303c 	ldrb.w	r3, [r0, #60]	@ 0x3c
 8003a12:	4604      	mov	r4, r0
 8003a14:	2b01      	cmp	r3, #1
 8003a16:	d073      	beq.n	8003b00 <HAL_TIM_PWM_ConfigChannel+0xf4>
 8003a18:	2001      	movs	r0, #1
 8003a1a:	2a0c      	cmp	r2, #12
 8003a1c:	f884 003c 	strb.w	r0, [r4, #60]	@ 0x3c
 8003a20:	d04e      	beq.n	8003ac0 <HAL_TIM_PWM_ConfigChannel+0xb4>
 8003a22:	d808      	bhi.n	8003a36 <HAL_TIM_PWM_ConfigChannel+0x2a>
 8003a24:	2a04      	cmp	r2, #4
 8003a26:	d02b      	beq.n	8003a80 <HAL_TIM_PWM_ConfigChannel+0x74>
 8003a28:	2a08      	cmp	r2, #8
 8003a2a:	d039      	beq.n	8003aa0 <HAL_TIM_PWM_ConfigChannel+0x94>
 8003a2c:	b1ba      	cbz	r2, 8003a5e <HAL_TIM_PWM_ConfigChannel+0x52>
 8003a2e:	2300      	movs	r3, #0
 8003a30:	f884 303c 	strb.w	r3, [r4, #60]	@ 0x3c
 8003a34:	bd38      	pop	{r3, r4, r5, pc}
 8003a36:	2a10      	cmp	r2, #16
 8003a38:	d052      	beq.n	8003ae0 <HAL_TIM_PWM_ConfigChannel+0xd4>
 8003a3a:	2a14      	cmp	r2, #20
 8003a3c:	d1f7      	bne.n	8003a2e <HAL_TIM_PWM_ConfigChannel+0x22>
 8003a3e:	6820      	ldr	r0, [r4, #0]
 8003a40:	f7ff fc6c 	bl	800331c <TIM_OC6_SetConfig>
 8003a44:	690a      	ldr	r2, [r1, #16]
 8003a46:	6d43      	ldr	r3, [r0, #84]	@ 0x54
 8003a48:	f443 6300 	orr.w	r3, r3, #2048	@ 0x800
 8003a4c:	6543      	str	r3, [r0, #84]	@ 0x54
 8003a4e:	6d43      	ldr	r3, [r0, #84]	@ 0x54
 8003a50:	f423 6380 	bic.w	r3, r3, #1024	@ 0x400
 8003a54:	6543      	str	r3, [r0, #84]	@ 0x54
 8003a56:	6d43      	ldr	r3, [r0, #84]	@ 0x54
 8003a58:	ea43 2302 	orr.w	r3, r3, r2, lsl #8
 8003a5c:	e04e      	b.n	8003afc <HAL_TIM_PWM_ConfigChannel+0xf0>
 8003a5e:	6820      	ldr	r0, [r4, #0]
 8003a60:	f7ff fba0 	bl	80031a4 <TIM_OC1_SetConfig>
 8003a64:	690a      	ldr	r2, [r1, #16]
 8003a66:	6983      	ldr	r3, [r0, #24]
 8003a68:	f043 0308 	orr.w	r3, r3, #8
 8003a6c:	6183      	str	r3, [r0, #24]
 8003a6e:	6983      	ldr	r3, [r0, #24]
 8003a70:	f023 0304 	bic.w	r3, r3, #4
 8003a74:	6183      	str	r3, [r0, #24]
 8003a76:	6983      	ldr	r3, [r0, #24]
 8003a78:	4313      	orrs	r3, r2
 8003a7a:	6183      	str	r3, [r0, #24]
 8003a7c:	2000      	movs	r0, #0
 8003a7e:	e7d6      	b.n	8003a2e <HAL_TIM_PWM_ConfigChannel+0x22>
 8003a80:	6820      	ldr	r0, [r4, #0]
 8003a82:	f7ff ff8b 	bl	800399c <TIM_OC2_SetConfig>
 8003a86:	690a      	ldr	r2, [r1, #16]
 8003a88:	6983      	ldr	r3, [r0, #24]
 8003a8a:	f443 6300 	orr.w	r3, r3, #2048	@ 0x800
 8003a8e:	6183      	str	r3, [r0, #24]
 8003a90:	6983      	ldr	r3, [r0, #24]
 8003a92:	f423 6380 	bic.w	r3, r3, #1024	@ 0x400
 8003a96:	6183      	str	r3, [r0, #24]
 8003a98:	6983      	ldr	r3, [r0, #24]
 8003a9a:	ea43 2302 	orr.w	r3, r3, r2, lsl #8
 8003a9e:	e7ec      	b.n	8003a7a <HAL_TIM_PWM_ConfigChannel+0x6e>
 8003aa0:	6820      	ldr	r0, [r4, #0]
 8003aa2:	f7ff fbb3 	bl	800320c <TIM_OC3_SetConfig>
 8003aa6:	690a      	ldr	r2, [r1, #16]
 8003aa8:	69c3      	ldr	r3, [r0, #28]
 8003aaa:	f043 0308 	orr.w	r3, r3, #8
 8003aae:	61c3      	str	r3, [r0, #28]
 8003ab0:	69c3      	ldr	r3, [r0, #28]
 8003ab2:	f023 0304 	bic.w	r3, r3, #4
 8003ab6:	61c3      	str	r3, [r0, #28]
 8003ab8:	69c3      	ldr	r3, [r0, #28]
 8003aba:	4313      	orrs	r3, r2
 8003abc:	61c3      	str	r3, [r0, #28]
 8003abe:	e7dd      	b.n	8003a7c <HAL_TIM_PWM_ConfigChannel+0x70>
 8003ac0:	6820      	ldr	r0, [r4, #0]
 8003ac2:	f7ff fbdb 	bl	800327c <TIM_OC4_SetConfig>
 8003ac6:	690a      	ldr	r2, [r1, #16]
 8003ac8:	69c3      	ldr	r3, [r0, #28]
 8003aca:	f443 6300 	orr.w	r3, r3, #2048	@ 0x800
 8003ace:	61c3      	str	r3, [r0, #28]
 8003ad0:	69c3      	ldr	r3, [r0, #28]
 8003ad2:	f423 6380 	bic.w	r3, r3, #1024	@ 0x400
 8003ad6:	61c3      	str	r3, [r0, #28]
 8003ad8:	69c3      	ldr	r3, [r0, #28]
 8003ada:	ea43 2302 	orr.w	r3, r3, r2, lsl #8
 8003ade:	e7ed      	b.n	8003abc <HAL_TIM_PWM_ConfigChannel+0xb0>
 8003ae0:	6820      	ldr	r0, [r4, #0]
 8003ae2:	f7ff fbf3 	bl	80032cc <TIM_OC5_SetConfig>
 8003ae6:	690a      	ldr	r2, [r1, #16]
 8003ae8:	6d43      	ldr	r3, [r0, #84]	@ 0x54
 8003aea:	f043 0308 	orr.w	r3, r3, #8
 8003aee:	6543      	str	r3, [r0, #84]	@ 0x54
 8003af0:	6d43      	ldr	r3, [r0, #84]	@ 0x54
 8003af2:	f023 0304 	bic.w	r3, r3, #4
 8003af6:	6543      	str	r3, [r0, #84]	@ 0x54
 8003af8:	6d43      	ldr	r3, [r0, #84]	@ 0x54
 8003afa:	4313      	orrs	r3, r2
 8003afc:	6543      	str	r3, [r0, #84]	@ 0x54
 8003afe:	e7bd      	b.n	8003a7c <HAL_TIM_PWM_ConfigChannel+0x70>
 8003b00:	2002      	movs	r0, #2
 8003b02:	e797      	b.n	8003a34 <HAL_TIM_PWM_ConfigChannel+0x28>

08003b04 <TIM_TI1_SetConfig>:
 8003b04:	b570      	push	{r4, r5, r6, lr}
 8003b06:	6a05      	ldr	r5, [r0, #32]
 8003b08:	4e1a      	ldr	r6, [pc, #104]	@ (8003b74 <TIM_TI1_SetConfig+0x70>)
 8003b0a:	6a04      	ldr	r4, [r0, #32]
 8003b0c:	42b0      	cmp	r0, r6
 8003b0e:	f024 0401 	bic.w	r4, r4, #1
 8003b12:	6204      	str	r4, [r0, #32]
 8003b14:	6984      	ldr	r4, [r0, #24]
 8003b16:	d029      	beq.n	8003b6c <TIM_TI1_SetConfig+0x68>
 8003b18:	f1b0 4f80 	cmp.w	r0, #1073741824	@ 0x40000000
 8003b1c:	d026      	beq.n	8003b6c <TIM_TI1_SetConfig+0x68>
 8003b1e:	f5a6 467c 	sub.w	r6, r6, #64512	@ 0xfc00
 8003b22:	42b0      	cmp	r0, r6
 8003b24:	d022      	beq.n	8003b6c <TIM_TI1_SetConfig+0x68>
 8003b26:	f506 6680 	add.w	r6, r6, #1024	@ 0x400
 8003b2a:	42b0      	cmp	r0, r6
 8003b2c:	d01e      	beq.n	8003b6c <TIM_TI1_SetConfig+0x68>
 8003b2e:	f506 6680 	add.w	r6, r6, #1024	@ 0x400
 8003b32:	42b0      	cmp	r0, r6
 8003b34:	d01a      	beq.n	8003b6c <TIM_TI1_SetConfig+0x68>
 8003b36:	f506 4678 	add.w	r6, r6, #63488	@ 0xf800
 8003b3a:	42b0      	cmp	r0, r6
 8003b3c:	d016      	beq.n	8003b6c <TIM_TI1_SetConfig+0x68>
 8003b3e:	f506 5670 	add.w	r6, r6, #15360	@ 0x3c00
 8003b42:	42b0      	cmp	r0, r6
 8003b44:	d012      	beq.n	8003b6c <TIM_TI1_SetConfig+0x68>
 8003b46:	f5a6 3694 	sub.w	r6, r6, #75776	@ 0x12800
 8003b4a:	42b0      	cmp	r0, r6
 8003b4c:	d00e      	beq.n	8003b6c <TIM_TI1_SetConfig+0x68>
 8003b4e:	f044 0201 	orr.w	r2, r4, #1
 8003b52:	011b      	lsls	r3, r3, #4
 8003b54:	f022 02f0 	bic.w	r2, r2, #240	@ 0xf0
 8003b58:	f001 010a 	and.w	r1, r1, #10
 8003b5c:	b2db      	uxtb	r3, r3
 8003b5e:	4313      	orrs	r3, r2
 8003b60:	f025 020a 	bic.w	r2, r5, #10
 8003b64:	4311      	orrs	r1, r2
 8003b66:	6183      	str	r3, [r0, #24]
 8003b68:	6201      	str	r1, [r0, #32]
 8003b6a:	bd70      	pop	{r4, r5, r6, pc}
 8003b6c:	f024 0403 	bic.w	r4, r4, #3
 8003b70:	4322      	orrs	r2, r4
 8003b72:	e7ee      	b.n	8003b52 <TIM_TI1_SetConfig+0x4e>
 8003b74:	40010000 	.word	0x40010000

08003b78 <HAL_TIM_IC_ConfigChannel>:
 8003b78:	b5f8      	push	{r3, r4, r5, r6, r7, lr}
 8003b7a:	f890 303c 	ldrb.w	r3, [r0, #60]	@ 0x3c
 8003b7e:	4605      	mov	r5, r0
 8003b80:	460c      	mov	r4, r1
 8003b82:	2b01      	cmp	r3, #1
 8003b84:	f000 8089 	beq.w	8003c9a <HAL_TIM_IC_ConfigChannel+0x122>
 8003b88:	2001      	movs	r0, #1
 8003b8a:	f885 003c 	strb.w	r0, [r5, #60]	@ 0x3c
 8003b8e:	b992      	cbnz	r2, 8003bb6 <HAL_TIM_IC_ConfigChannel+0x3e>
 8003b90:	6828      	ldr	r0, [r5, #0]
 8003b92:	68cb      	ldr	r3, [r1, #12]
 8003b94:	e9d1 1200 	ldrd	r1, r2, [r1]
 8003b98:	f7ff ffb4 	bl	8003b04 <TIM_TI1_SetConfig>
 8003b9c:	6983      	ldr	r3, [r0, #24]
 8003b9e:	68a2      	ldr	r2, [r4, #8]
 8003ba0:	f023 030c 	bic.w	r3, r3, #12
 8003ba4:	6183      	str	r3, [r0, #24]
 8003ba6:	6983      	ldr	r3, [r0, #24]
 8003ba8:	4313      	orrs	r3, r2
 8003baa:	6183      	str	r3, [r0, #24]
 8003bac:	2000      	movs	r0, #0
 8003bae:	2300      	movs	r3, #0
 8003bb0:	f885 303c 	strb.w	r3, [r5, #60]	@ 0x3c
 8003bb4:	bdf8      	pop	{r3, r4, r5, r6, r7, pc}
 8003bb6:	2a04      	cmp	r2, #4
 8003bb8:	d124      	bne.n	8003c04 <HAL_TIM_IC_ConfigChannel+0x8c>
 8003bba:	682b      	ldr	r3, [r5, #0]
 8003bbc:	6a1e      	ldr	r6, [r3, #32]
 8003bbe:	6a18      	ldr	r0, [r3, #32]
 8003bc0:	f020 0010 	bic.w	r0, r0, #16
 8003bc4:	e9d1 2700 	ldrd	r2, r7, [r1]
 8003bc8:	68c9      	ldr	r1, [r1, #12]
 8003bca:	6218      	str	r0, [r3, #32]
 8003bcc:	0112      	lsls	r2, r2, #4
 8003bce:	6998      	ldr	r0, [r3, #24]
 8003bd0:	0309      	lsls	r1, r1, #12
 8003bd2:	f002 02a0 	and.w	r2, r2, #160	@ 0xa0
 8003bd6:	f420 7040 	bic.w	r0, r0, #768	@ 0x300
 8003bda:	b289      	uxth	r1, r1
 8003bdc:	ea40 2007 	orr.w	r0, r0, r7, lsl #8
 8003be0:	f420 4070 	bic.w	r0, r0, #61440	@ 0xf000
 8003be4:	4301      	orrs	r1, r0
 8003be6:	f026 00a0 	bic.w	r0, r6, #160	@ 0xa0
 8003bea:	4302      	orrs	r2, r0
 8003bec:	6199      	str	r1, [r3, #24]
 8003bee:	68a1      	ldr	r1, [r4, #8]
 8003bf0:	621a      	str	r2, [r3, #32]
 8003bf2:	699a      	ldr	r2, [r3, #24]
 8003bf4:	f422 6240 	bic.w	r2, r2, #3072	@ 0xc00
 8003bf8:	619a      	str	r2, [r3, #24]
 8003bfa:	699a      	ldr	r2, [r3, #24]
 8003bfc:	ea42 2201 	orr.w	r2, r2, r1, lsl #8
 8003c00:	619a      	str	r2, [r3, #24]
 8003c02:	e7d3      	b.n	8003bac <HAL_TIM_IC_ConfigChannel+0x34>
 8003c04:	2a08      	cmp	r2, #8
 8003c06:	d122      	bne.n	8003c4e <HAL_TIM_IC_ConfigChannel+0xd6>
 8003c08:	682b      	ldr	r3, [r5, #0]
 8003c0a:	6a1e      	ldr	r6, [r3, #32]
 8003c0c:	6a1f      	ldr	r7, [r3, #32]
 8003c0e:	f427 7780 	bic.w	r7, r7, #256	@ 0x100
 8003c12:	e9d1 2000 	ldrd	r2, r0, [r1]
 8003c16:	68c9      	ldr	r1, [r1, #12]
 8003c18:	621f      	str	r7, [r3, #32]
 8003c1a:	0212      	lsls	r2, r2, #8
 8003c1c:	69df      	ldr	r7, [r3, #28]
 8003c1e:	0109      	lsls	r1, r1, #4
 8003c20:	f402 6220 	and.w	r2, r2, #2560	@ 0xa00
 8003c24:	f027 0703 	bic.w	r7, r7, #3
 8003c28:	b2c9      	uxtb	r1, r1
 8003c2a:	4338      	orrs	r0, r7
 8003c2c:	f020 00f0 	bic.w	r0, r0, #240	@ 0xf0
 8003c30:	4301      	orrs	r1, r0
 8003c32:	f426 6020 	bic.w	r0, r6, #2560	@ 0xa00
 8003c36:	4302      	orrs	r2, r0
 8003c38:	61d9      	str	r1, [r3, #28]
 8003c3a:	68a1      	ldr	r1, [r4, #8]
 8003c3c:	621a      	str	r2, [r3, #32]
 8003c3e:	69da      	ldr	r2, [r3, #28]
 8003c40:	f022 020c 	bic.w	r2, r2, #12
 8003c44:	61da      	str	r2, [r3, #28]
 8003c46:	69da      	ldr	r2, [r3, #28]
 8003c48:	430a      	orrs	r2, r1
 8003c4a:	61da      	str	r2, [r3, #28]
 8003c4c:	e7ae      	b.n	8003bac <HAL_TIM_IC_ConfigChannel+0x34>
 8003c4e:	2a0c      	cmp	r2, #12
 8003c50:	d1ad      	bne.n	8003bae <HAL_TIM_IC_ConfigChannel+0x36>
 8003c52:	682b      	ldr	r3, [r5, #0]
 8003c54:	6a1e      	ldr	r6, [r3, #32]
 8003c56:	6a18      	ldr	r0, [r3, #32]
 8003c58:	f420 5080 	bic.w	r0, r0, #4096	@ 0x1000
 8003c5c:	e9d1 2700 	ldrd	r2, r7, [r1]
 8003c60:	68c9      	ldr	r1, [r1, #12]
 8003c62:	6218      	str	r0, [r3, #32]
 8003c64:	0312      	lsls	r2, r2, #12
 8003c66:	69d8      	ldr	r0, [r3, #28]
 8003c68:	0309      	lsls	r1, r1, #12
 8003c6a:	f402 4220 	and.w	r2, r2, #40960	@ 0xa000
 8003c6e:	f420 7040 	bic.w	r0, r0, #768	@ 0x300
 8003c72:	b289      	uxth	r1, r1
 8003c74:	ea40 2007 	orr.w	r0, r0, r7, lsl #8
 8003c78:	f420 4070 	bic.w	r0, r0, #61440	@ 0xf000
 8003c7c:	4301      	orrs	r1, r0
 8003c7e:	f426 4020 	bic.w	r0, r6, #40960	@ 0xa000
 8003c82:	4302      	orrs	r2, r0
 8003c84:	61d9      	str	r1, [r3, #28]
 8003c86:	68a1      	ldr	r1, [r4, #8]
 8003c88:	621a      	str	r2, [r3, #32]
 8003c8a:	69da      	ldr	r2, [r3, #28]
 8003c8c:	f422 6240 	bic.w	r2, r2, #3072	@ 0xc00
 8003c90:	61da      	str	r2, [r3, #28]
 8003c92:	69da      	ldr	r2, [r3, #28]
 8003c94:	ea42 2201 	orr.w	r2, r2, r1, lsl #8
 8003c98:	e7d7      	b.n	8003c4a <HAL_TIM_IC_ConfigChannel+0xd2>
 8003c9a:	2002      	movs	r0, #2
 8003c9c:	e78a      	b.n	8003bb4 <HAL_TIM_IC_ConfigChannel+0x3c>

08003c9e <TIM_ETR_SetConfig>:
 8003c9e:	430a      	orrs	r2, r1
 8003ca0:	b510      	push	{r4, lr}
 8003ca2:	6884      	ldr	r4, [r0, #8]
 8003ca4:	ea42 2203 	orr.w	r2, r2, r3, lsl #8
 8003ca8:	f424 447f 	bic.w	r4, r4, #65280	@ 0xff00
 8003cac:	4322      	orrs	r2, r4
 8003cae:	6082      	str	r2, [r0, #8]
 8003cb0:	bd10      	pop	{r4, pc}
	...

08003cb4 <HAL_TIM_ConfigClockSource>:
 8003cb4:	b538      	push	{r3, r4, r5, lr}
 8003cb6:	f890 303c 	ldrb.w	r3, [r0, #60]	@ 0x3c
 8003cba:	4604      	mov	r4, r0
 8003cbc:	2002      	movs	r0, #2
 8003cbe:	2b01      	cmp	r3, #1
 8003cc0:	f000 808c 	beq.w	8003ddc <HAL_TIM_ConfigClockSource+0x128>
 8003cc4:	f884 003d 	strb.w	r0, [r4, #61]	@ 0x3d
 8003cc8:	2201      	movs	r2, #1
 8003cca:	6820      	ldr	r0, [r4, #0]
 8003ccc:	f884 203c 	strb.w	r2, [r4, #60]	@ 0x3c
 8003cd0:	4b43      	ldr	r3, [pc, #268]	@ (8003de0 <HAL_TIM_ConfigClockSource+0x12c>)
 8003cd2:	6885      	ldr	r5, [r0, #8]
 8003cd4:	402b      	ands	r3, r5
 8003cd6:	6083      	str	r3, [r0, #8]
 8003cd8:	680b      	ldr	r3, [r1, #0]
 8003cda:	2b60      	cmp	r3, #96	@ 0x60
 8003cdc:	d04f      	beq.n	8003d7e <HAL_TIM_ConfigClockSource+0xca>
 8003cde:	d832      	bhi.n	8003d46 <HAL_TIM_ConfigClockSource+0x92>
 8003ce0:	2b40      	cmp	r3, #64	@ 0x40
 8003ce2:	d064      	beq.n	8003dae <HAL_TIM_ConfigClockSource+0xfa>
 8003ce4:	d816      	bhi.n	8003d14 <HAL_TIM_ConfigClockSource+0x60>
 8003ce6:	2b20      	cmp	r3, #32
 8003ce8:	d00d      	beq.n	8003d06 <HAL_TIM_ConfigClockSource+0x52>
 8003cea:	d80a      	bhi.n	8003d02 <HAL_TIM_ConfigClockSource+0x4e>
 8003cec:	f033 0110 	bics.w	r1, r3, #16
 8003cf0:	d009      	beq.n	8003d06 <HAL_TIM_ConfigClockSource+0x52>
 8003cf2:	2301      	movs	r3, #1
 8003cf4:	f884 303d 	strb.w	r3, [r4, #61]	@ 0x3d
 8003cf8:	2300      	movs	r3, #0
 8003cfa:	f884 303c 	strb.w	r3, [r4, #60]	@ 0x3c
 8003cfe:	4610      	mov	r0, r2
 8003d00:	bd38      	pop	{r3, r4, r5, pc}
 8003d02:	2b30      	cmp	r3, #48	@ 0x30
 8003d04:	d1f5      	bne.n	8003cf2 <HAL_TIM_ConfigClockSource+0x3e>
 8003d06:	6882      	ldr	r2, [r0, #8]
 8003d08:	f022 0270 	bic.w	r2, r2, #112	@ 0x70
 8003d0c:	4313      	orrs	r3, r2
 8003d0e:	f043 0307 	orr.w	r3, r3, #7
 8003d12:	e028      	b.n	8003d66 <HAL_TIM_ConfigClockSource+0xb2>
 8003d14:	2b50      	cmp	r3, #80	@ 0x50
 8003d16:	d1ec      	bne.n	8003cf2 <HAL_TIM_ConfigClockSource+0x3e>
 8003d18:	684a      	ldr	r2, [r1, #4]
 8003d1a:	68cd      	ldr	r5, [r1, #12]
 8003d1c:	6a01      	ldr	r1, [r0, #32]
 8003d1e:	6a03      	ldr	r3, [r0, #32]
 8003d20:	f021 010a 	bic.w	r1, r1, #10
 8003d24:	f023 0301 	bic.w	r3, r3, #1
 8003d28:	430a      	orrs	r2, r1
 8003d2a:	6203      	str	r3, [r0, #32]
 8003d2c:	6983      	ldr	r3, [r0, #24]
 8003d2e:	f023 03f0 	bic.w	r3, r3, #240	@ 0xf0
 8003d32:	ea43 1305 	orr.w	r3, r3, r5, lsl #4
 8003d36:	6183      	str	r3, [r0, #24]
 8003d38:	6202      	str	r2, [r0, #32]
 8003d3a:	6883      	ldr	r3, [r0, #8]
 8003d3c:	f023 0370 	bic.w	r3, r3, #112	@ 0x70
 8003d40:	f043 0357 	orr.w	r3, r3, #87	@ 0x57
 8003d44:	e00f      	b.n	8003d66 <HAL_TIM_ConfigClockSource+0xb2>
 8003d46:	f5b3 5f80 	cmp.w	r3, #4096	@ 0x1000
 8003d4a:	d00d      	beq.n	8003d68 <HAL_TIM_ConfigClockSource+0xb4>
 8003d4c:	f5b3 5f00 	cmp.w	r3, #8192	@ 0x2000
 8003d50:	d00c      	beq.n	8003d6c <HAL_TIM_ConfigClockSource+0xb8>
 8003d52:	2b70      	cmp	r3, #112	@ 0x70
 8003d54:	d1cd      	bne.n	8003cf2 <HAL_TIM_ConfigClockSource+0x3e>
 8003d56:	68cb      	ldr	r3, [r1, #12]
 8003d58:	e9d1 2101 	ldrd	r2, r1, [r1, #4]
 8003d5c:	f7ff ff9f 	bl	8003c9e <TIM_ETR_SetConfig>
 8003d60:	6883      	ldr	r3, [r0, #8]
 8003d62:	f043 0377 	orr.w	r3, r3, #119	@ 0x77
 8003d66:	6083      	str	r3, [r0, #8]
 8003d68:	2200      	movs	r2, #0
 8003d6a:	e7c2      	b.n	8003cf2 <HAL_TIM_ConfigClockSource+0x3e>
 8003d6c:	68cb      	ldr	r3, [r1, #12]
 8003d6e:	e9d1 2101 	ldrd	r2, r1, [r1, #4]
 8003d72:	f7ff ff94 	bl	8003c9e <TIM_ETR_SetConfig>
 8003d76:	6883      	ldr	r3, [r0, #8]
 8003d78:	f443 4380 	orr.w	r3, r3, #16384	@ 0x4000
 8003d7c:	e7f3      	b.n	8003d66 <HAL_TIM_ConfigClockSource+0xb2>
 8003d7e:	6a03      	ldr	r3, [r0, #32]
 8003d80:	6a02      	ldr	r2, [r0, #32]
 8003d82:	684d      	ldr	r5, [r1, #4]
 8003d84:	f023 03a0 	bic.w	r3, r3, #160	@ 0xa0
 8003d88:	f022 0210 	bic.w	r2, r2, #16
 8003d8c:	68c9      	ldr	r1, [r1, #12]
 8003d8e:	ea43 1305 	orr.w	r3, r3, r5, lsl #4
 8003d92:	6202      	str	r2, [r0, #32]
 8003d94:	6982      	ldr	r2, [r0, #24]
 8003d96:	f422 4270 	bic.w	r2, r2, #61440	@ 0xf000
 8003d9a:	ea42 3201 	orr.w	r2, r2, r1, lsl #12
 8003d9e:	6182      	str	r2, [r0, #24]
 8003da0:	6203      	str	r3, [r0, #32]
 8003da2:	6883      	ldr	r3, [r0, #8]
 8003da4:	f023 0370 	bic.w	r3, r3, #112	@ 0x70
 8003da8:	f043 0367 	orr.w	r3, r3, #103	@ 0x67
 8003dac:	e7db      	b.n	8003d66 <HAL_TIM_ConfigClockSource+0xb2>
 8003dae:	684a      	ldr	r2, [r1, #4]
 8003db0:	68cd      	ldr	r5, [r1, #12]
 8003db2:	6a01      	ldr	r1, [r0, #32]
 8003db4:	6a03      	ldr	r3, [r0, #32]
 8003db6:	f021 010a 	bic.w	r1, r1, #10
 8003dba:	f023 0301 	bic.w	r3, r3, #1
 8003dbe:	430a      	orrs	r2, r1
 8003dc0:	6203      	str	r3, [r0, #32]
 8003dc2:	6983      	ldr	r3, [r0, #24]
 8003dc4:	f023 03f0 	bic.w	r3, r3, #240	@ 0xf0
 8003dc8:	ea43 1305 	orr.w	r3, r3, r5, lsl #4
 8003dcc:	6183      	str	r3, [r0, #24]
 8003dce:	6202      	str	r2, [r0, #32]
 8003dd0:	6883      	ldr	r3, [r0, #8]
 8003dd2:	f023 0370 	bic.w	r3, r3, #112	@ 0x70
 8003dd6:	f043 0347 	orr.w	r3, r3, #71	@ 0x47
 8003dda:	e7c4      	b.n	8003d66 <HAL_TIM_ConfigClockSource+0xb2>
 8003ddc:	4602      	mov	r2, r0
 8003dde:	e78e      	b.n	8003cfe <HAL_TIM_ConfigClockSource+0x4a>
 8003de0:	fffe0088 	.word	0xfffe0088

08003de4 <TIM_CCxChannelCmd>:
 8003de4:	f001 011f 	and.w	r1, r1, #31
 8003de8:	6a03      	ldr	r3, [r0, #32]
 8003dea:	b510      	push	{r4, lr}
 8003dec:	2401      	movs	r4, #1
 8003dee:	408a      	lsls	r2, r1
 8003df0:	408c      	lsls	r4, r1
 8003df2:	ea23 0304 	bic.w	r3, r3, r4
 8003df6:	6203      	str	r3, [r0, #32]
 8003df8:	6a03      	ldr	r3, [r0, #32]
 8003dfa:	431a      	orrs	r2, r3
 8003dfc:	6202      	str	r2, [r0, #32]
 8003dfe:	bd10      	pop	{r4, pc}

08003e00 <HAL_TIM_OC_Start>:
 8003e00:	2908      	cmp	r1, #8
 8003e02:	b508      	push	{r3, lr}
 8003e04:	d018      	beq.n	8003e38 <HAL_TIM_OC_Start+0x38>
 8003e06:	d805      	bhi.n	8003e14 <HAL_TIM_OC_Start+0x14>
 8003e08:	b159      	cbz	r1, 8003e22 <HAL_TIM_OC_Start+0x22>
 8003e0a:	2904      	cmp	r1, #4
 8003e0c:	d011      	beq.n	8003e32 <HAL_TIM_OC_Start+0x32>
 8003e0e:	f890 3043 	ldrb.w	r3, [r0, #67]	@ 0x43
 8003e12:	e008      	b.n	8003e26 <HAL_TIM_OC_Start+0x26>
 8003e14:	290c      	cmp	r1, #12
 8003e16:	d012      	beq.n	8003e3e <HAL_TIM_OC_Start+0x3e>
 8003e18:	2910      	cmp	r1, #16
 8003e1a:	d1f8      	bne.n	8003e0e <HAL_TIM_OC_Start+0xe>
 8003e1c:	f890 3042 	ldrb.w	r3, [r0, #66]	@ 0x42
 8003e20:	e001      	b.n	8003e26 <HAL_TIM_OC_Start+0x26>
 8003e22:	f890 303e 	ldrb.w	r3, [r0, #62]	@ 0x3e
 8003e26:	3b01      	subs	r3, #1
 8003e28:	bf18      	it	ne
 8003e2a:	2301      	movne	r3, #1
 8003e2c:	b153      	cbz	r3, 8003e44 <HAL_TIM_OC_Start+0x44>
 8003e2e:	2001      	movs	r0, #1
 8003e30:	e030      	b.n	8003e94 <HAL_TIM_OC_Start+0x94>
 8003e32:	f890 303f 	ldrb.w	r3, [r0, #63]	@ 0x3f
 8003e36:	e7f6      	b.n	8003e26 <HAL_TIM_OC_Start+0x26>
 8003e38:	f890 3040 	ldrb.w	r3, [r0, #64]	@ 0x40
 8003e3c:	e7f3      	b.n	8003e26 <HAL_TIM_OC_Start+0x26>
 8003e3e:	f890 3041 	ldrb.w	r3, [r0, #65]	@ 0x41
 8003e42:	e7f0      	b.n	8003e26 <HAL_TIM_OC_Start+0x26>
 8003e44:	2908      	cmp	r1, #8
 8003e46:	f04f 0302 	mov.w	r3, #2
 8003e4a:	d027      	beq.n	8003e9c <HAL_TIM_OC_Start+0x9c>
 8003e4c:	d806      	bhi.n	8003e5c <HAL_TIM_OC_Start+0x5c>
 8003e4e:	b161      	cbz	r1, 8003e6a <HAL_TIM_OC_Start+0x6a>
 8003e50:	2904      	cmp	r1, #4
 8003e52:	d020      	beq.n	8003e96 <HAL_TIM_OC_Start+0x96>
 8003e54:	2302      	movs	r3, #2
 8003e56:	f880 3043 	strb.w	r3, [r0, #67]	@ 0x43
 8003e5a:	e008      	b.n	8003e6e <HAL_TIM_OC_Start+0x6e>
 8003e5c:	290c      	cmp	r1, #12
 8003e5e:	d020      	beq.n	8003ea2 <HAL_TIM_OC_Start+0xa2>
 8003e60:	2910      	cmp	r1, #16
 8003e62:	d1f7      	bne.n	8003e54 <HAL_TIM_OC_Start+0x54>
 8003e64:	f880 3042 	strb.w	r3, [r0, #66]	@ 0x42
 8003e68:	e001      	b.n	8003e6e <HAL_TIM_OC_Start+0x6e>
 8003e6a:	f880 303e 	strb.w	r3, [r0, #62]	@ 0x3e
 8003e6e:	6800      	ldr	r0, [r0, #0]
 8003e70:	2201      	movs	r2, #1
 8003e72:	f7ff ffb7 	bl	8003de4 <TIM_CCxChannelCmd>
 8003e76:	4a20      	ldr	r2, [pc, #128]	@ (8003ef8 <HAL_TIM_OC_Start+0xf8>)
 8003e78:	4290      	cmp	r0, r2
 8003e7a:	d015      	beq.n	8003ea8 <HAL_TIM_OC_Start+0xa8>
 8003e7c:	4b1f      	ldr	r3, [pc, #124]	@ (8003efc <HAL_TIM_OC_Start+0xfc>)
 8003e7e:	4298      	cmp	r0, r3
 8003e80:	d012      	beq.n	8003ea8 <HAL_TIM_OC_Start+0xa8>
 8003e82:	f1b0 4f80 	cmp.w	r0, #1073741824	@ 0x40000000
 8003e86:	d116      	bne.n	8003eb6 <HAL_TIM_OC_Start+0xb6>
 8003e88:	6882      	ldr	r2, [r0, #8]
 8003e8a:	4b1d      	ldr	r3, [pc, #116]	@ (8003f00 <HAL_TIM_OC_Start+0x100>)
 8003e8c:	4013      	ands	r3, r2
 8003e8e:	2b06      	cmp	r3, #6
 8003e90:	d12d      	bne.n	8003eee <HAL_TIM_OC_Start+0xee>
 8003e92:	2000      	movs	r0, #0
 8003e94:	bd08      	pop	{r3, pc}
 8003e96:	f880 303f 	strb.w	r3, [r0, #63]	@ 0x3f
 8003e9a:	e7e8      	b.n	8003e6e <HAL_TIM_OC_Start+0x6e>
 8003e9c:	f880 3040 	strb.w	r3, [r0, #64]	@ 0x40
 8003ea0:	e7e5      	b.n	8003e6e <HAL_TIM_OC_Start+0x6e>
 8003ea2:	f880 3041 	strb.w	r3, [r0, #65]	@ 0x41
 8003ea6:	e7e2      	b.n	8003e6e <HAL_TIM_OC_Start+0x6e>
 8003ea8:	6c43      	ldr	r3, [r0, #68]	@ 0x44
 8003eaa:	4290      	cmp	r0, r2
 8003eac:	f443 4300 	orr.w	r3, r3, #32768	@ 0x8000
 8003eb0:	6443      	str	r3, [r0, #68]	@ 0x44
 8003eb2:	d0e9      	beq.n	8003e88 <HAL_TIM_OC_Start+0x88>
 8003eb4:	e7e5      	b.n	8003e82 <HAL_TIM_OC_Start+0x82>
 8003eb6:	4b13      	ldr	r3, [pc, #76]	@ (8003f04 <HAL_TIM_OC_Start+0x104>)
 8003eb8:	4298      	cmp	r0, r3
 8003eba:	d0e5      	beq.n	8003e88 <HAL_TIM_OC_Start+0x88>
 8003ebc:	f503 6380 	add.w	r3, r3, #1024	@ 0x400
 8003ec0:	4298      	cmp	r0, r3
 8003ec2:	d0e1      	beq.n	8003e88 <HAL_TIM_OC_Start+0x88>
 8003ec4:	f503 6380 	add.w	r3, r3, #1024	@ 0x400
 8003ec8:	4298      	cmp	r0, r3
 8003eca:	d0dd      	beq.n	8003e88 <HAL_TIM_OC_Start+0x88>
 8003ecc:	f503 4378 	add.w	r3, r3, #63488	@ 0xf800
 8003ed0:	4298      	cmp	r0, r3
 8003ed2:	d0d9      	beq.n	8003e88 <HAL_TIM_OC_Start+0x88>
 8003ed4:	f503 5370 	add.w	r3, r3, #15360	@ 0x3c00
 8003ed8:	4298      	cmp	r0, r3
 8003eda:	d0d5      	beq.n	8003e88 <HAL_TIM_OC_Start+0x88>
 8003edc:	f5a3 3394 	sub.w	r3, r3, #75776	@ 0x12800
 8003ee0:	4298      	cmp	r0, r3
 8003ee2:	d0d1      	beq.n	8003e88 <HAL_TIM_OC_Start+0x88>
 8003ee4:	6803      	ldr	r3, [r0, #0]
 8003ee6:	f043 0301 	orr.w	r3, r3, #1
 8003eea:	6003      	str	r3, [r0, #0]
 8003eec:	e7d1      	b.n	8003e92 <HAL_TIM_OC_Start+0x92>
 8003eee:	f5b3 3f80 	cmp.w	r3, #65536	@ 0x10000
 8003ef2:	d1f7      	bne.n	8003ee4 <HAL_TIM_OC_Start+0xe4>
 8003ef4:	e7cd      	b.n	8003e92 <HAL_TIM_OC_Start+0x92>
 8003ef6:	bf00      	nop
 8003ef8:	40010000 	.word	0x40010000
 8003efc:	40010400 	.word	0x40010400
 8003f00:	00010007 	.word	0x00010007
 8003f04:	40000400 	.word	0x40000400

08003f08 <HAL_TIM_PWM_Start>:
 8003f08:	f7ff bf7a 	b.w	8003e00 <HAL_TIM_OC_Start>

08003f0c <HAL_TIM_OC_Stop>:
 8003f0c:	b538      	push	{r3, r4, r5, lr}
 8003f0e:	2200      	movs	r2, #0
 8003f10:	4604      	mov	r4, r0
 8003f12:	6800      	ldr	r0, [r0, #0]
 8003f14:	460d      	mov	r5, r1
 8003f16:	f7ff ff65 	bl	8003de4 <TIM_CCxChannelCmd>
 8003f1a:	4b21      	ldr	r3, [pc, #132]	@ (8003fa0 <HAL_TIM_OC_Stop+0x94>)
 8003f1c:	4298      	cmp	r0, r3
 8003f1e:	d003      	beq.n	8003f28 <HAL_TIM_OC_Stop+0x1c>
 8003f20:	f503 6380 	add.w	r3, r3, #1024	@ 0x400
 8003f24:	4298      	cmp	r0, r3
 8003f26:	d10d      	bne.n	8003f44 <HAL_TIM_OC_Stop+0x38>
 8003f28:	6a02      	ldr	r2, [r0, #32]
 8003f2a:	f241 1311 	movw	r3, #4369	@ 0x1111
 8003f2e:	421a      	tst	r2, r3
 8003f30:	d108      	bne.n	8003f44 <HAL_TIM_OC_Stop+0x38>
 8003f32:	6a02      	ldr	r2, [r0, #32]
 8003f34:	f240 4344 	movw	r3, #1092	@ 0x444
 8003f38:	421a      	tst	r2, r3
 8003f3a:	d103      	bne.n	8003f44 <HAL_TIM_OC_Stop+0x38>
 8003f3c:	6c43      	ldr	r3, [r0, #68]	@ 0x44
 8003f3e:	f423 4300 	bic.w	r3, r3, #32768	@ 0x8000
 8003f42:	6443      	str	r3, [r0, #68]	@ 0x44
 8003f44:	6a02      	ldr	r2, [r0, #32]
 8003f46:	f241 1311 	movw	r3, #4369	@ 0x1111
 8003f4a:	421a      	tst	r2, r3
 8003f4c:	d108      	bne.n	8003f60 <HAL_TIM_OC_Stop+0x54>
 8003f4e:	6a02      	ldr	r2, [r0, #32]
 8003f50:	f240 4344 	movw	r3, #1092	@ 0x444
 8003f54:	421a      	tst	r2, r3
 8003f56:	d103      	bne.n	8003f60 <HAL_TIM_OC_Stop+0x54>
 8003f58:	6803      	ldr	r3, [r0, #0]
 8003f5a:	f023 0301 	bic.w	r3, r3, #1
 8003f5e:	6003      	str	r3, [r0, #0]
 8003f60:	2301      	movs	r3, #1
 8003f62:	b91d      	cbnz	r5, 8003f6c <HAL_TIM_OC_Stop+0x60>
 8003f64:	f884 303e 	strb.w	r3, [r4, #62]	@ 0x3e
 8003f68:	2000      	movs	r0, #0
 8003f6a:	bd38      	pop	{r3, r4, r5, pc}
 8003f6c:	2d0c      	cmp	r5, #12
 8003f6e:	d013      	beq.n	8003f98 <HAL_TIM_OC_Stop+0x8c>
 8003f70:	d807      	bhi.n	8003f82 <HAL_TIM_OC_Stop+0x76>
 8003f72:	2d04      	cmp	r5, #4
 8003f74:	d00a      	beq.n	8003f8c <HAL_TIM_OC_Stop+0x80>
 8003f76:	2d08      	cmp	r5, #8
 8003f78:	d00b      	beq.n	8003f92 <HAL_TIM_OC_Stop+0x86>
 8003f7a:	2301      	movs	r3, #1
 8003f7c:	f884 3043 	strb.w	r3, [r4, #67]	@ 0x43
 8003f80:	e7f2      	b.n	8003f68 <HAL_TIM_OC_Stop+0x5c>
 8003f82:	2d10      	cmp	r5, #16
 8003f84:	d1f9      	bne.n	8003f7a <HAL_TIM_OC_Stop+0x6e>
 8003f86:	f884 3042 	strb.w	r3, [r4, #66]	@ 0x42
 8003f8a:	e7ed      	b.n	8003f68 <HAL_TIM_OC_Stop+0x5c>
 8003f8c:	f884 303f 	strb.w	r3, [r4, #63]	@ 0x3f
 8003f90:	e7ea      	b.n	8003f68 <HAL_TIM_OC_Stop+0x5c>
 8003f92:	f884 3040 	strb.w	r3, [r4, #64]	@ 0x40
 8003f96:	e7e7      	b.n	8003f68 <HAL_TIM_OC_Stop+0x5c>
 8003f98:	f884 3041 	strb.w	r3, [r4, #65]	@ 0x41
 8003f9c:	e7e4      	b.n	8003f68 <HAL_TIM_OC_Stop+0x5c>
 8003f9e:	bf00      	nop
 8003fa0:	40010000 	.word	0x40010000

08003fa4 <HAL_TIM_PWM_Stop>:
 8003fa4:	f7ff bfb2 	b.w	8003f0c <HAL_TIM_OC_Stop>

08003fa8 <HAL_TIMEx_MasterConfigSynchronization>:
 8003fa8:	b570      	push	{r4, r5, r6, lr}
 8003faa:	f890 303c 	ldrb.w	r3, [r0, #60]	@ 0x3c
 8003fae:	4604      	mov	r4, r0
 8003fb0:	2002      	movs	r0, #2
 8003fb2:	2b01      	cmp	r3, #1
 8003fb4:	d03b      	beq.n	800402e <HAL_TIMEx_MasterConfigSynchronization+0x86>
 8003fb6:	6823      	ldr	r3, [r4, #0]
 8003fb8:	4d1d      	ldr	r5, [pc, #116]	@ (8004030 <HAL_TIMEx_MasterConfigSynchronization+0x88>)
 8003fba:	f884 003d 	strb.w	r0, [r4, #61]	@ 0x3d
 8003fbe:	42ab      	cmp	r3, r5
 8003fc0:	685a      	ldr	r2, [r3, #4]
 8003fc2:	6898      	ldr	r0, [r3, #8]
 8003fc4:	d002      	beq.n	8003fcc <HAL_TIMEx_MasterConfigSynchronization+0x24>
 8003fc6:	4e1b      	ldr	r6, [pc, #108]	@ (8004034 <HAL_TIMEx_MasterConfigSynchronization+0x8c>)
 8003fc8:	42b3      	cmp	r3, r6
 8003fca:	d103      	bne.n	8003fd4 <HAL_TIMEx_MasterConfigSynchronization+0x2c>
 8003fcc:	f422 0270 	bic.w	r2, r2, #15728640	@ 0xf00000
 8003fd0:	684e      	ldr	r6, [r1, #4]
 8003fd2:	4332      	orrs	r2, r6
 8003fd4:	680e      	ldr	r6, [r1, #0]
 8003fd6:	f022 0270 	bic.w	r2, r2, #112	@ 0x70
 8003fda:	42ab      	cmp	r3, r5
 8003fdc:	ea42 0206 	orr.w	r2, r2, r6
 8003fe0:	605a      	str	r2, [r3, #4]
 8003fe2:	d019      	beq.n	8004018 <HAL_TIMEx_MasterConfigSynchronization+0x70>
 8003fe4:	f1b3 4f80 	cmp.w	r3, #1073741824	@ 0x40000000
 8003fe8:	d016      	beq.n	8004018 <HAL_TIMEx_MasterConfigSynchronization+0x70>
 8003fea:	4a13      	ldr	r2, [pc, #76]	@ (8004038 <HAL_TIMEx_MasterConfigSynchronization+0x90>)
 8003fec:	4293      	cmp	r3, r2
 8003fee:	d013      	beq.n	8004018 <HAL_TIMEx_MasterConfigSynchronization+0x70>
 8003ff0:	f502 6280 	add.w	r2, r2, #1024	@ 0x400
 8003ff4:	4293      	cmp	r3, r2
 8003ff6:	d00f      	beq.n	8004018 <HAL_TIMEx_MasterConfigSynchronization+0x70>
 8003ff8:	f502 6280 	add.w	r2, r2, #1024	@ 0x400
 8003ffc:	4293      	cmp	r3, r2
 8003ffe:	d00b      	beq.n	8004018 <HAL_TIMEx_MasterConfigSynchronization+0x70>
 8004000:	f502 4278 	add.w	r2, r2, #63488	@ 0xf800
 8004004:	4293      	cmp	r3, r2
 8004006:	d007      	beq.n	8004018 <HAL_TIMEx_MasterConfigSynchronization+0x70>
 8004008:	f502 5270 	add.w	r2, r2, #15360	@ 0x3c00
 800400c:	4293      	cmp	r3, r2
 800400e:	d003      	beq.n	8004018 <HAL_TIMEx_MasterConfigSynchronization+0x70>
 8004010:	f5a2 3294 	sub.w	r2, r2, #75776	@ 0x12800
 8004014:	4293      	cmp	r3, r2
 8004016:	d104      	bne.n	8004022 <HAL_TIMEx_MasterConfigSynchronization+0x7a>
 8004018:	6889      	ldr	r1, [r1, #8]
 800401a:	f020 0280 	bic.w	r2, r0, #128	@ 0x80
 800401e:	430a      	orrs	r2, r1
 8004020:	609a      	str	r2, [r3, #8]
 8004022:	2301      	movs	r3, #1
 8004024:	2000      	movs	r0, #0
 8004026:	f884 303d 	strb.w	r3, [r4, #61]	@ 0x3d
 800402a:	f884 003c 	strb.w	r0, [r4, #60]	@ 0x3c
 800402e:	bd70      	pop	{r4, r5, r6, pc}
 8004030:	40010000 	.word	0x40010000
 8004034:	40010400 	.word	0x40010400
 8004038:	40000400 	.word	0x40000400

0800403c <HAL_TIMEx_CommutCallback>:
 800403c:	4770      	bx	lr

0800403e <HAL_TIMEx_BreakCallback>:
 800403e:	4770      	bx	lr

08004040 <HAL_TIMEx_Break2Callback>:
 8004040:	4770      	bx	lr

08004042 <UART_EndRxTransfer>:
 8004042:	6802      	ldr	r2, [r0, #0]
 8004044:	e852 3f00 	ldrex	r3, [r2]
 8004048:	f423 7390 	bic.w	r3, r3, #288	@ 0x120
 800404c:	e842 3100 	strex	r1, r3, [r2]
 8004050:	6802      	ldr	r2, [r0, #0]
 8004052:	2900      	cmp	r1, #0
 8004054:	d1f5      	bne.n	8004042 <UART_EndRxTransfer>
 8004056:	f102 0308 	add.w	r3, r2, #8
 800405a:	e853 3f00 	ldrex	r3, [r3]
 800405e:	f023 0301 	bic.w	r3, r3, #1
 8004062:	f102 0c08 	add.w	ip, r2, #8
 8004066:	e84c 3100 	strex	r1, r3, [ip]
 800406a:	2900      	cmp	r1, #0
 800406c:	d1f3      	bne.n	8004056 <UART_EndRxTransfer+0x14>
 800406e:	6e03      	ldr	r3, [r0, #96]	@ 0x60
 8004070:	2b01      	cmp	r3, #1
 8004072:	d107      	bne.n	8004084 <UART_EndRxTransfer+0x42>
 8004074:	e852 3f00 	ldrex	r3, [r2]
 8004078:	f023 0310 	bic.w	r3, r3, #16
 800407c:	e842 3100 	strex	r1, r3, [r2]
 8004080:	2900      	cmp	r1, #0
 8004082:	d1f7      	bne.n	8004074 <UART_EndRxTransfer+0x32>
 8004084:	2320      	movs	r3, #32
 8004086:	f8c0 3080 	str.w	r3, [r0, #128]	@ 0x80
 800408a:	2300      	movs	r3, #0
 800408c:	6603      	str	r3, [r0, #96]	@ 0x60
 800408e:	6683      	str	r3, [r0, #104]	@ 0x68
 8004090:	4770      	bx	lr

08004092 <HAL_UART_TxCpltCallback>:
 8004092:	4770      	bx	lr

08004094 <HAL_UART_ErrorCallback>:
 8004094:	4770      	bx	lr

08004096 <UART_DMAAbortOnError>:
 8004096:	b508      	push	{r3, lr}
 8004098:	6b80      	ldr	r0, [r0, #56]	@ 0x38
 800409a:	2300      	movs	r3, #0
 800409c:	f8a0 305a 	strh.w	r3, [r0, #90]	@ 0x5a
 80040a0:	f8a0 3052 	strh.w	r3, [r0, #82]	@ 0x52
 80040a4:	f7ff fff6 	bl	8004094 <HAL_UART_ErrorCallback>
 80040a8:	bd08      	pop	{r3, pc}

080040aa <HAL_UARTEx_RxEventCallback>:
 80040aa:	4770      	bx	lr

080040ac <UART_RxISR_8BIT>:
 80040ac:	f8d0 2080 	ldr.w	r2, [r0, #128]	@ 0x80
 80040b0:	f8b0 105c 	ldrh.w	r1, [r0, #92]	@ 0x5c
 80040b4:	2a22      	cmp	r2, #34	@ 0x22
 80040b6:	b508      	push	{r3, lr}
 80040b8:	6803      	ldr	r3, [r0, #0]
 80040ba:	d152      	bne.n	8004162 <UART_RxISR_8BIT+0xb6>
 80040bc:	6a5b      	ldr	r3, [r3, #36]	@ 0x24
 80040be:	6d42      	ldr	r2, [r0, #84]	@ 0x54
 80040c0:	400b      	ands	r3, r1
 80040c2:	7013      	strb	r3, [r2, #0]
 80040c4:	6d43      	ldr	r3, [r0, #84]	@ 0x54
 80040c6:	3301      	adds	r3, #1
 80040c8:	6543      	str	r3, [r0, #84]	@ 0x54
 80040ca:	f8b0 305a 	ldrh.w	r3, [r0, #90]	@ 0x5a
 80040ce:	3b01      	subs	r3, #1
 80040d0:	b29b      	uxth	r3, r3
 80040d2:	f8a0 305a 	strh.w	r3, [r0, #90]	@ 0x5a
 80040d6:	f8b0 305a 	ldrh.w	r3, [r0, #90]	@ 0x5a
 80040da:	b29b      	uxth	r3, r3
 80040dc:	2b00      	cmp	r3, #0
 80040de:	d13f      	bne.n	8004160 <UART_RxISR_8BIT+0xb4>
 80040e0:	6802      	ldr	r2, [r0, #0]
 80040e2:	e852 3f00 	ldrex	r3, [r2]
 80040e6:	f423 7390 	bic.w	r3, r3, #288	@ 0x120
 80040ea:	e842 3100 	strex	r1, r3, [r2]
 80040ee:	6803      	ldr	r3, [r0, #0]
 80040f0:	2900      	cmp	r1, #0
 80040f2:	d1f5      	bne.n	80040e0 <UART_RxISR_8BIT+0x34>
 80040f4:	f103 0208 	add.w	r2, r3, #8
 80040f8:	e852 2f00 	ldrex	r2, [r2]
 80040fc:	f022 0201 	bic.w	r2, r2, #1
 8004100:	f103 0c08 	add.w	ip, r3, #8
 8004104:	e84c 2100 	strex	r1, r2, [ip]
 8004108:	2900      	cmp	r1, #0
 800410a:	d1f3      	bne.n	80040f4 <UART_RxISR_8BIT+0x48>
 800410c:	2220      	movs	r2, #32
 800410e:	6681      	str	r1, [r0, #104]	@ 0x68
 8004110:	f8c0 2080 	str.w	r2, [r0, #128]	@ 0x80
 8004114:	6641      	str	r1, [r0, #100]	@ 0x64
 8004116:	685a      	ldr	r2, [r3, #4]
 8004118:	0211      	lsls	r1, r2, #8
 800411a:	d405      	bmi.n	8004128 <UART_RxISR_8BIT+0x7c>
 800411c:	6e02      	ldr	r2, [r0, #96]	@ 0x60
 800411e:	2a01      	cmp	r2, #1
 8004120:	d00b      	beq.n	800413a <UART_RxISR_8BIT+0x8e>
 8004122:	f7fc fd81 	bl	8000c28 <HAL_UART_RxCpltCallback>
 8004126:	e01b      	b.n	8004160 <UART_RxISR_8BIT+0xb4>
 8004128:	e853 2f00 	ldrex	r2, [r3]
 800412c:	f022 6280 	bic.w	r2, r2, #67108864	@ 0x4000000
 8004130:	e843 2100 	strex	r1, r2, [r3]
 8004134:	2900      	cmp	r1, #0
 8004136:	d1f7      	bne.n	8004128 <UART_RxISR_8BIT+0x7c>
 8004138:	e7f0      	b.n	800411c <UART_RxISR_8BIT+0x70>
 800413a:	2200      	movs	r2, #0
 800413c:	6602      	str	r2, [r0, #96]	@ 0x60
 800413e:	e853 2f00 	ldrex	r2, [r3]
 8004142:	f022 0210 	bic.w	r2, r2, #16
 8004146:	e843 2100 	strex	r1, r2, [r3]
 800414a:	2900      	cmp	r1, #0
 800414c:	d1f7      	bne.n	800413e <UART_RxISR_8BIT+0x92>
 800414e:	69da      	ldr	r2, [r3, #28]
 8004150:	06d2      	lsls	r2, r2, #27
 8004152:	d501      	bpl.n	8004158 <UART_RxISR_8BIT+0xac>
 8004154:	2210      	movs	r2, #16
 8004156:	621a      	str	r2, [r3, #32]
 8004158:	f8b0 1058 	ldrh.w	r1, [r0, #88]	@ 0x58
 800415c:	f7ff ffa5 	bl	80040aa <HAL_UARTEx_RxEventCallback>
 8004160:	bd08      	pop	{r3, pc}
 8004162:	699a      	ldr	r2, [r3, #24]
 8004164:	f042 0208 	orr.w	r2, r2, #8
 8004168:	619a      	str	r2, [r3, #24]
 800416a:	e7f9      	b.n	8004160 <UART_RxISR_8BIT+0xb4>

0800416c <UART_RxISR_16BIT>:
 800416c:	f8d0 2080 	ldr.w	r2, [r0, #128]	@ 0x80
 8004170:	f8b0 105c 	ldrh.w	r1, [r0, #92]	@ 0x5c
 8004174:	2a22      	cmp	r2, #34	@ 0x22
 8004176:	b508      	push	{r3, lr}
 8004178:	6803      	ldr	r3, [r0, #0]
 800417a:	d14f      	bne.n	800421c <UART_RxISR_16BIT+0xb0>
 800417c:	6a5a      	ldr	r2, [r3, #36]	@ 0x24
 800417e:	4011      	ands	r1, r2
 8004180:	6d42      	ldr	r2, [r0, #84]	@ 0x54
 8004182:	f822 1b02 	strh.w	r1, [r2], #2
 8004186:	6542      	str	r2, [r0, #84]	@ 0x54
 8004188:	f8b0 205a 	ldrh.w	r2, [r0, #90]	@ 0x5a
 800418c:	3a01      	subs	r2, #1
 800418e:	b292      	uxth	r2, r2
 8004190:	f8a0 205a 	strh.w	r2, [r0, #90]	@ 0x5a
 8004194:	f8b0 205a 	ldrh.w	r2, [r0, #90]	@ 0x5a
 8004198:	b292      	uxth	r2, r2
 800419a:	2a00      	cmp	r2, #0
 800419c:	d13d      	bne.n	800421a <UART_RxISR_16BIT+0xae>
 800419e:	e853 2f00 	ldrex	r2, [r3]
 80041a2:	f422 7290 	bic.w	r2, r2, #288	@ 0x120
 80041a6:	e843 2100 	strex	r1, r2, [r3]
 80041aa:	2900      	cmp	r1, #0
 80041ac:	d1f7      	bne.n	800419e <UART_RxISR_16BIT+0x32>
 80041ae:	f103 0208 	add.w	r2, r3, #8
 80041b2:	e852 2f00 	ldrex	r2, [r2]
 80041b6:	f022 0201 	bic.w	r2, r2, #1
 80041ba:	f103 0c08 	add.w	ip, r3, #8
 80041be:	e84c 2100 	strex	r1, r2, [ip]
 80041c2:	2900      	cmp	r1, #0
 80041c4:	d1f3      	bne.n	80041ae <UART_RxISR_16BIT+0x42>
 80041c6:	2220      	movs	r2, #32
 80041c8:	6681      	str	r1, [r0, #104]	@ 0x68
 80041ca:	f8c0 2080 	str.w	r2, [r0, #128]	@ 0x80
 80041ce:	6641      	str	r1, [r0, #100]	@ 0x64
 80041d0:	685a      	ldr	r2, [r3, #4]
 80041d2:	0211      	lsls	r1, r2, #8
 80041d4:	d405      	bmi.n	80041e2 <UART_RxISR_16BIT+0x76>
 80041d6:	6e02      	ldr	r2, [r0, #96]	@ 0x60
 80041d8:	2a01      	cmp	r2, #1
 80041da:	d00b      	beq.n	80041f4 <UART_RxISR_16BIT+0x88>
 80041dc:	f7fc fd24 	bl	8000c28 <HAL_UART_RxCpltCallback>
 80041e0:	e01b      	b.n	800421a <UART_RxISR_16BIT+0xae>
 80041e2:	e853 2f00 	ldrex	r2, [r3]
 80041e6:	f022 6280 	bic.w	r2, r2, #67108864	@ 0x4000000
 80041ea:	e843 2100 	strex	r1, r2, [r3]
 80041ee:	2900      	cmp	r1, #0
 80041f0:	d1f7      	bne.n	80041e2 <UART_RxISR_16BIT+0x76>
 80041f2:	e7f0      	b.n	80041d6 <UART_RxISR_16BIT+0x6a>
 80041f4:	2200      	movs	r2, #0
 80041f6:	6602      	str	r2, [r0, #96]	@ 0x60
 80041f8:	e853 2f00 	ldrex	r2, [r3]
 80041fc:	f022 0210 	bic.w	r2, r2, #16
 8004200:	e843 2100 	strex	r1, r2, [r3]
 8004204:	2900      	cmp	r1, #0
 8004206:	d1f7      	bne.n	80041f8 <UART_RxISR_16BIT+0x8c>
 8004208:	69da      	ldr	r2, [r3, #28]
 800420a:	06d2      	lsls	r2, r2, #27
 800420c:	d501      	bpl.n	8004212 <UART_RxISR_16BIT+0xa6>
 800420e:	2210      	movs	r2, #16
 8004210:	621a      	str	r2, [r3, #32]
 8004212:	f8b0 1058 	ldrh.w	r1, [r0, #88]	@ 0x58
 8004216:	f7ff ff48 	bl	80040aa <HAL_UARTEx_RxEventCallback>
 800421a:	bd08      	pop	{r3, pc}
 800421c:	699a      	ldr	r2, [r3, #24]
 800421e:	f042 0208 	orr.w	r2, r2, #8
 8004222:	619a      	str	r2, [r3, #24]
 8004224:	e7f9      	b.n	800421a <UART_RxISR_16BIT+0xae>

08004226 <HAL_UARTEx_WakeupCallback>:
 8004226:	4770      	bx	lr

08004228 <HAL_UART_IRQHandler>:
 8004228:	6803      	ldr	r3, [r0, #0]
 800422a:	b570      	push	{r4, r5, r6, lr}
 800422c:	69da      	ldr	r2, [r3, #28]
 800422e:	f640 060f 	movw	r6, #2063	@ 0x80f
 8004232:	6819      	ldr	r1, [r3, #0]
 8004234:	4604      	mov	r4, r0
 8004236:	4232      	tst	r2, r6
 8004238:	689d      	ldr	r5, [r3, #8]
 800423a:	d10b      	bne.n	8004254 <HAL_UART_IRQHandler+0x2c>
 800423c:	0696      	lsls	r6, r2, #26
 800423e:	f140 8088 	bpl.w	8004352 <HAL_UART_IRQHandler+0x12a>
 8004242:	068e      	lsls	r6, r1, #26
 8004244:	f140 8085 	bpl.w	8004352 <HAL_UART_IRQHandler+0x12a>
 8004248:	6e83      	ldr	r3, [r0, #104]	@ 0x68
 800424a:	2b00      	cmp	r3, #0
 800424c:	d07b      	beq.n	8004346 <HAL_UART_IRQHandler+0x11e>
 800424e:	e8bd 4070 	ldmia.w	sp!, {r4, r5, r6, lr}
 8004252:	4718      	bx	r3
 8004254:	4e9a      	ldr	r6, [pc, #616]	@ (80044c0 <HAL_UART_IRQHandler+0x298>)
 8004256:	f005 0001 	and.w	r0, r5, #1
 800425a:	400e      	ands	r6, r1
 800425c:	4306      	orrs	r6, r0
 800425e:	d078      	beq.n	8004352 <HAL_UART_IRQHandler+0x12a>
 8004260:	07d5      	lsls	r5, r2, #31
 8004262:	d509      	bpl.n	8004278 <HAL_UART_IRQHandler+0x50>
 8004264:	05ce      	lsls	r6, r1, #23
 8004266:	d507      	bpl.n	8004278 <HAL_UART_IRQHandler+0x50>
 8004268:	2501      	movs	r5, #1
 800426a:	621d      	str	r5, [r3, #32]
 800426c:	f8d4 5084 	ldr.w	r5, [r4, #132]	@ 0x84
 8004270:	f045 0501 	orr.w	r5, r5, #1
 8004274:	f8c4 5084 	str.w	r5, [r4, #132]	@ 0x84
 8004278:	0795      	lsls	r5, r2, #30
 800427a:	d508      	bpl.n	800428e <HAL_UART_IRQHandler+0x66>
 800427c:	b138      	cbz	r0, 800428e <HAL_UART_IRQHandler+0x66>
 800427e:	2502      	movs	r5, #2
 8004280:	621d      	str	r5, [r3, #32]
 8004282:	f8d4 5084 	ldr.w	r5, [r4, #132]	@ 0x84
 8004286:	f045 0504 	orr.w	r5, r5, #4
 800428a:	f8c4 5084 	str.w	r5, [r4, #132]	@ 0x84
 800428e:	0756      	lsls	r6, r2, #29
 8004290:	d508      	bpl.n	80042a4 <HAL_UART_IRQHandler+0x7c>
 8004292:	b138      	cbz	r0, 80042a4 <HAL_UART_IRQHandler+0x7c>
 8004294:	2504      	movs	r5, #4
 8004296:	621d      	str	r5, [r3, #32]
 8004298:	f8d4 5084 	ldr.w	r5, [r4, #132]	@ 0x84
 800429c:	f045 0502 	orr.w	r5, r5, #2
 80042a0:	f8c4 5084 	str.w	r5, [r4, #132]	@ 0x84
 80042a4:	0715      	lsls	r5, r2, #28
 80042a6:	d50b      	bpl.n	80042c0 <HAL_UART_IRQHandler+0x98>
 80042a8:	f001 0520 	and.w	r5, r1, #32
 80042ac:	4305      	orrs	r5, r0
 80042ae:	d007      	beq.n	80042c0 <HAL_UART_IRQHandler+0x98>
 80042b0:	2008      	movs	r0, #8
 80042b2:	6218      	str	r0, [r3, #32]
 80042b4:	f8d4 0084 	ldr.w	r0, [r4, #132]	@ 0x84
 80042b8:	f040 0008 	orr.w	r0, r0, #8
 80042bc:	f8c4 0084 	str.w	r0, [r4, #132]	@ 0x84
 80042c0:	0516      	lsls	r6, r2, #20
 80042c2:	d50a      	bpl.n	80042da <HAL_UART_IRQHandler+0xb2>
 80042c4:	014d      	lsls	r5, r1, #5
 80042c6:	d508      	bpl.n	80042da <HAL_UART_IRQHandler+0xb2>
 80042c8:	f44f 6000 	mov.w	r0, #2048	@ 0x800
 80042cc:	6218      	str	r0, [r3, #32]
 80042ce:	f8d4 3084 	ldr.w	r3, [r4, #132]	@ 0x84
 80042d2:	f043 0320 	orr.w	r3, r3, #32
 80042d6:	f8c4 3084 	str.w	r3, [r4, #132]	@ 0x84
 80042da:	f8d4 3084 	ldr.w	r3, [r4, #132]	@ 0x84
 80042de:	2b00      	cmp	r3, #0
 80042e0:	d031      	beq.n	8004346 <HAL_UART_IRQHandler+0x11e>
 80042e2:	0690      	lsls	r0, r2, #26
 80042e4:	d505      	bpl.n	80042f2 <HAL_UART_IRQHandler+0xca>
 80042e6:	068a      	lsls	r2, r1, #26
 80042e8:	d503      	bpl.n	80042f2 <HAL_UART_IRQHandler+0xca>
 80042ea:	6ea3      	ldr	r3, [r4, #104]	@ 0x68
 80042ec:	b10b      	cbz	r3, 80042f2 <HAL_UART_IRQHandler+0xca>
 80042ee:	4620      	mov	r0, r4
 80042f0:	4798      	blx	r3
 80042f2:	6826      	ldr	r6, [r4, #0]
 80042f4:	4620      	mov	r0, r4
 80042f6:	f8d4 2084 	ldr.w	r2, [r4, #132]	@ 0x84
 80042fa:	68b3      	ldr	r3, [r6, #8]
 80042fc:	f002 0228 	and.w	r2, r2, #40	@ 0x28
 8004300:	f003 0340 	and.w	r3, r3, #64	@ 0x40
 8004304:	ea53 0502 	orrs.w	r5, r3, r2
 8004308:	d01e      	beq.n	8004348 <HAL_UART_IRQHandler+0x120>
 800430a:	f7ff fe9a 	bl	8004042 <UART_EndRxTransfer>
 800430e:	68b3      	ldr	r3, [r6, #8]
 8004310:	065b      	lsls	r3, r3, #25
 8004312:	d515      	bpl.n	8004340 <HAL_UART_IRQHandler+0x118>
 8004314:	6822      	ldr	r2, [r4, #0]
 8004316:	f102 0308 	add.w	r3, r2, #8
 800431a:	e853 3f00 	ldrex	r3, [r3]
 800431e:	f023 0340 	bic.w	r3, r3, #64	@ 0x40
 8004322:	3208      	adds	r2, #8
 8004324:	e842 3100 	strex	r1, r3, [r2]
 8004328:	2900      	cmp	r1, #0
 800432a:	d1f3      	bne.n	8004314 <HAL_UART_IRQHandler+0xec>
 800432c:	6f60      	ldr	r0, [r4, #116]	@ 0x74
 800432e:	b138      	cbz	r0, 8004340 <HAL_UART_IRQHandler+0x118>
 8004330:	4b64      	ldr	r3, [pc, #400]	@ (80044c4 <HAL_UART_IRQHandler+0x29c>)
 8004332:	6503      	str	r3, [r0, #80]	@ 0x50
 8004334:	f7fd ff3c 	bl	80021b0 <HAL_DMA_Abort_IT>
 8004338:	b128      	cbz	r0, 8004346 <HAL_UART_IRQHandler+0x11e>
 800433a:	6f60      	ldr	r0, [r4, #116]	@ 0x74
 800433c:	6d03      	ldr	r3, [r0, #80]	@ 0x50
 800433e:	e786      	b.n	800424e <HAL_UART_IRQHandler+0x26>
 8004340:	4620      	mov	r0, r4
 8004342:	f7ff fea7 	bl	8004094 <HAL_UART_ErrorCallback>
 8004346:	bd70      	pop	{r4, r5, r6, pc}
 8004348:	f7ff fea4 	bl	8004094 <HAL_UART_ErrorCallback>
 800434c:	f8c4 5084 	str.w	r5, [r4, #132]	@ 0x84
 8004350:	e7f9      	b.n	8004346 <HAL_UART_IRQHandler+0x11e>
 8004352:	6e20      	ldr	r0, [r4, #96]	@ 0x60
 8004354:	2801      	cmp	r0, #1
 8004356:	f040 8088 	bne.w	800446a <HAL_UART_IRQHandler+0x242>
 800435a:	06d6      	lsls	r6, r2, #27
 800435c:	f140 8085 	bpl.w	800446a <HAL_UART_IRQHandler+0x242>
 8004360:	06c8      	lsls	r0, r1, #27
 8004362:	f140 8082 	bpl.w	800446a <HAL_UART_IRQHandler+0x242>
 8004366:	2210      	movs	r2, #16
 8004368:	621a      	str	r2, [r3, #32]
 800436a:	689a      	ldr	r2, [r3, #8]
 800436c:	0652      	lsls	r2, r2, #25
 800436e:	d54a      	bpl.n	8004406 <HAL_UART_IRQHandler+0x1de>
 8004370:	6f61      	ldr	r1, [r4, #116]	@ 0x74
 8004372:	680a      	ldr	r2, [r1, #0]
 8004374:	6852      	ldr	r2, [r2, #4]
 8004376:	b292      	uxth	r2, r2
 8004378:	2a00      	cmp	r2, #0
 800437a:	d0e4      	beq.n	8004346 <HAL_UART_IRQHandler+0x11e>
 800437c:	f8b4 0058 	ldrh.w	r0, [r4, #88]	@ 0x58
 8004380:	4290      	cmp	r0, r2
 8004382:	d9e0      	bls.n	8004346 <HAL_UART_IRQHandler+0x11e>
 8004384:	f8a4 205a 	strh.w	r2, [r4, #90]	@ 0x5a
 8004388:	69ca      	ldr	r2, [r1, #28]
 800438a:	f5b2 7f80 	cmp.w	r2, #256	@ 0x100
 800438e:	d02e      	beq.n	80043ee <HAL_UART_IRQHandler+0x1c6>
 8004390:	e853 2f00 	ldrex	r2, [r3]
 8004394:	f422 7280 	bic.w	r2, r2, #256	@ 0x100
 8004398:	e843 2100 	strex	r1, r2, [r3]
 800439c:	2900      	cmp	r1, #0
 800439e:	d1f7      	bne.n	8004390 <HAL_UART_IRQHandler+0x168>
 80043a0:	f103 0208 	add.w	r2, r3, #8
 80043a4:	e852 2f00 	ldrex	r2, [r2]
 80043a8:	f022 0201 	bic.w	r2, r2, #1
 80043ac:	f103 0008 	add.w	r0, r3, #8
 80043b0:	e840 2100 	strex	r1, r2, [r0]
 80043b4:	2900      	cmp	r1, #0
 80043b6:	d1f3      	bne.n	80043a0 <HAL_UART_IRQHandler+0x178>
 80043b8:	f103 0208 	add.w	r2, r3, #8
 80043bc:	e852 2f00 	ldrex	r2, [r2]
 80043c0:	f022 0240 	bic.w	r2, r2, #64	@ 0x40
 80043c4:	f103 0008 	add.w	r0, r3, #8
 80043c8:	e840 2100 	strex	r1, r2, [r0]
 80043cc:	2900      	cmp	r1, #0
 80043ce:	d1f3      	bne.n	80043b8 <HAL_UART_IRQHandler+0x190>
 80043d0:	2220      	movs	r2, #32
 80043d2:	f8c4 2080 	str.w	r2, [r4, #128]	@ 0x80
 80043d6:	6621      	str	r1, [r4, #96]	@ 0x60
 80043d8:	e853 2f00 	ldrex	r2, [r3]
 80043dc:	f022 0210 	bic.w	r2, r2, #16
 80043e0:	e843 2100 	strex	r1, r2, [r3]
 80043e4:	2900      	cmp	r1, #0
 80043e6:	d1f7      	bne.n	80043d8 <HAL_UART_IRQHandler+0x1b0>
 80043e8:	6f60      	ldr	r0, [r4, #116]	@ 0x74
 80043ea:	f7fd fea3 	bl	8002134 <HAL_DMA_Abort>
 80043ee:	2302      	movs	r3, #2
 80043f0:	f8b4 1058 	ldrh.w	r1, [r4, #88]	@ 0x58
 80043f4:	6663      	str	r3, [r4, #100]	@ 0x64
 80043f6:	f8b4 305a 	ldrh.w	r3, [r4, #90]	@ 0x5a
 80043fa:	1ac9      	subs	r1, r1, r3
 80043fc:	b289      	uxth	r1, r1
 80043fe:	4620      	mov	r0, r4
 8004400:	f7ff fe53 	bl	80040aa <HAL_UARTEx_RxEventCallback>
 8004404:	e79f      	b.n	8004346 <HAL_UART_IRQHandler+0x11e>
 8004406:	f8b4 205a 	ldrh.w	r2, [r4, #90]	@ 0x5a
 800440a:	f8b4 005a 	ldrh.w	r0, [r4, #90]	@ 0x5a
 800440e:	f8b4 1058 	ldrh.w	r1, [r4, #88]	@ 0x58
 8004412:	b292      	uxth	r2, r2
 8004414:	b280      	uxth	r0, r0
 8004416:	2800      	cmp	r0, #0
 8004418:	d095      	beq.n	8004346 <HAL_UART_IRQHandler+0x11e>
 800441a:	1a89      	subs	r1, r1, r2
 800441c:	b289      	uxth	r1, r1
 800441e:	2900      	cmp	r1, #0
 8004420:	d091      	beq.n	8004346 <HAL_UART_IRQHandler+0x11e>
 8004422:	e853 2f00 	ldrex	r2, [r3]
 8004426:	f422 7290 	bic.w	r2, r2, #288	@ 0x120
 800442a:	e843 2000 	strex	r0, r2, [r3]
 800442e:	2800      	cmp	r0, #0
 8004430:	d1f7      	bne.n	8004422 <HAL_UART_IRQHandler+0x1fa>
 8004432:	f103 0208 	add.w	r2, r3, #8
 8004436:	e852 2f00 	ldrex	r2, [r2]
 800443a:	f022 0201 	bic.w	r2, r2, #1
 800443e:	f103 0508 	add.w	r5, r3, #8
 8004442:	e845 2000 	strex	r0, r2, [r5]
 8004446:	2800      	cmp	r0, #0
 8004448:	d1f3      	bne.n	8004432 <HAL_UART_IRQHandler+0x20a>
 800444a:	2220      	movs	r2, #32
 800444c:	66a0      	str	r0, [r4, #104]	@ 0x68
 800444e:	f8c4 2080 	str.w	r2, [r4, #128]	@ 0x80
 8004452:	6620      	str	r0, [r4, #96]	@ 0x60
 8004454:	e853 2f00 	ldrex	r2, [r3]
 8004458:	f022 0210 	bic.w	r2, r2, #16
 800445c:	e843 2000 	strex	r0, r2, [r3]
 8004460:	2800      	cmp	r0, #0
 8004462:	d1f7      	bne.n	8004454 <HAL_UART_IRQHandler+0x22c>
 8004464:	2302      	movs	r3, #2
 8004466:	6663      	str	r3, [r4, #100]	@ 0x64
 8004468:	e7c9      	b.n	80043fe <HAL_UART_IRQHandler+0x1d6>
 800446a:	02d6      	lsls	r6, r2, #11
 800446c:	d508      	bpl.n	8004480 <HAL_UART_IRQHandler+0x258>
 800446e:	0268      	lsls	r0, r5, #9
 8004470:	d506      	bpl.n	8004480 <HAL_UART_IRQHandler+0x258>
 8004472:	f44f 1280 	mov.w	r2, #1048576	@ 0x100000
 8004476:	4620      	mov	r0, r4
 8004478:	621a      	str	r2, [r3, #32]
 800447a:	f7ff fed4 	bl	8004226 <HAL_UARTEx_WakeupCallback>
 800447e:	e762      	b.n	8004346 <HAL_UART_IRQHandler+0x11e>
 8004480:	0616      	lsls	r6, r2, #24
 8004482:	d507      	bpl.n	8004494 <HAL_UART_IRQHandler+0x26c>
 8004484:	060d      	lsls	r5, r1, #24
 8004486:	d505      	bpl.n	8004494 <HAL_UART_IRQHandler+0x26c>
 8004488:	6ee3      	ldr	r3, [r4, #108]	@ 0x6c
 800448a:	2b00      	cmp	r3, #0
 800448c:	f43f af5b 	beq.w	8004346 <HAL_UART_IRQHandler+0x11e>
 8004490:	4620      	mov	r0, r4
 8004492:	e6dc      	b.n	800424e <HAL_UART_IRQHandler+0x26>
 8004494:	0650      	lsls	r0, r2, #25
 8004496:	f57f af56 	bpl.w	8004346 <HAL_UART_IRQHandler+0x11e>
 800449a:	064a      	lsls	r2, r1, #25
 800449c:	f57f af53 	bpl.w	8004346 <HAL_UART_IRQHandler+0x11e>
 80044a0:	e853 2f00 	ldrex	r2, [r3]
 80044a4:	f022 0240 	bic.w	r2, r2, #64	@ 0x40
 80044a8:	e843 2100 	strex	r1, r2, [r3]
 80044ac:	2900      	cmp	r1, #0
 80044ae:	d1f7      	bne.n	80044a0 <HAL_UART_IRQHandler+0x278>
 80044b0:	2320      	movs	r3, #32
 80044b2:	4620      	mov	r0, r4
 80044b4:	66e1      	str	r1, [r4, #108]	@ 0x6c
 80044b6:	67e3      	str	r3, [r4, #124]	@ 0x7c
 80044b8:	f7ff fdeb 	bl	8004092 <HAL_UART_TxCpltCallback>
 80044bc:	e743      	b.n	8004346 <HAL_UART_IRQHandler+0x11e>
 80044be:	bf00      	nop
 80044c0:	04000120 	.word	0x04000120
 80044c4:	08004097 	.word	0x08004097

080044c8 <UART_SetConfig>:
 80044c8:	b538      	push	{r3, r4, r5, lr}
 80044ca:	4604      	mov	r4, r0
 80044cc:	69c0      	ldr	r0, [r0, #28]
 80044ce:	6921      	ldr	r1, [r4, #16]
 80044d0:	68a2      	ldr	r2, [r4, #8]
 80044d2:	6823      	ldr	r3, [r4, #0]
 80044d4:	430a      	orrs	r2, r1
 80044d6:	6961      	ldr	r1, [r4, #20]
 80044d8:	681d      	ldr	r5, [r3, #0]
 80044da:	430a      	orrs	r2, r1
 80044dc:	497d      	ldr	r1, [pc, #500]	@ (80046d4 <UART_SetConfig+0x20c>)
 80044de:	4302      	orrs	r2, r0
 80044e0:	4029      	ands	r1, r5
 80044e2:	6a25      	ldr	r5, [r4, #32]
 80044e4:	430a      	orrs	r2, r1
 80044e6:	68e1      	ldr	r1, [r4, #12]
 80044e8:	601a      	str	r2, [r3, #0]
 80044ea:	685a      	ldr	r2, [r3, #4]
 80044ec:	f422 5240 	bic.w	r2, r2, #12288	@ 0x3000
 80044f0:	430a      	orrs	r2, r1
 80044f2:	605a      	str	r2, [r3, #4]
 80044f4:	69a2      	ldr	r2, [r4, #24]
 80044f6:	6899      	ldr	r1, [r3, #8]
 80044f8:	432a      	orrs	r2, r5
 80044fa:	f421 6130 	bic.w	r1, r1, #2816	@ 0xb00
 80044fe:	430a      	orrs	r2, r1
 8004500:	609a      	str	r2, [r3, #8]
 8004502:	4a75      	ldr	r2, [pc, #468]	@ (80046d8 <UART_SetConfig+0x210>)
 8004504:	4293      	cmp	r3, r2
 8004506:	d113      	bne.n	8004530 <UART_SetConfig+0x68>
 8004508:	4b74      	ldr	r3, [pc, #464]	@ (80046dc <UART_SetConfig+0x214>)
 800450a:	f8d3 3090 	ldr.w	r3, [r3, #144]	@ 0x90
 800450e:	f003 0303 	and.w	r3, r3, #3
 8004512:	2b02      	cmp	r3, #2
 8004514:	f000 80a8 	beq.w	8004668 <UART_SetConfig+0x1a0>
 8004518:	2b03      	cmp	r3, #3
 800451a:	d021      	beq.n	8004560 <UART_SetConfig+0x98>
 800451c:	2b01      	cmp	r3, #1
 800451e:	f040 80bd 	bne.w	800469c <UART_SetConfig+0x1d4>
 8004522:	f5b0 4f00 	cmp.w	r0, #32768	@ 0x8000
 8004526:	f040 809c 	bne.w	8004662 <UART_SetConfig+0x19a>
 800452a:	f7fe faa1 	bl	8002a70 <HAL_RCC_GetSysClockFreq>
 800452e:	e092      	b.n	8004656 <UART_SetConfig+0x18e>
 8004530:	4a6b      	ldr	r2, [pc, #428]	@ (80046e0 <UART_SetConfig+0x218>)
 8004532:	4293      	cmp	r3, r2
 8004534:	d11b      	bne.n	800456e <UART_SetConfig+0xa6>
 8004536:	4b69      	ldr	r3, [pc, #420]	@ (80046dc <UART_SetConfig+0x214>)
 8004538:	f8d3 3090 	ldr.w	r3, [r3, #144]	@ 0x90
 800453c:	f003 030c 	and.w	r3, r3, #12
 8004540:	2b08      	cmp	r3, #8
 8004542:	f000 8091 	beq.w	8004668 <UART_SetConfig+0x1a0>
 8004546:	d809      	bhi.n	800455c <UART_SetConfig+0x94>
 8004548:	2b00      	cmp	r3, #0
 800454a:	f000 80ad 	beq.w	80046a8 <UART_SetConfig+0x1e0>
 800454e:	2b04      	cmp	r3, #4
 8004550:	d0e7      	beq.n	8004522 <UART_SetConfig+0x5a>
 8004552:	2001      	movs	r0, #1
 8004554:	2300      	movs	r3, #0
 8004556:	e9c4 331a 	strd	r3, r3, [r4, #104]	@ 0x68
 800455a:	bd38      	pop	{r3, r4, r5, pc}
 800455c:	2b0c      	cmp	r3, #12
 800455e:	d1f8      	bne.n	8004552 <UART_SetConfig+0x8a>
 8004560:	f5b0 4f00 	cmp.w	r0, #32768	@ 0x8000
 8004564:	f000 8084 	beq.w	8004670 <UART_SetConfig+0x1a8>
 8004568:	f44f 4000 	mov.w	r0, #32768	@ 0x8000
 800456c:	e0a3      	b.n	80046b6 <UART_SetConfig+0x1ee>
 800456e:	4a5d      	ldr	r2, [pc, #372]	@ (80046e4 <UART_SetConfig+0x21c>)
 8004570:	4293      	cmp	r3, r2
 8004572:	d10e      	bne.n	8004592 <UART_SetConfig+0xca>
 8004574:	4b59      	ldr	r3, [pc, #356]	@ (80046dc <UART_SetConfig+0x214>)
 8004576:	f8d3 3090 	ldr.w	r3, [r3, #144]	@ 0x90
 800457a:	f003 0330 	and.w	r3, r3, #48	@ 0x30
 800457e:	2b20      	cmp	r3, #32
 8004580:	d072      	beq.n	8004668 <UART_SetConfig+0x1a0>
 8004582:	d804      	bhi.n	800458e <UART_SetConfig+0xc6>
 8004584:	2b00      	cmp	r3, #0
 8004586:	f000 808f 	beq.w	80046a8 <UART_SetConfig+0x1e0>
 800458a:	2b10      	cmp	r3, #16
 800458c:	e7e0      	b.n	8004550 <UART_SetConfig+0x88>
 800458e:	2b30      	cmp	r3, #48	@ 0x30
 8004590:	e7e5      	b.n	800455e <UART_SetConfig+0x96>
 8004592:	4a55      	ldr	r2, [pc, #340]	@ (80046e8 <UART_SetConfig+0x220>)
 8004594:	4293      	cmp	r3, r2
 8004596:	d10d      	bne.n	80045b4 <UART_SetConfig+0xec>
 8004598:	4b50      	ldr	r3, [pc, #320]	@ (80046dc <UART_SetConfig+0x214>)
 800459a:	f8d3 3090 	ldr.w	r3, [r3, #144]	@ 0x90
 800459e:	f003 03c0 	and.w	r3, r3, #192	@ 0xc0
 80045a2:	2b80      	cmp	r3, #128	@ 0x80
 80045a4:	d060      	beq.n	8004668 <UART_SetConfig+0x1a0>
 80045a6:	d803      	bhi.n	80045b0 <UART_SetConfig+0xe8>
 80045a8:	2b00      	cmp	r3, #0
 80045aa:	d07d      	beq.n	80046a8 <UART_SetConfig+0x1e0>
 80045ac:	2b40      	cmp	r3, #64	@ 0x40
 80045ae:	e7cf      	b.n	8004550 <UART_SetConfig+0x88>
 80045b0:	2bc0      	cmp	r3, #192	@ 0xc0
 80045b2:	e7d4      	b.n	800455e <UART_SetConfig+0x96>
 80045b4:	4a4d      	ldr	r2, [pc, #308]	@ (80046ec <UART_SetConfig+0x224>)
 80045b6:	4293      	cmp	r3, r2
 80045b8:	d110      	bne.n	80045dc <UART_SetConfig+0x114>
 80045ba:	4b48      	ldr	r3, [pc, #288]	@ (80046dc <UART_SetConfig+0x214>)
 80045bc:	f8d3 3090 	ldr.w	r3, [r3, #144]	@ 0x90
 80045c0:	f403 7340 	and.w	r3, r3, #768	@ 0x300
 80045c4:	f5b3 7f00 	cmp.w	r3, #512	@ 0x200
 80045c8:	d04e      	beq.n	8004668 <UART_SetConfig+0x1a0>
 80045ca:	d804      	bhi.n	80045d6 <UART_SetConfig+0x10e>
 80045cc:	2b00      	cmp	r3, #0
 80045ce:	d06b      	beq.n	80046a8 <UART_SetConfig+0x1e0>
 80045d0:	f5b3 7f80 	cmp.w	r3, #256	@ 0x100
 80045d4:	e7bc      	b.n	8004550 <UART_SetConfig+0x88>
 80045d6:	f5b3 7f40 	cmp.w	r3, #768	@ 0x300
 80045da:	e7c0      	b.n	800455e <UART_SetConfig+0x96>
 80045dc:	4a44      	ldr	r2, [pc, #272]	@ (80046f0 <UART_SetConfig+0x228>)
 80045de:	4293      	cmp	r3, r2
 80045e0:	d110      	bne.n	8004604 <UART_SetConfig+0x13c>
 80045e2:	4b3e      	ldr	r3, [pc, #248]	@ (80046dc <UART_SetConfig+0x214>)
 80045e4:	f8d3 3090 	ldr.w	r3, [r3, #144]	@ 0x90
 80045e8:	f403 6340 	and.w	r3, r3, #3072	@ 0xc00
 80045ec:	f5b3 6f00 	cmp.w	r3, #2048	@ 0x800
 80045f0:	d03a      	beq.n	8004668 <UART_SetConfig+0x1a0>
 80045f2:	d804      	bhi.n	80045fe <UART_SetConfig+0x136>
 80045f4:	2b00      	cmp	r3, #0
 80045f6:	d051      	beq.n	800469c <UART_SetConfig+0x1d4>
 80045f8:	f5b3 6f80 	cmp.w	r3, #1024	@ 0x400
 80045fc:	e7a8      	b.n	8004550 <UART_SetConfig+0x88>
 80045fe:	f5b3 6f40 	cmp.w	r3, #3072	@ 0xc00
 8004602:	e7ac      	b.n	800455e <UART_SetConfig+0x96>
 8004604:	4a3b      	ldr	r2, [pc, #236]	@ (80046f4 <UART_SetConfig+0x22c>)
 8004606:	4293      	cmp	r3, r2
 8004608:	d110      	bne.n	800462c <UART_SetConfig+0x164>
 800460a:	4b34      	ldr	r3, [pc, #208]	@ (80046dc <UART_SetConfig+0x214>)
 800460c:	f8d3 3090 	ldr.w	r3, [r3, #144]	@ 0x90
 8004610:	f403 5340 	and.w	r3, r3, #12288	@ 0x3000
 8004614:	f5b3 5f00 	cmp.w	r3, #8192	@ 0x2000
 8004618:	d026      	beq.n	8004668 <UART_SetConfig+0x1a0>
 800461a:	d804      	bhi.n	8004626 <UART_SetConfig+0x15e>
 800461c:	2b00      	cmp	r3, #0
 800461e:	d043      	beq.n	80046a8 <UART_SetConfig+0x1e0>
 8004620:	f5b3 5f80 	cmp.w	r3, #4096	@ 0x1000
 8004624:	e794      	b.n	8004550 <UART_SetConfig+0x88>
 8004626:	f5b3 5f40 	cmp.w	r3, #12288	@ 0x3000
 800462a:	e798      	b.n	800455e <UART_SetConfig+0x96>
 800462c:	4a32      	ldr	r2, [pc, #200]	@ (80046f8 <UART_SetConfig+0x230>)
 800462e:	4293      	cmp	r3, r2
 8004630:	d18f      	bne.n	8004552 <UART_SetConfig+0x8a>
 8004632:	4b2a      	ldr	r3, [pc, #168]	@ (80046dc <UART_SetConfig+0x214>)
 8004634:	f8d3 3090 	ldr.w	r3, [r3, #144]	@ 0x90
 8004638:	f403 4340 	and.w	r3, r3, #49152	@ 0xc000
 800463c:	f5b3 4f00 	cmp.w	r3, #32768	@ 0x8000
 8004640:	d012      	beq.n	8004668 <UART_SetConfig+0x1a0>
 8004642:	d803      	bhi.n	800464c <UART_SetConfig+0x184>
 8004644:	b383      	cbz	r3, 80046a8 <UART_SetConfig+0x1e0>
 8004646:	f5b3 4f80 	cmp.w	r3, #16384	@ 0x4000
 800464a:	e781      	b.n	8004550 <UART_SetConfig+0x88>
 800464c:	f5b3 4f40 	cmp.w	r3, #49152	@ 0xc000
 8004650:	e785      	b.n	800455e <UART_SetConfig+0x96>
 8004652:	f7fe fad9 	bl	8002c08 <HAL_RCC_GetPCLK1Freq>
 8004656:	b958      	cbnz	r0, 8004670 <UART_SetConfig+0x1a8>
 8004658:	2000      	movs	r0, #0
 800465a:	e77b      	b.n	8004554 <UART_SetConfig+0x8c>
 800465c:	f7fe fae4 	bl	8002c28 <HAL_RCC_GetPCLK2Freq>
 8004660:	e027      	b.n	80046b2 <UART_SetConfig+0x1ea>
 8004662:	f7fe fa05 	bl	8002a70 <HAL_RCC_GetSysClockFreq>
 8004666:	e024      	b.n	80046b2 <UART_SetConfig+0x1ea>
 8004668:	f5b0 4f00 	cmp.w	r0, #32768	@ 0x8000
 800466c:	4823      	ldr	r0, [pc, #140]	@ (80046fc <UART_SetConfig+0x234>)
 800466e:	d122      	bne.n	80046b6 <UART_SetConfig+0x1ee>
 8004670:	6862      	ldr	r2, [r4, #4]
 8004672:	0853      	lsrs	r3, r2, #1
 8004674:	eb03 0340 	add.w	r3, r3, r0, lsl #1
 8004678:	fbb3 f3f2 	udiv	r3, r3, r2
 800467c:	f64f 72ef 	movw	r2, #65519	@ 0xffef
 8004680:	f1a3 0110 	sub.w	r1, r3, #16
 8004684:	4291      	cmp	r1, r2
 8004686:	f63f af64 	bhi.w	8004552 <UART_SetConfig+0x8a>
 800468a:	f023 020f 	bic.w	r2, r3, #15
 800468e:	f3c3 0342 	ubfx	r3, r3, #1, #3
 8004692:	6821      	ldr	r1, [r4, #0]
 8004694:	b292      	uxth	r2, r2
 8004696:	4313      	orrs	r3, r2
 8004698:	60cb      	str	r3, [r1, #12]
 800469a:	e7dd      	b.n	8004658 <UART_SetConfig+0x190>
 800469c:	f5b0 4f00 	cmp.w	r0, #32768	@ 0x8000
 80046a0:	d1dc      	bne.n	800465c <UART_SetConfig+0x194>
 80046a2:	f7fe fac1 	bl	8002c28 <HAL_RCC_GetPCLK2Freq>
 80046a6:	e7d6      	b.n	8004656 <UART_SetConfig+0x18e>
 80046a8:	f5b0 4f00 	cmp.w	r0, #32768	@ 0x8000
 80046ac:	d0d1      	beq.n	8004652 <UART_SetConfig+0x18a>
 80046ae:	f7fe faab 	bl	8002c08 <HAL_RCC_GetPCLK1Freq>
 80046b2:	2800      	cmp	r0, #0
 80046b4:	d0d0      	beq.n	8004658 <UART_SetConfig+0x190>
 80046b6:	6862      	ldr	r2, [r4, #4]
 80046b8:	eb00 0352 	add.w	r3, r0, r2, lsr #1
 80046bc:	fbb3 f3f2 	udiv	r3, r3, r2
 80046c0:	f64f 72ef 	movw	r2, #65519	@ 0xffef
 80046c4:	f1a3 0110 	sub.w	r1, r3, #16
 80046c8:	4291      	cmp	r1, r2
 80046ca:	f63f af42 	bhi.w	8004552 <UART_SetConfig+0x8a>
 80046ce:	6822      	ldr	r2, [r4, #0]
 80046d0:	60d3      	str	r3, [r2, #12]
 80046d2:	e7c1      	b.n	8004658 <UART_SetConfig+0x190>
 80046d4:	efff69f3 	.word	0xefff69f3
 80046d8:	40011000 	.word	0x40011000
 80046dc:	40023800 	.word	0x40023800
 80046e0:	40004400 	.word	0x40004400
 80046e4:	40004800 	.word	0x40004800
 80046e8:	40004c00 	.word	0x40004c00
 80046ec:	40005000 	.word	0x40005000
 80046f0:	40011400 	.word	0x40011400
 80046f4:	40007800 	.word	0x40007800
 80046f8:	40007c00 	.word	0x40007c00
 80046fc:	00f42400 	.word	0x00f42400

08004700 <UART_AdvFeatureConfig>:
 8004700:	6a43      	ldr	r3, [r0, #36]	@ 0x24
 8004702:	071a      	lsls	r2, r3, #28
 8004704:	b510      	push	{r4, lr}
 8004706:	d506      	bpl.n	8004716 <UART_AdvFeatureConfig+0x16>
 8004708:	6801      	ldr	r1, [r0, #0]
 800470a:	6b44      	ldr	r4, [r0, #52]	@ 0x34
 800470c:	684a      	ldr	r2, [r1, #4]
 800470e:	f422 4200 	bic.w	r2, r2, #32768	@ 0x8000
 8004712:	4322      	orrs	r2, r4
 8004714:	604a      	str	r2, [r1, #4]
 8004716:	07dc      	lsls	r4, r3, #31
 8004718:	d506      	bpl.n	8004728 <UART_AdvFeatureConfig+0x28>
 800471a:	6801      	ldr	r1, [r0, #0]
 800471c:	6a84      	ldr	r4, [r0, #40]	@ 0x28
 800471e:	684a      	ldr	r2, [r1, #4]
 8004720:	f422 3200 	bic.w	r2, r2, #131072	@ 0x20000
 8004724:	4322      	orrs	r2, r4
 8004726:	604a      	str	r2, [r1, #4]
 8004728:	0799      	lsls	r1, r3, #30
 800472a:	d506      	bpl.n	800473a <UART_AdvFeatureConfig+0x3a>
 800472c:	6801      	ldr	r1, [r0, #0]
 800472e:	6ac4      	ldr	r4, [r0, #44]	@ 0x2c
 8004730:	684a      	ldr	r2, [r1, #4]
 8004732:	f422 3280 	bic.w	r2, r2, #65536	@ 0x10000
 8004736:	4322      	orrs	r2, r4
 8004738:	604a      	str	r2, [r1, #4]
 800473a:	075a      	lsls	r2, r3, #29
 800473c:	d506      	bpl.n	800474c <UART_AdvFeatureConfig+0x4c>
 800473e:	6801      	ldr	r1, [r0, #0]
 8004740:	6b04      	ldr	r4, [r0, #48]	@ 0x30
 8004742:	684a      	ldr	r2, [r1, #4]
 8004744:	f422 2280 	bic.w	r2, r2, #262144	@ 0x40000
 8004748:	4322      	orrs	r2, r4
 800474a:	604a      	str	r2, [r1, #4]
 800474c:	06dc      	lsls	r4, r3, #27
 800474e:	d506      	bpl.n	800475e <UART_AdvFeatureConfig+0x5e>
 8004750:	6801      	ldr	r1, [r0, #0]
 8004752:	6b84      	ldr	r4, [r0, #56]	@ 0x38
 8004754:	688a      	ldr	r2, [r1, #8]
 8004756:	f422 5280 	bic.w	r2, r2, #4096	@ 0x1000
 800475a:	4322      	orrs	r2, r4
 800475c:	608a      	str	r2, [r1, #8]
 800475e:	0699      	lsls	r1, r3, #26
 8004760:	d506      	bpl.n	8004770 <UART_AdvFeatureConfig+0x70>
 8004762:	6801      	ldr	r1, [r0, #0]
 8004764:	6bc4      	ldr	r4, [r0, #60]	@ 0x3c
 8004766:	688a      	ldr	r2, [r1, #8]
 8004768:	f422 5200 	bic.w	r2, r2, #8192	@ 0x2000
 800476c:	4322      	orrs	r2, r4
 800476e:	608a      	str	r2, [r1, #8]
 8004770:	065a      	lsls	r2, r3, #25
 8004772:	d510      	bpl.n	8004796 <UART_AdvFeatureConfig+0x96>
 8004774:	6801      	ldr	r1, [r0, #0]
 8004776:	6c04      	ldr	r4, [r0, #64]	@ 0x40
 8004778:	684a      	ldr	r2, [r1, #4]
 800477a:	f5b4 1f80 	cmp.w	r4, #1048576	@ 0x100000
 800477e:	f422 1280 	bic.w	r2, r2, #1048576	@ 0x100000
 8004782:	ea42 0204 	orr.w	r2, r2, r4
 8004786:	604a      	str	r2, [r1, #4]
 8004788:	d105      	bne.n	8004796 <UART_AdvFeatureConfig+0x96>
 800478a:	684a      	ldr	r2, [r1, #4]
 800478c:	6c44      	ldr	r4, [r0, #68]	@ 0x44
 800478e:	f422 02c0 	bic.w	r2, r2, #6291456	@ 0x600000
 8004792:	4322      	orrs	r2, r4
 8004794:	604a      	str	r2, [r1, #4]
 8004796:	061b      	lsls	r3, r3, #24
 8004798:	d506      	bpl.n	80047a8 <UART_AdvFeatureConfig+0xa8>
 800479a:	6802      	ldr	r2, [r0, #0]
 800479c:	6c81      	ldr	r1, [r0, #72]	@ 0x48
 800479e:	6853      	ldr	r3, [r2, #4]
 80047a0:	f423 2300 	bic.w	r3, r3, #524288	@ 0x80000
 80047a4:	430b      	orrs	r3, r1
 80047a6:	6053      	str	r3, [r2, #4]
 80047a8:	bd10      	pop	{r4, pc}

080047aa <UART_WaitOnFlagUntilTimeout>:
 80047aa:	e92d 43f8 	stmdb	sp!, {r3, r4, r5, r6, r7, r8, r9, lr}
 80047ae:	f8dd 9020 	ldr.w	r9, [sp, #32]
 80047b2:	4604      	mov	r4, r0
 80047b4:	460d      	mov	r5, r1
 80047b6:	4617      	mov	r7, r2
 80047b8:	4698      	mov	r8, r3
 80047ba:	6822      	ldr	r2, [r4, #0]
 80047bc:	69d3      	ldr	r3, [r2, #28]
 80047be:	ea35 0303 	bics.w	r3, r5, r3
 80047c2:	bf0c      	ite	eq
 80047c4:	2301      	moveq	r3, #1
 80047c6:	2300      	movne	r3, #0
 80047c8:	42bb      	cmp	r3, r7
 80047ca:	d001      	beq.n	80047d0 <UART_WaitOnFlagUntilTimeout+0x26>
 80047cc:	2000      	movs	r0, #0
 80047ce:	e022      	b.n	8004816 <UART_WaitOnFlagUntilTimeout+0x6c>
 80047d0:	f1b9 3fff 	cmp.w	r9, #4294967295
 80047d4:	d0f2      	beq.n	80047bc <UART_WaitOnFlagUntilTimeout+0x12>
 80047d6:	f7fd fb9b 	bl	8001f10 <HAL_GetTick>
 80047da:	eba0 0008 	sub.w	r0, r0, r8
 80047de:	4548      	cmp	r0, r9
 80047e0:	d829      	bhi.n	8004836 <UART_WaitOnFlagUntilTimeout+0x8c>
 80047e2:	f1b9 0f00 	cmp.w	r9, #0
 80047e6:	d026      	beq.n	8004836 <UART_WaitOnFlagUntilTimeout+0x8c>
 80047e8:	6821      	ldr	r1, [r4, #0]
 80047ea:	680b      	ldr	r3, [r1, #0]
 80047ec:	075a      	lsls	r2, r3, #29
 80047ee:	d5e4      	bpl.n	80047ba <UART_WaitOnFlagUntilTimeout+0x10>
 80047f0:	2d80      	cmp	r5, #128	@ 0x80
 80047f2:	d0e2      	beq.n	80047ba <UART_WaitOnFlagUntilTimeout+0x10>
 80047f4:	2d40      	cmp	r5, #64	@ 0x40
 80047f6:	d0e0      	beq.n	80047ba <UART_WaitOnFlagUntilTimeout+0x10>
 80047f8:	69ce      	ldr	r6, [r1, #28]
 80047fa:	f016 0608 	ands.w	r6, r6, #8
 80047fe:	d00c      	beq.n	800481a <UART_WaitOnFlagUntilTimeout+0x70>
 8004800:	2508      	movs	r5, #8
 8004802:	4620      	mov	r0, r4
 8004804:	620d      	str	r5, [r1, #32]
 8004806:	f7ff fc1c 	bl	8004042 <UART_EndRxTransfer>
 800480a:	2300      	movs	r3, #0
 800480c:	2001      	movs	r0, #1
 800480e:	f8c4 5084 	str.w	r5, [r4, #132]	@ 0x84
 8004812:	f884 3078 	strb.w	r3, [r4, #120]	@ 0x78
 8004816:	e8bd 83f8 	ldmia.w	sp!, {r3, r4, r5, r6, r7, r8, r9, pc}
 800481a:	69cb      	ldr	r3, [r1, #28]
 800481c:	051b      	lsls	r3, r3, #20
 800481e:	d5cc      	bpl.n	80047ba <UART_WaitOnFlagUntilTimeout+0x10>
 8004820:	f44f 6300 	mov.w	r3, #2048	@ 0x800
 8004824:	4620      	mov	r0, r4
 8004826:	620b      	str	r3, [r1, #32]
 8004828:	f7ff fc0b 	bl	8004042 <UART_EndRxTransfer>
 800482c:	2320      	movs	r3, #32
 800482e:	f884 6078 	strb.w	r6, [r4, #120]	@ 0x78
 8004832:	f8c4 3084 	str.w	r3, [r4, #132]	@ 0x84
 8004836:	2003      	movs	r0, #3
 8004838:	e7ed      	b.n	8004816 <UART_WaitOnFlagUntilTimeout+0x6c>

0800483a <HAL_UART_Transmit>:
 800483a:	e92d 43f7 	stmdb	sp!, {r0, r1, r2, r4, r5, r6, r7, r8, r9, lr}
 800483e:	4698      	mov	r8, r3
 8004840:	6fc3      	ldr	r3, [r0, #124]	@ 0x7c
 8004842:	4604      	mov	r4, r0
 8004844:	460e      	mov	r6, r1
 8004846:	2b20      	cmp	r3, #32
 8004848:	4617      	mov	r7, r2
 800484a:	d143      	bne.n	80048d4 <HAL_UART_Transmit+0x9a>
 800484c:	2900      	cmp	r1, #0
 800484e:	d043      	beq.n	80048d8 <HAL_UART_Transmit+0x9e>
 8004850:	2a00      	cmp	r2, #0
 8004852:	d041      	beq.n	80048d8 <HAL_UART_Transmit+0x9e>
 8004854:	2321      	movs	r3, #33	@ 0x21
 8004856:	2500      	movs	r5, #0
 8004858:	f8c0 5084 	str.w	r5, [r0, #132]	@ 0x84
 800485c:	67c3      	str	r3, [r0, #124]	@ 0x7c
 800485e:	f7fd fb57 	bl	8001f10 <HAL_GetTick>
 8004862:	68a3      	ldr	r3, [r4, #8]
 8004864:	4681      	mov	r9, r0
 8004866:	f8a4 7050 	strh.w	r7, [r4, #80]	@ 0x50
 800486a:	f5b3 5f80 	cmp.w	r3, #4096	@ 0x1000
 800486e:	f8a4 7052 	strh.w	r7, [r4, #82]	@ 0x52
 8004872:	d103      	bne.n	800487c <HAL_UART_Transmit+0x42>
 8004874:	6923      	ldr	r3, [r4, #16]
 8004876:	b90b      	cbnz	r3, 800487c <HAL_UART_Transmit+0x42>
 8004878:	4635      	mov	r5, r6
 800487a:	461e      	mov	r6, r3
 800487c:	f8b4 2052 	ldrh.w	r2, [r4, #82]	@ 0x52
 8004880:	464b      	mov	r3, r9
 8004882:	f8cd 8000 	str.w	r8, [sp]
 8004886:	b292      	uxth	r2, r2
 8004888:	b93a      	cbnz	r2, 800489a <HAL_UART_Transmit+0x60>
 800488a:	2140      	movs	r1, #64	@ 0x40
 800488c:	4620      	mov	r0, r4
 800488e:	f7ff ff8c 	bl	80047aa <UART_WaitOnFlagUntilTimeout>
 8004892:	2320      	movs	r3, #32
 8004894:	b940      	cbnz	r0, 80048a8 <HAL_UART_Transmit+0x6e>
 8004896:	67e3      	str	r3, [r4, #124]	@ 0x7c
 8004898:	e008      	b.n	80048ac <HAL_UART_Transmit+0x72>
 800489a:	2200      	movs	r2, #0
 800489c:	2180      	movs	r1, #128	@ 0x80
 800489e:	4620      	mov	r0, r4
 80048a0:	f7ff ff83 	bl	80047aa <UART_WaitOnFlagUntilTimeout>
 80048a4:	b128      	cbz	r0, 80048b2 <HAL_UART_Transmit+0x78>
 80048a6:	2320      	movs	r3, #32
 80048a8:	2003      	movs	r0, #3
 80048aa:	67e3      	str	r3, [r4, #124]	@ 0x7c
 80048ac:	b003      	add	sp, #12
 80048ae:	e8bd 83f0 	ldmia.w	sp!, {r4, r5, r6, r7, r8, r9, pc}
 80048b2:	6822      	ldr	r2, [r4, #0]
 80048b4:	b95e      	cbnz	r6, 80048ce <HAL_UART_Transmit+0x94>
 80048b6:	f835 3b02 	ldrh.w	r3, [r5], #2
 80048ba:	f3c3 0308 	ubfx	r3, r3, #0, #9
 80048be:	6293      	str	r3, [r2, #40]	@ 0x28
 80048c0:	f8b4 2052 	ldrh.w	r2, [r4, #82]	@ 0x52
 80048c4:	3a01      	subs	r2, #1
 80048c6:	b292      	uxth	r2, r2
 80048c8:	f8a4 2052 	strh.w	r2, [r4, #82]	@ 0x52
 80048cc:	e7d6      	b.n	800487c <HAL_UART_Transmit+0x42>
 80048ce:	f816 3b01 	ldrb.w	r3, [r6], #1
 80048d2:	e7f4      	b.n	80048be <HAL_UART_Transmit+0x84>
 80048d4:	2002      	movs	r0, #2
 80048d6:	e7e9      	b.n	80048ac <HAL_UART_Transmit+0x72>
 80048d8:	2001      	movs	r0, #1
 80048da:	e7e7      	b.n	80048ac <HAL_UART_Transmit+0x72>

080048dc <UART_CheckIdleState>:
 80048dc:	b573      	push	{r0, r1, r4, r5, r6, lr}
 80048de:	2600      	movs	r6, #0
 80048e0:	4604      	mov	r4, r0
 80048e2:	f8c0 6084 	str.w	r6, [r0, #132]	@ 0x84
 80048e6:	f7fd fb13 	bl	8001f10 <HAL_GetTick>
 80048ea:	6823      	ldr	r3, [r4, #0]
 80048ec:	4605      	mov	r5, r0
 80048ee:	681b      	ldr	r3, [r3, #0]
 80048f0:	071a      	lsls	r2, r3, #28
 80048f2:	d51b      	bpl.n	800492c <UART_CheckIdleState+0x50>
 80048f4:	f06f 437e 	mvn.w	r3, #4261412864	@ 0xfe000000
 80048f8:	4632      	mov	r2, r6
 80048fa:	f44f 1100 	mov.w	r1, #2097152	@ 0x200000
 80048fe:	9300      	str	r3, [sp, #0]
 8004900:	4603      	mov	r3, r0
 8004902:	4620      	mov	r0, r4
 8004904:	f7ff ff51 	bl	80047aa <UART_WaitOnFlagUntilTimeout>
 8004908:	b180      	cbz	r0, 800492c <UART_CheckIdleState+0x50>
 800490a:	6822      	ldr	r2, [r4, #0]
 800490c:	e852 3f00 	ldrex	r3, [r2]
 8004910:	f023 0380 	bic.w	r3, r3, #128	@ 0x80
 8004914:	e842 3100 	strex	r1, r3, [r2]
 8004918:	2900      	cmp	r1, #0
 800491a:	d1f6      	bne.n	800490a <UART_CheckIdleState+0x2e>
 800491c:	2320      	movs	r3, #32
 800491e:	67e3      	str	r3, [r4, #124]	@ 0x7c
 8004920:	2003      	movs	r0, #3
 8004922:	2300      	movs	r3, #0
 8004924:	f884 3078 	strb.w	r3, [r4, #120]	@ 0x78
 8004928:	b002      	add	sp, #8
 800492a:	bd70      	pop	{r4, r5, r6, pc}
 800492c:	6823      	ldr	r3, [r4, #0]
 800492e:	681b      	ldr	r3, [r3, #0]
 8004930:	075b      	lsls	r3, r3, #29
 8004932:	d524      	bpl.n	800497e <UART_CheckIdleState+0xa2>
 8004934:	f06f 437e 	mvn.w	r3, #4261412864	@ 0xfe000000
 8004938:	2200      	movs	r2, #0
 800493a:	f44f 0180 	mov.w	r1, #4194304	@ 0x400000
 800493e:	4620      	mov	r0, r4
 8004940:	9300      	str	r3, [sp, #0]
 8004942:	462b      	mov	r3, r5
 8004944:	f7ff ff31 	bl	80047aa <UART_WaitOnFlagUntilTimeout>
 8004948:	b1c8      	cbz	r0, 800497e <UART_CheckIdleState+0xa2>
 800494a:	6822      	ldr	r2, [r4, #0]
 800494c:	e852 3f00 	ldrex	r3, [r2]
 8004950:	f423 7390 	bic.w	r3, r3, #288	@ 0x120
 8004954:	e842 3100 	strex	r1, r3, [r2]
 8004958:	6822      	ldr	r2, [r4, #0]
 800495a:	2900      	cmp	r1, #0
 800495c:	d1f5      	bne.n	800494a <UART_CheckIdleState+0x6e>
 800495e:	f102 0308 	add.w	r3, r2, #8
 8004962:	e853 3f00 	ldrex	r3, [r3]
 8004966:	f023 0301 	bic.w	r3, r3, #1
 800496a:	f102 0008 	add.w	r0, r2, #8
 800496e:	e840 3100 	strex	r1, r3, [r0]
 8004972:	2900      	cmp	r1, #0
 8004974:	d1f3      	bne.n	800495e <UART_CheckIdleState+0x82>
 8004976:	2320      	movs	r3, #32
 8004978:	f8c4 3080 	str.w	r3, [r4, #128]	@ 0x80
 800497c:	e7d0      	b.n	8004920 <UART_CheckIdleState+0x44>
 800497e:	2320      	movs	r3, #32
 8004980:	2000      	movs	r0, #0
 8004982:	67e3      	str	r3, [r4, #124]	@ 0x7c
 8004984:	f8c4 3080 	str.w	r3, [r4, #128]	@ 0x80
 8004988:	6620      	str	r0, [r4, #96]	@ 0x60
 800498a:	6660      	str	r0, [r4, #100]	@ 0x64
 800498c:	e7c9      	b.n	8004922 <UART_CheckIdleState+0x46>

0800498e <HAL_UART_Init>:
 800498e:	b510      	push	{r4, lr}
 8004990:	4604      	mov	r4, r0
 8004992:	b340      	cbz	r0, 80049e6 <HAL_UART_Init+0x58>
 8004994:	6fc3      	ldr	r3, [r0, #124]	@ 0x7c
 8004996:	b91b      	cbnz	r3, 80049a0 <HAL_UART_Init+0x12>
 8004998:	f880 3078 	strb.w	r3, [r0, #120]	@ 0x78
 800499c:	f7fd f924 	bl	8001be8 <HAL_UART_MspInit>
 80049a0:	2324      	movs	r3, #36	@ 0x24
 80049a2:	6822      	ldr	r2, [r4, #0]
 80049a4:	67e3      	str	r3, [r4, #124]	@ 0x7c
 80049a6:	6813      	ldr	r3, [r2, #0]
 80049a8:	f023 0301 	bic.w	r3, r3, #1
 80049ac:	6013      	str	r3, [r2, #0]
 80049ae:	6a63      	ldr	r3, [r4, #36]	@ 0x24
 80049b0:	b113      	cbz	r3, 80049b8 <HAL_UART_Init+0x2a>
 80049b2:	4620      	mov	r0, r4
 80049b4:	f7ff fea4 	bl	8004700 <UART_AdvFeatureConfig>
 80049b8:	4620      	mov	r0, r4
 80049ba:	f7ff fd85 	bl	80044c8 <UART_SetConfig>
 80049be:	2801      	cmp	r0, #1
 80049c0:	d011      	beq.n	80049e6 <HAL_UART_Init+0x58>
 80049c2:	6823      	ldr	r3, [r4, #0]
 80049c4:	4620      	mov	r0, r4
 80049c6:	685a      	ldr	r2, [r3, #4]
 80049c8:	f422 4290 	bic.w	r2, r2, #18432	@ 0x4800
 80049cc:	605a      	str	r2, [r3, #4]
 80049ce:	689a      	ldr	r2, [r3, #8]
 80049d0:	f022 022a 	bic.w	r2, r2, #42	@ 0x2a
 80049d4:	609a      	str	r2, [r3, #8]
 80049d6:	681a      	ldr	r2, [r3, #0]
 80049d8:	f042 0201 	orr.w	r2, r2, #1
 80049dc:	e8bd 4010 	ldmia.w	sp!, {r4, lr}
 80049e0:	601a      	str	r2, [r3, #0]
 80049e2:	f7ff bf7b 	b.w	80048dc <UART_CheckIdleState>
 80049e6:	2001      	movs	r0, #1
 80049e8:	bd10      	pop	{r4, pc}
	...

080049ec <UART_Start_Receive_IT>:
 80049ec:	b510      	push	{r4, lr}
 80049ee:	f8a0 2058 	strh.w	r2, [r0, #88]	@ 0x58
 80049f2:	2300      	movs	r3, #0
 80049f4:	f8a0 205a 	strh.w	r2, [r0, #90]	@ 0x5a
 80049f8:	6882      	ldr	r2, [r0, #8]
 80049fa:	6541      	str	r1, [r0, #84]	@ 0x54
 80049fc:	f5b2 5f80 	cmp.w	r2, #4096	@ 0x1000
 8004a00:	6683      	str	r3, [r0, #104]	@ 0x68
 8004a02:	d130      	bne.n	8004a66 <UART_Start_Receive_IT+0x7a>
 8004a04:	6903      	ldr	r3, [r0, #16]
 8004a06:	2b00      	cmp	r3, #0
 8004a08:	f240 13ff 	movw	r3, #511	@ 0x1ff
 8004a0c:	bf18      	it	ne
 8004a0e:	23ff      	movne	r3, #255	@ 0xff
 8004a10:	f8a0 305c 	strh.w	r3, [r0, #92]	@ 0x5c
 8004a14:	2300      	movs	r3, #0
 8004a16:	f8c0 3084 	str.w	r3, [r0, #132]	@ 0x84
 8004a1a:	2322      	movs	r3, #34	@ 0x22
 8004a1c:	f8c0 3080 	str.w	r3, [r0, #128]	@ 0x80
 8004a20:	6802      	ldr	r2, [r0, #0]
 8004a22:	f102 0308 	add.w	r3, r2, #8
 8004a26:	e853 3f00 	ldrex	r3, [r3]
 8004a2a:	f043 0301 	orr.w	r3, r3, #1
 8004a2e:	3208      	adds	r2, #8
 8004a30:	e842 3100 	strex	r1, r3, [r2]
 8004a34:	6802      	ldr	r2, [r0, #0]
 8004a36:	2900      	cmp	r1, #0
 8004a38:	d1f2      	bne.n	8004a20 <UART_Start_Receive_IT+0x34>
 8004a3a:	6883      	ldr	r3, [r0, #8]
 8004a3c:	6901      	ldr	r1, [r0, #16]
 8004a3e:	f5b3 5f80 	cmp.w	r3, #4096	@ 0x1000
 8004a42:	4b15      	ldr	r3, [pc, #84]	@ (8004a98 <UART_Start_Receive_IT+0xac>)
 8004a44:	d103      	bne.n	8004a4e <UART_Start_Receive_IT+0x62>
 8004a46:	4c15      	ldr	r4, [pc, #84]	@ (8004a9c <UART_Start_Receive_IT+0xb0>)
 8004a48:	2900      	cmp	r1, #0
 8004a4a:	bf08      	it	eq
 8004a4c:	4623      	moveq	r3, r4
 8004a4e:	6683      	str	r3, [r0, #104]	@ 0x68
 8004a50:	b1c9      	cbz	r1, 8004a86 <UART_Start_Receive_IT+0x9a>
 8004a52:	e852 3f00 	ldrex	r3, [r2]
 8004a56:	f443 7390 	orr.w	r3, r3, #288	@ 0x120
 8004a5a:	e842 3100 	strex	r1, r3, [r2]
 8004a5e:	2900      	cmp	r1, #0
 8004a60:	d1f7      	bne.n	8004a52 <UART_Start_Receive_IT+0x66>
 8004a62:	2000      	movs	r0, #0
 8004a64:	bd10      	pop	{r4, pc}
 8004a66:	b92a      	cbnz	r2, 8004a74 <UART_Start_Receive_IT+0x88>
 8004a68:	6903      	ldr	r3, [r0, #16]
 8004a6a:	2b00      	cmp	r3, #0
 8004a6c:	bf14      	ite	ne
 8004a6e:	237f      	movne	r3, #127	@ 0x7f
 8004a70:	23ff      	moveq	r3, #255	@ 0xff
 8004a72:	e7cd      	b.n	8004a10 <UART_Start_Receive_IT+0x24>
 8004a74:	f1b2 5f80 	cmp.w	r2, #268435456	@ 0x10000000
 8004a78:	d1ca      	bne.n	8004a10 <UART_Start_Receive_IT+0x24>
 8004a7a:	6903      	ldr	r3, [r0, #16]
 8004a7c:	2b00      	cmp	r3, #0
 8004a7e:	bf14      	ite	ne
 8004a80:	233f      	movne	r3, #63	@ 0x3f
 8004a82:	237f      	moveq	r3, #127	@ 0x7f
 8004a84:	e7c4      	b.n	8004a10 <UART_Start_Receive_IT+0x24>
 8004a86:	e852 3f00 	ldrex	r3, [r2]
 8004a8a:	f043 0320 	orr.w	r3, r3, #32
 8004a8e:	e842 3100 	strex	r1, r3, [r2]
 8004a92:	2900      	cmp	r1, #0
 8004a94:	d1f7      	bne.n	8004a86 <UART_Start_Receive_IT+0x9a>
 8004a96:	e7e4      	b.n	8004a62 <UART_Start_Receive_IT+0x76>
 8004a98:	080040ad 	.word	0x080040ad
 8004a9c:	0800416d 	.word	0x0800416d

08004aa0 <HAL_UART_Receive_IT>:
 8004aa0:	f8d0 3080 	ldr.w	r3, [r0, #128]	@ 0x80
 8004aa4:	2b20      	cmp	r3, #32
 8004aa6:	b430      	push	{r4, r5}
 8004aa8:	d112      	bne.n	8004ad0 <HAL_UART_Receive_IT+0x30>
 8004aaa:	b1a1      	cbz	r1, 8004ad6 <HAL_UART_Receive_IT+0x36>
 8004aac:	b19a      	cbz	r2, 8004ad6 <HAL_UART_Receive_IT+0x36>
 8004aae:	2300      	movs	r3, #0
 8004ab0:	6804      	ldr	r4, [r0, #0]
 8004ab2:	6603      	str	r3, [r0, #96]	@ 0x60
 8004ab4:	6863      	ldr	r3, [r4, #4]
 8004ab6:	021b      	lsls	r3, r3, #8
 8004ab8:	d507      	bpl.n	8004aca <HAL_UART_Receive_IT+0x2a>
 8004aba:	e854 3f00 	ldrex	r3, [r4]
 8004abe:	f043 6380 	orr.w	r3, r3, #67108864	@ 0x4000000
 8004ac2:	e844 3500 	strex	r5, r3, [r4]
 8004ac6:	2d00      	cmp	r5, #0
 8004ac8:	d1f7      	bne.n	8004aba <HAL_UART_Receive_IT+0x1a>
 8004aca:	bc30      	pop	{r4, r5}
 8004acc:	f7ff bf8e 	b.w	80049ec <UART_Start_Receive_IT>
 8004ad0:	2002      	movs	r0, #2
 8004ad2:	bc30      	pop	{r4, r5}
 8004ad4:	4770      	bx	lr
 8004ad6:	2001      	movs	r0, #1
 8004ad8:	e7fb      	b.n	8004ad2 <HAL_UART_Receive_IT+0x32>

08004ada <USB_CoreReset>:
 8004ada:	b082      	sub	sp, #8
 8004adc:	2300      	movs	r3, #0
 8004ade:	4602      	mov	r2, r0
 8004ae0:	9301      	str	r3, [sp, #4]
 8004ae2:	9b01      	ldr	r3, [sp, #4]
 8004ae4:	3301      	adds	r3, #1
 8004ae6:	9301      	str	r3, [sp, #4]
 8004ae8:	9b01      	ldr	r3, [sp, #4]
 8004aea:	f1b3 6f70 	cmp.w	r3, #251658240	@ 0xf000000
 8004aee:	d815      	bhi.n	8004b1c <USB_CoreReset+0x42>
 8004af0:	6913      	ldr	r3, [r2, #16]
 8004af2:	2b00      	cmp	r3, #0
 8004af4:	daf5      	bge.n	8004ae2 <USB_CoreReset+0x8>
 8004af6:	2300      	movs	r3, #0
 8004af8:	9301      	str	r3, [sp, #4]
 8004afa:	6913      	ldr	r3, [r2, #16]
 8004afc:	f043 0301 	orr.w	r3, r3, #1
 8004b00:	6113      	str	r3, [r2, #16]
 8004b02:	9b01      	ldr	r3, [sp, #4]
 8004b04:	3301      	adds	r3, #1
 8004b06:	9301      	str	r3, [sp, #4]
 8004b08:	9b01      	ldr	r3, [sp, #4]
 8004b0a:	f1b3 6f70 	cmp.w	r3, #251658240	@ 0xf000000
 8004b0e:	d805      	bhi.n	8004b1c <USB_CoreReset+0x42>
 8004b10:	6910      	ldr	r0, [r2, #16]
 8004b12:	f010 0001 	ands.w	r0, r0, #1
 8004b16:	d1f4      	bne.n	8004b02 <USB_CoreReset+0x28>
 8004b18:	b002      	add	sp, #8
 8004b1a:	4770      	bx	lr
 8004b1c:	2003      	movs	r0, #3
 8004b1e:	e7fb      	b.n	8004b18 <USB_CoreReset+0x3e>

08004b20 <USB_CoreInit>:
 8004b20:	b084      	sub	sp, #16
 8004b22:	b538      	push	{r3, r4, r5, lr}
 8004b24:	ad05      	add	r5, sp, #20
 8004b26:	4604      	mov	r4, r0
 8004b28:	e885 000e 	stmia.w	r5, {r1, r2, r3}
 8004b2c:	f89d 3019 	ldrb.w	r3, [sp, #25]
 8004b30:	2b01      	cmp	r3, #1
 8004b32:	d128      	bne.n	8004b86 <USB_CoreInit+0x66>
 8004b34:	6b83      	ldr	r3, [r0, #56]	@ 0x38
 8004b36:	f423 3380 	bic.w	r3, r3, #65536	@ 0x10000
 8004b3a:	6383      	str	r3, [r0, #56]	@ 0x38
 8004b3c:	68c3      	ldr	r3, [r0, #12]
 8004b3e:	f423 0384 	bic.w	r3, r3, #4325376	@ 0x420000
 8004b42:	f023 0340 	bic.w	r3, r3, #64	@ 0x40
 8004b46:	60c3      	str	r3, [r0, #12]
 8004b48:	68c3      	ldr	r3, [r0, #12]
 8004b4a:	f423 1340 	bic.w	r3, r3, #3145728	@ 0x300000
 8004b4e:	60c3      	str	r3, [r0, #12]
 8004b50:	f89d 3020 	ldrb.w	r3, [sp, #32]
 8004b54:	2b01      	cmp	r3, #1
 8004b56:	d103      	bne.n	8004b60 <USB_CoreInit+0x40>
 8004b58:	68c3      	ldr	r3, [r0, #12]
 8004b5a:	f443 1380 	orr.w	r3, r3, #1048576	@ 0x100000
 8004b5e:	60c3      	str	r3, [r0, #12]
 8004b60:	4620      	mov	r0, r4
 8004b62:	f7ff ffba 	bl	8004ada <USB_CoreReset>
 8004b66:	f89d 3016 	ldrb.w	r3, [sp, #22]
 8004b6a:	2b01      	cmp	r3, #1
 8004b6c:	d107      	bne.n	8004b7e <USB_CoreInit+0x5e>
 8004b6e:	68a3      	ldr	r3, [r4, #8]
 8004b70:	f043 0306 	orr.w	r3, r3, #6
 8004b74:	60a3      	str	r3, [r4, #8]
 8004b76:	68a3      	ldr	r3, [r4, #8]
 8004b78:	f043 0320 	orr.w	r3, r3, #32
 8004b7c:	60a3      	str	r3, [r4, #8]
 8004b7e:	e8bd 4038 	ldmia.w	sp!, {r3, r4, r5, lr}
 8004b82:	b004      	add	sp, #16
 8004b84:	4770      	bx	lr
 8004b86:	68c3      	ldr	r3, [r0, #12]
 8004b88:	f043 0340 	orr.w	r3, r3, #64	@ 0x40
 8004b8c:	60c3      	str	r3, [r0, #12]
 8004b8e:	f7ff ffa4 	bl	8004ada <USB_CoreReset>
 8004b92:	6ba3      	ldr	r3, [r4, #56]	@ 0x38
 8004b94:	f443 3380 	orr.w	r3, r3, #65536	@ 0x10000
 8004b98:	63a3      	str	r3, [r4, #56]	@ 0x38
 8004b9a:	e7e4      	b.n	8004b66 <USB_CoreInit+0x46>

08004b9c <USB_DisableGlobalInt>:
 8004b9c:	6883      	ldr	r3, [r0, #8]
 8004b9e:	f023 0301 	bic.w	r3, r3, #1
 8004ba2:	6083      	str	r3, [r0, #8]
 8004ba4:	2000      	movs	r0, #0
 8004ba6:	4770      	bx	lr

08004ba8 <USB_SetCurrentMode>:
 8004ba8:	b538      	push	{r3, r4, r5, lr}
 8004baa:	68c3      	ldr	r3, [r0, #12]
 8004bac:	2901      	cmp	r1, #1
 8004bae:	4605      	mov	r5, r0
 8004bb0:	460c      	mov	r4, r1
 8004bb2:	f023 43c0 	bic.w	r3, r3, #1610612736	@ 0x60000000
 8004bb6:	60c3      	str	r3, [r0, #12]
 8004bb8:	d113      	bne.n	8004be2 <USB_SetCurrentMode+0x3a>
 8004bba:	68c3      	ldr	r3, [r0, #12]
 8004bbc:	2400      	movs	r4, #0
 8004bbe:	f043 5300 	orr.w	r3, r3, #536870912	@ 0x20000000
 8004bc2:	60c3      	str	r3, [r0, #12]
 8004bc4:	200a      	movs	r0, #10
 8004bc6:	340a      	adds	r4, #10
 8004bc8:	f7fd f9a8 	bl	8001f1c <HAL_Delay>
 8004bcc:	696b      	ldr	r3, [r5, #20]
 8004bce:	07d9      	lsls	r1, r3, #31
 8004bd0:	d402      	bmi.n	8004bd8 <USB_SetCurrentMode+0x30>
 8004bd2:	2cc8      	cmp	r4, #200	@ 0xc8
 8004bd4:	d1f6      	bne.n	8004bc4 <USB_SetCurrentMode+0x1c>
 8004bd6:	24c8      	movs	r4, #200	@ 0xc8
 8004bd8:	f1a4 03c8 	sub.w	r3, r4, #200	@ 0xc8
 8004bdc:	4258      	negs	r0, r3
 8004bde:	4158      	adcs	r0, r3
 8004be0:	bd38      	pop	{r3, r4, r5, pc}
 8004be2:	b969      	cbnz	r1, 8004c00 <USB_SetCurrentMode+0x58>
 8004be4:	68c3      	ldr	r3, [r0, #12]
 8004be6:	f043 4380 	orr.w	r3, r3, #1073741824	@ 0x40000000
 8004bea:	60c3      	str	r3, [r0, #12]
 8004bec:	200a      	movs	r0, #10
 8004bee:	340a      	adds	r4, #10
 8004bf0:	f7fd f994 	bl	8001f1c <HAL_Delay>
 8004bf4:	696b      	ldr	r3, [r5, #20]
 8004bf6:	07da      	lsls	r2, r3, #31
 8004bf8:	d5ee      	bpl.n	8004bd8 <USB_SetCurrentMode+0x30>
 8004bfa:	2cc8      	cmp	r4, #200	@ 0xc8
 8004bfc:	d1f6      	bne.n	8004bec <USB_SetCurrentMode+0x44>
 8004bfe:	e7ea      	b.n	8004bd6 <USB_SetCurrentMode+0x2e>
 8004c00:	2001      	movs	r0, #1
 8004c02:	e7ed      	b.n	8004be0 <USB_SetCurrentMode+0x38>

08004c04 <USB_FlushTxFifo>:
 8004c04:	b082      	sub	sp, #8
 8004c06:	2300      	movs	r3, #0
 8004c08:	4602      	mov	r2, r0
 8004c0a:	9301      	str	r3, [sp, #4]
 8004c0c:	9b01      	ldr	r3, [sp, #4]
 8004c0e:	3301      	adds	r3, #1
 8004c10:	9301      	str	r3, [sp, #4]
 8004c12:	9b01      	ldr	r3, [sp, #4]
 8004c14:	f1b3 6f70 	cmp.w	r3, #251658240	@ 0xf000000
 8004c18:	d815      	bhi.n	8004c46 <USB_FlushTxFifo+0x42>
 8004c1a:	6913      	ldr	r3, [r2, #16]
 8004c1c:	2b00      	cmp	r3, #0
 8004c1e:	daf5      	bge.n	8004c0c <USB_FlushTxFifo+0x8>
 8004c20:	0189      	lsls	r1, r1, #6
 8004c22:	2300      	movs	r3, #0
 8004c24:	f041 0120 	orr.w	r1, r1, #32
 8004c28:	9301      	str	r3, [sp, #4]
 8004c2a:	6111      	str	r1, [r2, #16]
 8004c2c:	9b01      	ldr	r3, [sp, #4]
 8004c2e:	3301      	adds	r3, #1
 8004c30:	9301      	str	r3, [sp, #4]
 8004c32:	9b01      	ldr	r3, [sp, #4]
 8004c34:	f1b3 6f70 	cmp.w	r3, #251658240	@ 0xf000000
 8004c38:	d805      	bhi.n	8004c46 <USB_FlushTxFifo+0x42>
 8004c3a:	6910      	ldr	r0, [r2, #16]
 8004c3c:	f010 0020 	ands.w	r0, r0, #32
 8004c40:	d1f4      	bne.n	8004c2c <USB_FlushTxFifo+0x28>
 8004c42:	b002      	add	sp, #8
 8004c44:	4770      	bx	lr
 8004c46:	2003      	movs	r0, #3
 8004c48:	e7fb      	b.n	8004c42 <USB_FlushTxFifo+0x3e>

08004c4a <USB_FlushRxFifo>:
 8004c4a:	b082      	sub	sp, #8
 8004c4c:	2300      	movs	r3, #0
 8004c4e:	4602      	mov	r2, r0
 8004c50:	9301      	str	r3, [sp, #4]
 8004c52:	9b01      	ldr	r3, [sp, #4]
 8004c54:	3301      	adds	r3, #1
 8004c56:	9301      	str	r3, [sp, #4]
 8004c58:	9b01      	ldr	r3, [sp, #4]
 8004c5a:	f1b3 6f70 	cmp.w	r3, #251658240	@ 0xf000000
 8004c5e:	d813      	bhi.n	8004c88 <USB_FlushRxFifo+0x3e>
 8004c60:	6913      	ldr	r3, [r2, #16]
 8004c62:	2b00      	cmp	r3, #0
 8004c64:	daf5      	bge.n	8004c52 <USB_FlushRxFifo+0x8>
 8004c66:	2300      	movs	r3, #0
 8004c68:	9301      	str	r3, [sp, #4]
 8004c6a:	2310      	movs	r3, #16
 8004c6c:	6113      	str	r3, [r2, #16]
 8004c6e:	9b01      	ldr	r3, [sp, #4]
 8004c70:	3301      	adds	r3, #1
 8004c72:	9301      	str	r3, [sp, #4]
 8004c74:	9b01      	ldr	r3, [sp, #4]
 8004c76:	f1b3 6f70 	cmp.w	r3, #251658240	@ 0xf000000
 8004c7a:	d805      	bhi.n	8004c88 <USB_FlushRxFifo+0x3e>
 8004c7c:	6910      	ldr	r0, [r2, #16]
 8004c7e:	f010 0010 	ands.w	r0, r0, #16
 8004c82:	d1f4      	bne.n	8004c6e <USB_FlushRxFifo+0x24>
 8004c84:	b002      	add	sp, #8
 8004c86:	4770      	bx	lr
 8004c88:	2003      	movs	r0, #3
 8004c8a:	e7fb      	b.n	8004c84 <USB_FlushRxFifo+0x3a>

08004c8c <USB_SetDevSpeed>:
 8004c8c:	f8d0 3800 	ldr.w	r3, [r0, #2048]	@ 0x800
 8004c90:	4319      	orrs	r1, r3
 8004c92:	f8c0 1800 	str.w	r1, [r0, #2048]	@ 0x800
 8004c96:	2000      	movs	r0, #0
 8004c98:	4770      	bx	lr
	...

08004c9c <USB_DevInit>:
 8004c9c:	b084      	sub	sp, #16
 8004c9e:	e92d 43f8 	stmdb	sp!, {r3, r4, r5, r6, r7, r8, r9, lr}
 8004ca2:	4604      	mov	r4, r0
 8004ca4:	a809      	add	r0, sp, #36	@ 0x24
 8004ca6:	e880 000e 	stmia.w	r0, {r1, r2, r3}
 8004caa:	2300      	movs	r3, #0
 8004cac:	f89d 6024 	ldrb.w	r6, [sp, #36]	@ 0x24
 8004cb0:	f89d 502e 	ldrb.w	r5, [sp, #46]	@ 0x2e
 8004cb4:	4619      	mov	r1, r3
 8004cb6:	f103 0240 	add.w	r2, r3, #64	@ 0x40
 8004cba:	3301      	adds	r3, #1
 8004cbc:	eb04 0282 	add.w	r2, r4, r2, lsl #2
 8004cc0:	2b0f      	cmp	r3, #15
 8004cc2:	6051      	str	r1, [r2, #4]
 8004cc4:	d1f7      	bne.n	8004cb6 <USB_DevInit+0x1a>
 8004cc6:	f504 6700 	add.w	r7, r4, #2048	@ 0x800
 8004cca:	2d00      	cmp	r5, #0
 8004ccc:	d16c      	bne.n	8004da8 <USB_DevInit+0x10c>
 8004cce:	687b      	ldr	r3, [r7, #4]
 8004cd0:	f043 0302 	orr.w	r3, r3, #2
 8004cd4:	607b      	str	r3, [r7, #4]
 8004cd6:	6ba3      	ldr	r3, [r4, #56]	@ 0x38
 8004cd8:	f423 1300 	bic.w	r3, r3, #2097152	@ 0x200000
 8004cdc:	63a3      	str	r3, [r4, #56]	@ 0x38
 8004cde:	6823      	ldr	r3, [r4, #0]
 8004ce0:	f043 0340 	orr.w	r3, r3, #64	@ 0x40
 8004ce4:	6023      	str	r3, [r4, #0]
 8004ce6:	6823      	ldr	r3, [r4, #0]
 8004ce8:	f043 0380 	orr.w	r3, r3, #128	@ 0x80
 8004cec:	6023      	str	r3, [r4, #0]
 8004cee:	2300      	movs	r3, #0
 8004cf0:	f8c4 3e00 	str.w	r3, [r4, #3584]	@ 0xe00
 8004cf4:	f89d 3029 	ldrb.w	r3, [sp, #41]	@ 0x29
 8004cf8:	2b01      	cmp	r3, #1
 8004cfa:	d15c      	bne.n	8004db6 <USB_DevInit+0x11a>
 8004cfc:	f89d 1027 	ldrb.w	r1, [sp, #39]	@ 0x27
 8004d00:	2900      	cmp	r1, #0
 8004d02:	d156      	bne.n	8004db2 <USB_DevInit+0x116>
 8004d04:	4620      	mov	r0, r4
 8004d06:	f64f 387f 	movw	r8, #64383	@ 0xfb7f
 8004d0a:	f7ff ffbf 	bl	8004c8c <USB_SetDevSpeed>
 8004d0e:	2110      	movs	r1, #16
 8004d10:	4620      	mov	r0, r4
 8004d12:	f7ff ff77 	bl	8004c04 <USB_FlushTxFifo>
 8004d16:	4601      	mov	r1, r0
 8004d18:	4620      	mov	r0, r4
 8004d1a:	f7ff ff96 	bl	8004c4a <USB_FlushRxFifo>
 8004d1e:	4308      	orrs	r0, r1
 8004d20:	2300      	movs	r3, #0
 8004d22:	f504 6210 	add.w	r2, r4, #2304	@ 0x900
 8004d26:	b2c0      	uxtb	r0, r0
 8004d28:	f04f 4c90 	mov.w	ip, #1207959552	@ 0x48000000
 8004d2c:	4619      	mov	r1, r3
 8004d2e:	f04f 6e00 	mov.w	lr, #134217728	@ 0x8000000
 8004d32:	3800      	subs	r0, #0
 8004d34:	613b      	str	r3, [r7, #16]
 8004d36:	617b      	str	r3, [r7, #20]
 8004d38:	bf18      	it	ne
 8004d3a:	2001      	movne	r0, #1
 8004d3c:	61fb      	str	r3, [r7, #28]
 8004d3e:	429e      	cmp	r6, r3
 8004d40:	d83b      	bhi.n	8004dba <USB_DevInit+0x11e>
 8004d42:	2200      	movs	r2, #0
 8004d44:	f504 6330 	add.w	r3, r4, #2816	@ 0xb00
 8004d48:	f04f 4c90 	mov.w	ip, #1207959552	@ 0x48000000
 8004d4c:	f04f 6e00 	mov.w	lr, #134217728	@ 0x8000000
 8004d50:	4611      	mov	r1, r2
 8004d52:	f64f 387f 	movw	r8, #64383	@ 0xfb7f
 8004d56:	4296      	cmp	r6, r2
 8004d58:	d842      	bhi.n	8004de0 <USB_DevInit+0x144>
 8004d5a:	693b      	ldr	r3, [r7, #16]
 8004d5c:	f423 7380 	bic.w	r3, r3, #256	@ 0x100
 8004d60:	613b      	str	r3, [r7, #16]
 8004d62:	2300      	movs	r3, #0
 8004d64:	61a3      	str	r3, [r4, #24]
 8004d66:	f06f 4380 	mvn.w	r3, #1073741824	@ 0x40000000
 8004d6a:	6163      	str	r3, [r4, #20]
 8004d6c:	f89d 3026 	ldrb.w	r3, [sp, #38]	@ 0x26
 8004d70:	b91b      	cbnz	r3, 8004d7a <USB_DevInit+0xde>
 8004d72:	69a3      	ldr	r3, [r4, #24]
 8004d74:	f043 0310 	orr.w	r3, r3, #16
 8004d78:	61a3      	str	r3, [r4, #24]
 8004d7a:	69a2      	ldr	r2, [r4, #24]
 8004d7c:	4b22      	ldr	r3, [pc, #136]	@ (8004e08 <USB_DevInit+0x16c>)
 8004d7e:	4313      	orrs	r3, r2
 8004d80:	61a3      	str	r3, [r4, #24]
 8004d82:	f89d 302a 	ldrb.w	r3, [sp, #42]	@ 0x2a
 8004d86:	b11b      	cbz	r3, 8004d90 <USB_DevInit+0xf4>
 8004d88:	69a3      	ldr	r3, [r4, #24]
 8004d8a:	f043 0308 	orr.w	r3, r3, #8
 8004d8e:	61a3      	str	r3, [r4, #24]
 8004d90:	2d01      	cmp	r5, #1
 8004d92:	d105      	bne.n	8004da0 <USB_DevInit+0x104>
 8004d94:	69a3      	ldr	r3, [r4, #24]
 8004d96:	f043 4380 	orr.w	r3, r3, #1073741824	@ 0x40000000
 8004d9a:	f043 0304 	orr.w	r3, r3, #4
 8004d9e:	61a3      	str	r3, [r4, #24]
 8004da0:	e8bd 43f8 	ldmia.w	sp!, {r3, r4, r5, r6, r7, r8, r9, lr}
 8004da4:	b004      	add	sp, #16
 8004da6:	4770      	bx	lr
 8004da8:	6ba3      	ldr	r3, [r4, #56]	@ 0x38
 8004daa:	f443 1300 	orr.w	r3, r3, #2097152	@ 0x200000
 8004dae:	63a3      	str	r3, [r4, #56]	@ 0x38
 8004db0:	e79d      	b.n	8004cee <USB_DevInit+0x52>
 8004db2:	4619      	mov	r1, r3
 8004db4:	e7a6      	b.n	8004d04 <USB_DevInit+0x68>
 8004db6:	2103      	movs	r1, #3
 8004db8:	e7a4      	b.n	8004d04 <USB_DevInit+0x68>
 8004dba:	f8d2 9000 	ldr.w	r9, [r2]
 8004dbe:	f1b9 0f00 	cmp.w	r9, #0
 8004dc2:	da0b      	bge.n	8004ddc <USB_DevInit+0x140>
 8004dc4:	b93b      	cbnz	r3, 8004dd6 <USB_DevInit+0x13a>
 8004dc6:	f8c2 e000 	str.w	lr, [r2]
 8004dca:	6111      	str	r1, [r2, #16]
 8004dcc:	3301      	adds	r3, #1
 8004dce:	f8c2 8008 	str.w	r8, [r2, #8]
 8004dd2:	3220      	adds	r2, #32
 8004dd4:	e7b3      	b.n	8004d3e <USB_DevInit+0xa2>
 8004dd6:	f8c2 c000 	str.w	ip, [r2]
 8004dda:	e7f6      	b.n	8004dca <USB_DevInit+0x12e>
 8004ddc:	6011      	str	r1, [r2, #0]
 8004dde:	e7f4      	b.n	8004dca <USB_DevInit+0x12e>
 8004de0:	f8d3 9000 	ldr.w	r9, [r3]
 8004de4:	f1b9 0f00 	cmp.w	r9, #0
 8004de8:	da0b      	bge.n	8004e02 <USB_DevInit+0x166>
 8004dea:	b93a      	cbnz	r2, 8004dfc <USB_DevInit+0x160>
 8004dec:	f8c3 e000 	str.w	lr, [r3]
 8004df0:	6119      	str	r1, [r3, #16]
 8004df2:	3201      	adds	r2, #1
 8004df4:	f8c3 8008 	str.w	r8, [r3, #8]
 8004df8:	3320      	adds	r3, #32
 8004dfa:	e7ac      	b.n	8004d56 <USB_DevInit+0xba>
 8004dfc:	f8c3 c000 	str.w	ip, [r3]
 8004e00:	e7f6      	b.n	8004df0 <USB_DevInit+0x154>
 8004e02:	6019      	str	r1, [r3, #0]
 8004e04:	e7f4      	b.n	8004df0 <USB_DevInit+0x154>
 8004e06:	bf00      	nop
 8004e08:	803c3800 	.word	0x803c3800

08004e0c <USB_DevDisconnect>:
 8004e0c:	f8d0 3e00 	ldr.w	r3, [r0, #3584]	@ 0xe00
 8004e10:	f023 0303 	bic.w	r3, r3, #3
 8004e14:	f8c0 3e00 	str.w	r3, [r0, #3584]	@ 0xe00
 8004e18:	f8d0 3804 	ldr.w	r3, [r0, #2052]	@ 0x804
 8004e1c:	f043 0302 	orr.w	r3, r3, #2
 8004e20:	f8c0 3804 	str.w	r3, [r0, #2052]	@ 0x804
 8004e24:	2000      	movs	r0, #0
 8004e26:	4770      	bx	lr

08004e28 <osKernelInitialize>:
 8004e28:	f3ef 8305 	mrs	r3, IPSR
 8004e2c:	b113      	cbz	r3, 8004e34 <osKernelInitialize+0xc>
 8004e2e:	f06f 0005 	mvn.w	r0, #5
 8004e32:	4770      	bx	lr
 8004e34:	f3ef 8210 	mrs	r2, PRIMASK
 8004e38:	4b07      	ldr	r3, [pc, #28]	@ (8004e58 <osKernelInitialize+0x30>)
 8004e3a:	b912      	cbnz	r2, 8004e42 <osKernelInitialize+0x1a>
 8004e3c:	f3ef 8211 	mrs	r2, BASEPRI
 8004e40:	b112      	cbz	r2, 8004e48 <osKernelInitialize+0x20>
 8004e42:	681a      	ldr	r2, [r3, #0]
 8004e44:	2a02      	cmp	r2, #2
 8004e46:	d0f2      	beq.n	8004e2e <osKernelInitialize+0x6>
 8004e48:	6818      	ldr	r0, [r3, #0]
 8004e4a:	b910      	cbnz	r0, 8004e52 <osKernelInitialize+0x2a>
 8004e4c:	2201      	movs	r2, #1
 8004e4e:	601a      	str	r2, [r3, #0]
 8004e50:	4770      	bx	lr
 8004e52:	f04f 30ff 	mov.w	r0, #4294967295
 8004e56:	4770      	bx	lr
 8004e58:	2000117c 	.word	0x2000117c

08004e5c <osKernelStart>:
 8004e5c:	b508      	push	{r3, lr}
 8004e5e:	f3ef 8305 	mrs	r3, IPSR
 8004e62:	b113      	cbz	r3, 8004e6a <osKernelStart+0xe>
 8004e64:	f06f 0005 	mvn.w	r0, #5
 8004e68:	bd08      	pop	{r3, pc}
 8004e6a:	f3ef 8210 	mrs	r2, PRIMASK
 8004e6e:	4b0a      	ldr	r3, [pc, #40]	@ (8004e98 <osKernelStart+0x3c>)
 8004e70:	b912      	cbnz	r2, 8004e78 <osKernelStart+0x1c>
 8004e72:	f3ef 8211 	mrs	r2, BASEPRI
 8004e76:	b112      	cbz	r2, 8004e7e <osKernelStart+0x22>
 8004e78:	681a      	ldr	r2, [r3, #0]
 8004e7a:	2a02      	cmp	r2, #2
 8004e7c:	d0f2      	beq.n	8004e64 <osKernelStart+0x8>
 8004e7e:	681a      	ldr	r2, [r3, #0]
 8004e80:	2a01      	cmp	r2, #1
 8004e82:	d105      	bne.n	8004e90 <osKernelStart+0x34>
 8004e84:	2202      	movs	r2, #2
 8004e86:	601a      	str	r2, [r3, #0]
 8004e88:	f000 fdbe 	bl	8005a08 <vTaskStartScheduler>
 8004e8c:	2000      	movs	r0, #0
 8004e8e:	e7eb      	b.n	8004e68 <osKernelStart+0xc>
 8004e90:	f04f 30ff 	mov.w	r0, #4294967295
 8004e94:	e7e8      	b.n	8004e68 <osKernelStart+0xc>
 8004e96:	bf00      	nop
 8004e98:	2000117c 	.word	0x2000117c

08004e9c <osThreadNew>:
 8004e9c:	b5f0      	push	{r4, r5, r6, r7, lr}
 8004e9e:	4614      	mov	r4, r2
 8004ea0:	b087      	sub	sp, #28
 8004ea2:	2200      	movs	r2, #0
 8004ea4:	460b      	mov	r3, r1
 8004ea6:	9205      	str	r2, [sp, #20]
 8004ea8:	f3ef 8205 	mrs	r2, IPSR
 8004eac:	bb1a      	cbnz	r2, 8004ef6 <osThreadNew+0x5a>
 8004eae:	f3ef 8210 	mrs	r2, PRIMASK
 8004eb2:	b912      	cbnz	r2, 8004eba <osThreadNew+0x1e>
 8004eb4:	f3ef 8211 	mrs	r2, BASEPRI
 8004eb8:	b11a      	cbz	r2, 8004ec2 <osThreadNew+0x26>
 8004eba:	4a21      	ldr	r2, [pc, #132]	@ (8004f40 <osThreadNew+0xa4>)
 8004ebc:	6812      	ldr	r2, [r2, #0]
 8004ebe:	2a02      	cmp	r2, #2
 8004ec0:	d019      	beq.n	8004ef6 <osThreadNew+0x5a>
 8004ec2:	b1c0      	cbz	r0, 8004ef6 <osThreadNew+0x5a>
 8004ec4:	b36c      	cbz	r4, 8004f22 <osThreadNew+0x86>
 8004ec6:	69a5      	ldr	r5, [r4, #24]
 8004ec8:	2d00      	cmp	r5, #0
 8004eca:	bf08      	it	eq
 8004ecc:	2518      	moveq	r5, #24
 8004ece:	1e6a      	subs	r2, r5, #1
 8004ed0:	46ac      	mov	ip, r5
 8004ed2:	2a37      	cmp	r2, #55	@ 0x37
 8004ed4:	d82a      	bhi.n	8004f2c <osThreadNew+0x90>
 8004ed6:	6862      	ldr	r2, [r4, #4]
 8004ed8:	07d2      	lsls	r2, r2, #31
 8004eda:	d427      	bmi.n	8004f2c <osThreadNew+0x90>
 8004edc:	6966      	ldr	r6, [r4, #20]
 8004ede:	b16e      	cbz	r6, 8004efc <osThreadNew+0x60>
 8004ee0:	08b2      	lsrs	r2, r6, #2
 8004ee2:	6821      	ldr	r1, [r4, #0]
 8004ee4:	e9d4 7e02 	ldrd	r7, lr, [r4, #8]
 8004ee8:	b157      	cbz	r7, 8004f00 <osThreadNew+0x64>
 8004eea:	f1be 0f5b 	cmp.w	lr, #91	@ 0x5b
 8004eee:	d902      	bls.n	8004ef6 <osThreadNew+0x5a>
 8004ef0:	6924      	ldr	r4, [r4, #16]
 8004ef2:	b104      	cbz	r4, 8004ef6 <osThreadNew+0x5a>
 8004ef4:	b9e6      	cbnz	r6, 8004f30 <osThreadNew+0x94>
 8004ef6:	9805      	ldr	r0, [sp, #20]
 8004ef8:	b007      	add	sp, #28
 8004efa:	bdf0      	pop	{r4, r5, r6, r7, pc}
 8004efc:	2280      	movs	r2, #128	@ 0x80
 8004efe:	e7f0      	b.n	8004ee2 <osThreadNew+0x46>
 8004f00:	f1be 0f00 	cmp.w	lr, #0
 8004f04:	d1f7      	bne.n	8004ef6 <osThreadNew+0x5a>
 8004f06:	6924      	ldr	r4, [r4, #16]
 8004f08:	2c00      	cmp	r4, #0
 8004f0a:	d1f4      	bne.n	8004ef6 <osThreadNew+0x5a>
 8004f0c:	ac05      	add	r4, sp, #20
 8004f0e:	b292      	uxth	r2, r2
 8004f10:	e9cd c400 	strd	ip, r4, [sp]
 8004f14:	f000 fd49 	bl	80059aa <xTaskCreate>
 8004f18:	2801      	cmp	r0, #1
 8004f1a:	bf1c      	itt	ne
 8004f1c:	2300      	movne	r3, #0
 8004f1e:	9305      	strne	r3, [sp, #20]
 8004f20:	e7e9      	b.n	8004ef6 <osThreadNew+0x5a>
 8004f22:	4621      	mov	r1, r4
 8004f24:	f04f 0c18 	mov.w	ip, #24
 8004f28:	2280      	movs	r2, #128	@ 0x80
 8004f2a:	e7ef      	b.n	8004f0c <osThreadNew+0x70>
 8004f2c:	2000      	movs	r0, #0
 8004f2e:	e7e3      	b.n	8004ef8 <osThreadNew+0x5c>
 8004f30:	e9cd 4701 	strd	r4, r7, [sp, #4]
 8004f34:	9500      	str	r5, [sp, #0]
 8004f36:	f000 fcfa 	bl	800592e <xTaskCreateStatic>
 8004f3a:	9005      	str	r0, [sp, #20]
 8004f3c:	e7db      	b.n	8004ef6 <osThreadNew+0x5a>
 8004f3e:	bf00      	nop
 8004f40:	2000117c 	.word	0x2000117c

08004f44 <osDelay>:
 8004f44:	b508      	push	{r3, lr}
 8004f46:	f3ef 8305 	mrs	r3, IPSR
 8004f4a:	b113      	cbz	r3, 8004f52 <osDelay+0xe>
 8004f4c:	f06f 0005 	mvn.w	r0, #5
 8004f50:	bd08      	pop	{r3, pc}
 8004f52:	f3ef 8310 	mrs	r3, PRIMASK
 8004f56:	b913      	cbnz	r3, 8004f5e <osDelay+0x1a>
 8004f58:	f3ef 8311 	mrs	r3, BASEPRI
 8004f5c:	b11b      	cbz	r3, 8004f66 <osDelay+0x22>
 8004f5e:	4b04      	ldr	r3, [pc, #16]	@ (8004f70 <osDelay+0x2c>)
 8004f60:	681b      	ldr	r3, [r3, #0]
 8004f62:	2b02      	cmp	r3, #2
 8004f64:	d0f2      	beq.n	8004f4c <osDelay+0x8>
 8004f66:	b108      	cbz	r0, 8004f6c <osDelay+0x28>
 8004f68:	f000 feb4 	bl	8005cd4 <vTaskDelay>
 8004f6c:	2000      	movs	r0, #0
 8004f6e:	e7ef      	b.n	8004f50 <osDelay+0xc>
 8004f70:	2000117c 	.word	0x2000117c

08004f74 <vApplicationGetIdleTaskMemory>:
 8004f74:	4b03      	ldr	r3, [pc, #12]	@ (8004f84 <vApplicationGetIdleTaskMemory+0x10>)
 8004f76:	6003      	str	r3, [r0, #0]
 8004f78:	4b03      	ldr	r3, [pc, #12]	@ (8004f88 <vApplicationGetIdleTaskMemory+0x14>)
 8004f7a:	600b      	str	r3, [r1, #0]
 8004f7c:	2380      	movs	r3, #128	@ 0x80
 8004f7e:	6013      	str	r3, [r2, #0]
 8004f80:	4770      	bx	lr
 8004f82:	bf00      	nop
 8004f84:	20001120 	.word	0x20001120
 8004f88:	20000f20 	.word	0x20000f20

08004f8c <vApplicationGetTimerTaskMemory>:
 8004f8c:	4b03      	ldr	r3, [pc, #12]	@ (8004f9c <vApplicationGetTimerTaskMemory+0x10>)
 8004f8e:	6003      	str	r3, [r0, #0]
 8004f90:	4b03      	ldr	r3, [pc, #12]	@ (8004fa0 <vApplicationGetTimerTaskMemory+0x14>)
 8004f92:	600b      	str	r3, [r1, #0]
 8004f94:	f44f 7380 	mov.w	r3, #256	@ 0x100
 8004f98:	6013      	str	r3, [r2, #0]
 8004f9a:	4770      	bx	lr
 8004f9c:	20000ec4 	.word	0x20000ec4
 8004fa0:	20000ac4 	.word	0x20000ac4

08004fa4 <vListInitialise>:
 8004fa4:	f100 0308 	add.w	r3, r0, #8
 8004fa8:	f04f 32ff 	mov.w	r2, #4294967295
 8004fac:	6043      	str	r3, [r0, #4]
 8004fae:	6103      	str	r3, [r0, #16]
 8004fb0:	e9c0 2302 	strd	r2, r3, [r0, #8]
 8004fb4:	2300      	movs	r3, #0
 8004fb6:	6003      	str	r3, [r0, #0]
 8004fb8:	4770      	bx	lr

08004fba <vListInitialiseItem>:
 8004fba:	2300      	movs	r3, #0
 8004fbc:	6103      	str	r3, [r0, #16]
 8004fbe:	4770      	bx	lr

08004fc0 <vListInsertEnd>:
 8004fc0:	6843      	ldr	r3, [r0, #4]
 8004fc2:	689a      	ldr	r2, [r3, #8]
 8004fc4:	604b      	str	r3, [r1, #4]
 8004fc6:	608a      	str	r2, [r1, #8]
 8004fc8:	6051      	str	r1, [r2, #4]
 8004fca:	6099      	str	r1, [r3, #8]
 8004fcc:	6803      	ldr	r3, [r0, #0]
 8004fce:	6108      	str	r0, [r1, #16]
 8004fd0:	3301      	adds	r3, #1
 8004fd2:	6003      	str	r3, [r0, #0]
 8004fd4:	4770      	bx	lr

08004fd6 <vListInsert>:
 8004fd6:	b530      	push	{r4, r5, lr}
 8004fd8:	680c      	ldr	r4, [r1, #0]
 8004fda:	1c63      	adds	r3, r4, #1
 8004fdc:	d10a      	bne.n	8004ff4 <vListInsert+0x1e>
 8004fde:	6903      	ldr	r3, [r0, #16]
 8004fe0:	685a      	ldr	r2, [r3, #4]
 8004fe2:	604a      	str	r2, [r1, #4]
 8004fe4:	6091      	str	r1, [r2, #8]
 8004fe6:	608b      	str	r3, [r1, #8]
 8004fe8:	6059      	str	r1, [r3, #4]
 8004fea:	6803      	ldr	r3, [r0, #0]
 8004fec:	6108      	str	r0, [r1, #16]
 8004fee:	3301      	adds	r3, #1
 8004ff0:	6003      	str	r3, [r0, #0]
 8004ff2:	bd30      	pop	{r4, r5, pc}
 8004ff4:	f100 0208 	add.w	r2, r0, #8
 8004ff8:	4613      	mov	r3, r2
 8004ffa:	6852      	ldr	r2, [r2, #4]
 8004ffc:	6815      	ldr	r5, [r2, #0]
 8004ffe:	42a5      	cmp	r5, r4
 8005000:	d9fa      	bls.n	8004ff8 <vListInsert+0x22>
 8005002:	e7ed      	b.n	8004fe0 <vListInsert+0xa>

08005004 <uxListRemove>:
 8005004:	6903      	ldr	r3, [r0, #16]
 8005006:	e9d0 1201 	ldrd	r1, r2, [r0, #4]
 800500a:	608a      	str	r2, [r1, #8]
 800500c:	6051      	str	r1, [r2, #4]
 800500e:	6859      	ldr	r1, [r3, #4]
 8005010:	4281      	cmp	r1, r0
 8005012:	bf08      	it	eq
 8005014:	605a      	streq	r2, [r3, #4]
 8005016:	2200      	movs	r2, #0
 8005018:	6102      	str	r2, [r0, #16]
 800501a:	681a      	ldr	r2, [r3, #0]
 800501c:	3a01      	subs	r2, #1
 800501e:	601a      	str	r2, [r3, #0]
 8005020:	6818      	ldr	r0, [r3, #0]
 8005022:	4770      	bx	lr

08005024 <prvIsQueueEmpty>:
 8005024:	b510      	push	{r4, lr}
 8005026:	4604      	mov	r4, r0
 8005028:	f001 fa3c 	bl	80064a4 <vPortEnterCritical>
 800502c:	6ba4      	ldr	r4, [r4, #56]	@ 0x38
 800502e:	f001 fa5d 	bl	80064ec <vPortExitCritical>
 8005032:	fab4 f084 	clz	r0, r4
 8005036:	0940      	lsrs	r0, r0, #5
 8005038:	bd10      	pop	{r4, pc}

0800503a <prvCopyDataToQueue>:
 800503a:	b570      	push	{r4, r5, r6, lr}
 800503c:	4616      	mov	r6, r2
 800503e:	6c02      	ldr	r2, [r0, #64]	@ 0x40
 8005040:	4604      	mov	r4, r0
 8005042:	6b85      	ldr	r5, [r0, #56]	@ 0x38
 8005044:	b942      	cbnz	r2, 8005058 <prvCopyDataToQueue+0x1e>
 8005046:	6806      	ldr	r6, [r0, #0]
 8005048:	b99e      	cbnz	r6, 8005072 <prvCopyDataToQueue+0x38>
 800504a:	6880      	ldr	r0, [r0, #8]
 800504c:	f000 ff86 	bl	8005f5c <xTaskPriorityDisinherit>
 8005050:	60a6      	str	r6, [r4, #8]
 8005052:	3501      	adds	r5, #1
 8005054:	63a5      	str	r5, [r4, #56]	@ 0x38
 8005056:	bd70      	pop	{r4, r5, r6, pc}
 8005058:	b96e      	cbnz	r6, 8005076 <prvCopyDataToQueue+0x3c>
 800505a:	6840      	ldr	r0, [r0, #4]
 800505c:	f001 fd12 	bl	8006a84 <memcpy>
 8005060:	6863      	ldr	r3, [r4, #4]
 8005062:	6c22      	ldr	r2, [r4, #64]	@ 0x40
 8005064:	4413      	add	r3, r2
 8005066:	68a2      	ldr	r2, [r4, #8]
 8005068:	4293      	cmp	r3, r2
 800506a:	6063      	str	r3, [r4, #4]
 800506c:	bf24      	itt	cs
 800506e:	6823      	ldrcs	r3, [r4, #0]
 8005070:	6063      	strcs	r3, [r4, #4]
 8005072:	2000      	movs	r0, #0
 8005074:	e7ed      	b.n	8005052 <prvCopyDataToQueue+0x18>
 8005076:	68c0      	ldr	r0, [r0, #12]
 8005078:	f001 fd04 	bl	8006a84 <memcpy>
 800507c:	6c22      	ldr	r2, [r4, #64]	@ 0x40
 800507e:	68e3      	ldr	r3, [r4, #12]
 8005080:	4251      	negs	r1, r2
 8005082:	1a9b      	subs	r3, r3, r2
 8005084:	6822      	ldr	r2, [r4, #0]
 8005086:	4293      	cmp	r3, r2
 8005088:	60e3      	str	r3, [r4, #12]
 800508a:	bf3e      	ittt	cc
 800508c:	68a3      	ldrcc	r3, [r4, #8]
 800508e:	185b      	addcc	r3, r3, r1
 8005090:	60e3      	strcc	r3, [r4, #12]
 8005092:	2e02      	cmp	r6, #2
 8005094:	d1ed      	bne.n	8005072 <prvCopyDataToQueue+0x38>
 8005096:	b10d      	cbz	r5, 800509c <prvCopyDataToQueue+0x62>
 8005098:	3d01      	subs	r5, #1
 800509a:	e7ea      	b.n	8005072 <prvCopyDataToQueue+0x38>
 800509c:	4628      	mov	r0, r5
 800509e:	e7d8      	b.n	8005052 <prvCopyDataToQueue+0x18>

080050a0 <prvCopyDataFromQueue>:
 80050a0:	4603      	mov	r3, r0
 80050a2:	4608      	mov	r0, r1
 80050a4:	6c1a      	ldr	r2, [r3, #64]	@ 0x40
 80050a6:	b410      	push	{r4}
 80050a8:	b162      	cbz	r2, 80050c4 <prvCopyDataFromQueue+0x24>
 80050aa:	68dc      	ldr	r4, [r3, #12]
 80050ac:	6899      	ldr	r1, [r3, #8]
 80050ae:	4414      	add	r4, r2
 80050b0:	428c      	cmp	r4, r1
 80050b2:	60dc      	str	r4, [r3, #12]
 80050b4:	f85d 4b04 	ldr.w	r4, [sp], #4
 80050b8:	bf24      	itt	cs
 80050ba:	6819      	ldrcs	r1, [r3, #0]
 80050bc:	60d9      	strcs	r1, [r3, #12]
 80050be:	68d9      	ldr	r1, [r3, #12]
 80050c0:	f001 bce0 	b.w	8006a84 <memcpy>
 80050c4:	f85d 4b04 	ldr.w	r4, [sp], #4
 80050c8:	4770      	bx	lr

080050ca <prvUnlockQueue>:
 80050ca:	b570      	push	{r4, r5, r6, lr}
 80050cc:	4604      	mov	r4, r0
 80050ce:	f001 f9e9 	bl	80064a4 <vPortEnterCritical>
 80050d2:	f894 5045 	ldrb.w	r5, [r4, #69]	@ 0x45
 80050d6:	f104 0624 	add.w	r6, r4, #36	@ 0x24
 80050da:	b26d      	sxtb	r5, r5
 80050dc:	2d00      	cmp	r5, #0
 80050de:	dc14      	bgt.n	800510a <prvUnlockQueue+0x40>
 80050e0:	23ff      	movs	r3, #255	@ 0xff
 80050e2:	f104 0610 	add.w	r6, r4, #16
 80050e6:	f884 3045 	strb.w	r3, [r4, #69]	@ 0x45
 80050ea:	f001 f9ff 	bl	80064ec <vPortExitCritical>
 80050ee:	f001 f9d9 	bl	80064a4 <vPortEnterCritical>
 80050f2:	f894 5044 	ldrb.w	r5, [r4, #68]	@ 0x44
 80050f6:	b26d      	sxtb	r5, r5
 80050f8:	2d00      	cmp	r5, #0
 80050fa:	dc12      	bgt.n	8005122 <prvUnlockQueue+0x58>
 80050fc:	23ff      	movs	r3, #255	@ 0xff
 80050fe:	f884 3044 	strb.w	r3, [r4, #68]	@ 0x44
 8005102:	e8bd 4070 	ldmia.w	sp!, {r4, r5, r6, lr}
 8005106:	f001 b9f1 	b.w	80064ec <vPortExitCritical>
 800510a:	6a63      	ldr	r3, [r4, #36]	@ 0x24
 800510c:	2b00      	cmp	r3, #0
 800510e:	d0e7      	beq.n	80050e0 <prvUnlockQueue+0x16>
 8005110:	4630      	mov	r0, r6
 8005112:	f000 fe7d 	bl	8005e10 <xTaskRemoveFromEventList>
 8005116:	b108      	cbz	r0, 800511c <prvUnlockQueue+0x52>
 8005118:	f000 ff0a 	bl	8005f30 <vTaskMissedYield>
 800511c:	3d01      	subs	r5, #1
 800511e:	b26d      	sxtb	r5, r5
 8005120:	e7dc      	b.n	80050dc <prvUnlockQueue+0x12>
 8005122:	6923      	ldr	r3, [r4, #16]
 8005124:	2b00      	cmp	r3, #0
 8005126:	d0e9      	beq.n	80050fc <prvUnlockQueue+0x32>
 8005128:	4630      	mov	r0, r6
 800512a:	f000 fe71 	bl	8005e10 <xTaskRemoveFromEventList>
 800512e:	b108      	cbz	r0, 8005134 <prvUnlockQueue+0x6a>
 8005130:	f000 fefe 	bl	8005f30 <vTaskMissedYield>
 8005134:	3d01      	subs	r5, #1
 8005136:	b26d      	sxtb	r5, r5
 8005138:	e7de      	b.n	80050f8 <prvUnlockQueue+0x2e>

0800513a <xQueueGenericReset>:
 800513a:	b538      	push	{r3, r4, r5, lr}
 800513c:	460d      	mov	r5, r1
 800513e:	4604      	mov	r4, r0
 8005140:	b950      	cbnz	r0, 8005158 <xQueueGenericReset+0x1e>
 8005142:	f04f 0350 	mov.w	r3, #80	@ 0x50
 8005146:	b672      	cpsid	i
 8005148:	f383 8811 	msr	BASEPRI, r3
 800514c:	f3bf 8f6f 	isb	sy
 8005150:	f3bf 8f4f 	dsb	sy
 8005154:	b662      	cpsie	i
 8005156:	e7fe      	b.n	8005156 <xQueueGenericReset+0x1c>
 8005158:	f001 f9a4 	bl	80064a4 <vPortEnterCritical>
 800515c:	6822      	ldr	r2, [r4, #0]
 800515e:	e9d4 310f 	ldrd	r3, r1, [r4, #60]	@ 0x3c
 8005162:	6062      	str	r2, [r4, #4]
 8005164:	434b      	muls	r3, r1
 8005166:	18d0      	adds	r0, r2, r3
 8005168:	1a5b      	subs	r3, r3, r1
 800516a:	60a0      	str	r0, [r4, #8]
 800516c:	441a      	add	r2, r3
 800516e:	2000      	movs	r0, #0
 8005170:	23ff      	movs	r3, #255	@ 0xff
 8005172:	60e2      	str	r2, [r4, #12]
 8005174:	63a0      	str	r0, [r4, #56]	@ 0x38
 8005176:	f884 3044 	strb.w	r3, [r4, #68]	@ 0x44
 800517a:	f884 3045 	strb.w	r3, [r4, #69]	@ 0x45
 800517e:	b9a5      	cbnz	r5, 80051aa <xQueueGenericReset+0x70>
 8005180:	6923      	ldr	r3, [r4, #16]
 8005182:	b173      	cbz	r3, 80051a2 <xQueueGenericReset+0x68>
 8005184:	f104 0010 	add.w	r0, r4, #16
 8005188:	f000 fe42 	bl	8005e10 <xTaskRemoveFromEventList>
 800518c:	b148      	cbz	r0, 80051a2 <xQueueGenericReset+0x68>
 800518e:	f04f 23e0 	mov.w	r3, #3758153728	@ 0xe000e000
 8005192:	f04f 5280 	mov.w	r2, #268435456	@ 0x10000000
 8005196:	f8c3 2d04 	str.w	r2, [r3, #3332]	@ 0xd04
 800519a:	f3bf 8f4f 	dsb	sy
 800519e:	f3bf 8f6f 	isb	sy
 80051a2:	f001 f9a3 	bl	80064ec <vPortExitCritical>
 80051a6:	2001      	movs	r0, #1
 80051a8:	bd38      	pop	{r3, r4, r5, pc}
 80051aa:	f104 0010 	add.w	r0, r4, #16
 80051ae:	f7ff fef9 	bl	8004fa4 <vListInitialise>
 80051b2:	f104 0024 	add.w	r0, r4, #36	@ 0x24
 80051b6:	f7ff fef5 	bl	8004fa4 <vListInitialise>
 80051ba:	e7f2      	b.n	80051a2 <xQueueGenericReset+0x68>

080051bc <xQueueGenericCreateStatic.part.0>:
 80051bc:	b537      	push	{r0, r1, r2, r4, r5, lr}
 80051be:	460d      	mov	r5, r1
 80051c0:	461c      	mov	r4, r3
 80051c2:	b953      	cbnz	r3, 80051da <xQueueGenericCreateStatic.part.0+0x1e>
 80051c4:	f04f 0350 	mov.w	r3, #80	@ 0x50
 80051c8:	b672      	cpsid	i
 80051ca:	f383 8811 	msr	BASEPRI, r3
 80051ce:	f3bf 8f6f 	isb	sy
 80051d2:	f3bf 8f4f 	dsb	sy
 80051d6:	b662      	cpsie	i
 80051d8:	e7fe      	b.n	80051d8 <xQueueGenericCreateStatic.part.0+0x1c>
 80051da:	b15a      	cbz	r2, 80051f4 <xQueueGenericCreateStatic.part.0+0x38>
 80051dc:	b9b1      	cbnz	r1, 800520c <xQueueGenericCreateStatic.part.0+0x50>
 80051de:	f04f 0350 	mov.w	r3, #80	@ 0x50
 80051e2:	b672      	cpsid	i
 80051e4:	f383 8811 	msr	BASEPRI, r3
 80051e8:	f3bf 8f6f 	isb	sy
 80051ec:	f3bf 8f4f 	dsb	sy
 80051f0:	b662      	cpsie	i
 80051f2:	e7fe      	b.n	80051f2 <xQueueGenericCreateStatic.part.0+0x36>
 80051f4:	b151      	cbz	r1, 800520c <xQueueGenericCreateStatic.part.0+0x50>
 80051f6:	f04f 0350 	mov.w	r3, #80	@ 0x50
 80051fa:	b672      	cpsid	i
 80051fc:	f383 8811 	msr	BASEPRI, r3
 8005200:	f3bf 8f6f 	isb	sy
 8005204:	f3bf 8f4f 	dsb	sy
 8005208:	b662      	cpsie	i
 800520a:	e7fe      	b.n	800520a <xQueueGenericCreateStatic.part.0+0x4e>
 800520c:	2350      	movs	r3, #80	@ 0x50
 800520e:	9301      	str	r3, [sp, #4]
 8005210:	9b01      	ldr	r3, [sp, #4]
 8005212:	2b50      	cmp	r3, #80	@ 0x50
 8005214:	d00a      	beq.n	800522c <xQueueGenericCreateStatic.part.0+0x70>
 8005216:	f04f 0350 	mov.w	r3, #80	@ 0x50
 800521a:	b672      	cpsid	i
 800521c:	f383 8811 	msr	BASEPRI, r3
 8005220:	f3bf 8f6f 	isb	sy
 8005224:	f3bf 8f4f 	dsb	sy
 8005228:	b662      	cpsie	i
 800522a:	e7fe      	b.n	800522a <xQueueGenericCreateStatic.part.0+0x6e>
 800522c:	2101      	movs	r1, #1
 800522e:	2d00      	cmp	r5, #0
 8005230:	bf08      	it	eq
 8005232:	4622      	moveq	r2, r4
 8005234:	9b01      	ldr	r3, [sp, #4]
 8005236:	f884 1046 	strb.w	r1, [r4, #70]	@ 0x46
 800523a:	6022      	str	r2, [r4, #0]
 800523c:	e9c4 050f 	strd	r0, r5, [r4, #60]	@ 0x3c
 8005240:	4620      	mov	r0, r4
 8005242:	f7ff ff7a 	bl	800513a <xQueueGenericReset>
 8005246:	f89d 3018 	ldrb.w	r3, [sp, #24]
 800524a:	4620      	mov	r0, r4
 800524c:	f884 304c 	strb.w	r3, [r4, #76]	@ 0x4c
 8005250:	b003      	add	sp, #12
 8005252:	bd30      	pop	{r4, r5, pc}

08005254 <xQueueGenericCreateStatic>:
 8005254:	b410      	push	{r4}
 8005256:	f89d 4004 	ldrb.w	r4, [sp, #4]
 800525a:	b950      	cbnz	r0, 8005272 <xQueueGenericCreateStatic+0x1e>
 800525c:	f04f 0350 	mov.w	r3, #80	@ 0x50
 8005260:	b672      	cpsid	i
 8005262:	f383 8811 	msr	BASEPRI, r3
 8005266:	f3bf 8f6f 	isb	sy
 800526a:	f3bf 8f4f 	dsb	sy
 800526e:	b662      	cpsie	i
 8005270:	e7fe      	b.n	8005270 <xQueueGenericCreateStatic+0x1c>
 8005272:	9401      	str	r4, [sp, #4]
 8005274:	f85d 4b04 	ldr.w	r4, [sp], #4
 8005278:	f7ff bfa0 	b.w	80051bc <xQueueGenericCreateStatic.part.0>

0800527c <xQueueGenericSend>:
 800527c:	e92d 41ff 	stmdb	sp!, {r0, r1, r2, r3, r4, r5, r6, r7, r8, lr}
 8005280:	460f      	mov	r7, r1
 8005282:	461e      	mov	r6, r3
 8005284:	4604      	mov	r4, r0
 8005286:	9201      	str	r2, [sp, #4]
 8005288:	b950      	cbnz	r0, 80052a0 <xQueueGenericSend+0x24>
 800528a:	f04f 0350 	mov.w	r3, #80	@ 0x50
 800528e:	b672      	cpsid	i
 8005290:	f383 8811 	msr	BASEPRI, r3
 8005294:	f3bf 8f6f 	isb	sy
 8005298:	f3bf 8f4f 	dsb	sy
 800529c:	b662      	cpsie	i
 800529e:	e7fe      	b.n	800529e <xQueueGenericSend+0x22>
 80052a0:	b961      	cbnz	r1, 80052bc <xQueueGenericSend+0x40>
 80052a2:	6c03      	ldr	r3, [r0, #64]	@ 0x40
 80052a4:	b153      	cbz	r3, 80052bc <xQueueGenericSend+0x40>
 80052a6:	f04f 0350 	mov.w	r3, #80	@ 0x50
 80052aa:	b672      	cpsid	i
 80052ac:	f383 8811 	msr	BASEPRI, r3
 80052b0:	f3bf 8f6f 	isb	sy
 80052b4:	f3bf 8f4f 	dsb	sy
 80052b8:	b662      	cpsie	i
 80052ba:	e7fe      	b.n	80052ba <xQueueGenericSend+0x3e>
 80052bc:	2e02      	cmp	r6, #2
 80052be:	d10d      	bne.n	80052dc <xQueueGenericSend+0x60>
 80052c0:	6be3      	ldr	r3, [r4, #60]	@ 0x3c
 80052c2:	2b01      	cmp	r3, #1
 80052c4:	d00a      	beq.n	80052dc <xQueueGenericSend+0x60>
 80052c6:	f04f 0350 	mov.w	r3, #80	@ 0x50
 80052ca:	b672      	cpsid	i
 80052cc:	f383 8811 	msr	BASEPRI, r3
 80052d0:	f3bf 8f6f 	isb	sy
 80052d4:	f3bf 8f4f 	dsb	sy
 80052d8:	b662      	cpsie	i
 80052da:	e7fe      	b.n	80052da <xQueueGenericSend+0x5e>
 80052dc:	f000 fe2e 	bl	8005f3c <xTaskGetSchedulerState>
 80052e0:	4605      	mov	r5, r0
 80052e2:	b330      	cbz	r0, 8005332 <xQueueGenericSend+0xb6>
 80052e4:	2500      	movs	r5, #0
 80052e6:	f04f 0800 	mov.w	r8, #0
 80052ea:	f001 f8db 	bl	80064a4 <vPortEnterCritical>
 80052ee:	6ba2      	ldr	r2, [r4, #56]	@ 0x38
 80052f0:	6be3      	ldr	r3, [r4, #60]	@ 0x3c
 80052f2:	429a      	cmp	r2, r3
 80052f4:	d301      	bcc.n	80052fa <xQueueGenericSend+0x7e>
 80052f6:	2e02      	cmp	r6, #2
 80052f8:	d129      	bne.n	800534e <xQueueGenericSend+0xd2>
 80052fa:	4632      	mov	r2, r6
 80052fc:	4639      	mov	r1, r7
 80052fe:	4620      	mov	r0, r4
 8005300:	f7ff fe9b 	bl	800503a <prvCopyDataToQueue>
 8005304:	6a63      	ldr	r3, [r4, #36]	@ 0x24
 8005306:	b11b      	cbz	r3, 8005310 <xQueueGenericSend+0x94>
 8005308:	f104 0024 	add.w	r0, r4, #36	@ 0x24
 800530c:	f000 fd80 	bl	8005e10 <xTaskRemoveFromEventList>
 8005310:	b148      	cbz	r0, 8005326 <xQueueGenericSend+0xaa>
 8005312:	f04f 23e0 	mov.w	r3, #3758153728	@ 0xe000e000
 8005316:	f04f 5280 	mov.w	r2, #268435456	@ 0x10000000
 800531a:	f8c3 2d04 	str.w	r2, [r3, #3332]	@ 0xd04
 800531e:	f3bf 8f4f 	dsb	sy
 8005322:	f3bf 8f6f 	isb	sy
 8005326:	f001 f8e1 	bl	80064ec <vPortExitCritical>
 800532a:	2001      	movs	r0, #1
 800532c:	b004      	add	sp, #16
 800532e:	e8bd 81f0 	ldmia.w	sp!, {r4, r5, r6, r7, r8, pc}
 8005332:	9b01      	ldr	r3, [sp, #4]
 8005334:	2b00      	cmp	r3, #0
 8005336:	d0d6      	beq.n	80052e6 <xQueueGenericSend+0x6a>
 8005338:	f04f 0350 	mov.w	r3, #80	@ 0x50
 800533c:	b672      	cpsid	i
 800533e:	f383 8811 	msr	BASEPRI, r3
 8005342:	f3bf 8f6f 	isb	sy
 8005346:	f3bf 8f4f 	dsb	sy
 800534a:	b662      	cpsie	i
 800534c:	e7fe      	b.n	800534c <xQueueGenericSend+0xd0>
 800534e:	9b01      	ldr	r3, [sp, #4]
 8005350:	b91b      	cbnz	r3, 800535a <xQueueGenericSend+0xde>
 8005352:	f001 f8cb 	bl	80064ec <vPortExitCritical>
 8005356:	2000      	movs	r0, #0
 8005358:	e7e8      	b.n	800532c <xQueueGenericSend+0xb0>
 800535a:	b915      	cbnz	r5, 8005362 <xQueueGenericSend+0xe6>
 800535c:	a802      	add	r0, sp, #8
 800535e:	f000 fd9b 	bl	8005e98 <vTaskInternalSetTimeOutState>
 8005362:	f001 f8c3 	bl	80064ec <vPortExitCritical>
 8005366:	f000 fb99 	bl	8005a9c <vTaskSuspendAll>
 800536a:	f001 f89b 	bl	80064a4 <vPortEnterCritical>
 800536e:	f894 3044 	ldrb.w	r3, [r4, #68]	@ 0x44
 8005372:	2bff      	cmp	r3, #255	@ 0xff
 8005374:	d101      	bne.n	800537a <xQueueGenericSend+0xfe>
 8005376:	f884 8044 	strb.w	r8, [r4, #68]	@ 0x44
 800537a:	f894 3045 	ldrb.w	r3, [r4, #69]	@ 0x45
 800537e:	2bff      	cmp	r3, #255	@ 0xff
 8005380:	d101      	bne.n	8005386 <xQueueGenericSend+0x10a>
 8005382:	f884 8045 	strb.w	r8, [r4, #69]	@ 0x45
 8005386:	f001 f8b1 	bl	80064ec <vPortExitCritical>
 800538a:	a901      	add	r1, sp, #4
 800538c:	a802      	add	r0, sp, #8
 800538e:	f000 fd8f 	bl	8005eb0 <xTaskCheckForTimeOut>
 8005392:	bb38      	cbnz	r0, 80053e4 <xQueueGenericSend+0x168>
 8005394:	f001 f886 	bl	80064a4 <vPortEnterCritical>
 8005398:	6ba2      	ldr	r2, [r4, #56]	@ 0x38
 800539a:	6be3      	ldr	r3, [r4, #60]	@ 0x3c
 800539c:	429a      	cmp	r2, r3
 800539e:	d10e      	bne.n	80053be <xQueueGenericSend+0x142>
 80053a0:	f001 f8a4 	bl	80064ec <vPortExitCritical>
 80053a4:	9901      	ldr	r1, [sp, #4]
 80053a6:	f104 0010 	add.w	r0, r4, #16
 80053aa:	f000 fcf5 	bl	8005d98 <vTaskPlaceOnEventList>
 80053ae:	4620      	mov	r0, r4
 80053b0:	f7ff fe8b 	bl	80050ca <prvUnlockQueue>
 80053b4:	f000 fc18 	bl	8005be8 <xTaskResumeAll>
 80053b8:	b148      	cbz	r0, 80053ce <xQueueGenericSend+0x152>
 80053ba:	2501      	movs	r5, #1
 80053bc:	e795      	b.n	80052ea <xQueueGenericSend+0x6e>
 80053be:	f001 f895 	bl	80064ec <vPortExitCritical>
 80053c2:	4620      	mov	r0, r4
 80053c4:	f7ff fe81 	bl	80050ca <prvUnlockQueue>
 80053c8:	f000 fc0e 	bl	8005be8 <xTaskResumeAll>
 80053cc:	e7f5      	b.n	80053ba <xQueueGenericSend+0x13e>
 80053ce:	f04f 23e0 	mov.w	r3, #3758153728	@ 0xe000e000
 80053d2:	f04f 5280 	mov.w	r2, #268435456	@ 0x10000000
 80053d6:	f8c3 2d04 	str.w	r2, [r3, #3332]	@ 0xd04
 80053da:	f3bf 8f4f 	dsb	sy
 80053de:	f3bf 8f6f 	isb	sy
 80053e2:	e7ea      	b.n	80053ba <xQueueGenericSend+0x13e>
 80053e4:	4620      	mov	r0, r4
 80053e6:	f7ff fe70 	bl	80050ca <prvUnlockQueue>
 80053ea:	f000 fbfd 	bl	8005be8 <xTaskResumeAll>
 80053ee:	e7b2      	b.n	8005356 <xQueueGenericSend+0xda>

080053f0 <xQueueGenericSendFromISR>:
 80053f0:	e92d 43f8 	stmdb	sp!, {r3, r4, r5, r6, r7, r8, r9, lr}
 80053f4:	4689      	mov	r9, r1
 80053f6:	4617      	mov	r7, r2
 80053f8:	461e      	mov	r6, r3
 80053fa:	4604      	mov	r4, r0
 80053fc:	b950      	cbnz	r0, 8005414 <xQueueGenericSendFromISR+0x24>
 80053fe:	f04f 0350 	mov.w	r3, #80	@ 0x50
 8005402:	b672      	cpsid	i
 8005404:	f383 8811 	msr	BASEPRI, r3
 8005408:	f3bf 8f6f 	isb	sy
 800540c:	f3bf 8f4f 	dsb	sy
 8005410:	b662      	cpsie	i
 8005412:	e7fe      	b.n	8005412 <xQueueGenericSendFromISR+0x22>
 8005414:	b961      	cbnz	r1, 8005430 <xQueueGenericSendFromISR+0x40>
 8005416:	6c03      	ldr	r3, [r0, #64]	@ 0x40
 8005418:	b153      	cbz	r3, 8005430 <xQueueGenericSendFromISR+0x40>
 800541a:	f04f 0350 	mov.w	r3, #80	@ 0x50
 800541e:	b672      	cpsid	i
 8005420:	f383 8811 	msr	BASEPRI, r3
 8005424:	f3bf 8f6f 	isb	sy
 8005428:	f3bf 8f4f 	dsb	sy
 800542c:	b662      	cpsie	i
 800542e:	e7fe      	b.n	800542e <xQueueGenericSendFromISR+0x3e>
 8005430:	2e02      	cmp	r6, #2
 8005432:	d10d      	bne.n	8005450 <xQueueGenericSendFromISR+0x60>
 8005434:	6be3      	ldr	r3, [r4, #60]	@ 0x3c
 8005436:	2b01      	cmp	r3, #1
 8005438:	d00a      	beq.n	8005450 <xQueueGenericSendFromISR+0x60>
 800543a:	f04f 0350 	mov.w	r3, #80	@ 0x50
 800543e:	b672      	cpsid	i
 8005440:	f383 8811 	msr	BASEPRI, r3
 8005444:	f3bf 8f6f 	isb	sy
 8005448:	f3bf 8f4f 	dsb	sy
 800544c:	b662      	cpsie	i
 800544e:	e7fe      	b.n	800544e <xQueueGenericSendFromISR+0x5e>
 8005450:	f001 f924 	bl	800669c <vPortValidateInterruptPriority>
 8005454:	f3ef 8811 	mrs	r8, BASEPRI
 8005458:	f04f 0350 	mov.w	r3, #80	@ 0x50
 800545c:	b672      	cpsid	i
 800545e:	f383 8811 	msr	BASEPRI, r3
 8005462:	f3bf 8f6f 	isb	sy
 8005466:	f3bf 8f4f 	dsb	sy
 800546a:	b662      	cpsie	i
 800546c:	6ba2      	ldr	r2, [r4, #56]	@ 0x38
 800546e:	6be3      	ldr	r3, [r4, #60]	@ 0x3c
 8005470:	429a      	cmp	r2, r3
 8005472:	d301      	bcc.n	8005478 <xQueueGenericSendFromISR+0x88>
 8005474:	2e02      	cmp	r6, #2
 8005476:	d11d      	bne.n	80054b4 <xQueueGenericSendFromISR+0xc4>
 8005478:	f894 5045 	ldrb.w	r5, [r4, #69]	@ 0x45
 800547c:	4632      	mov	r2, r6
 800547e:	4649      	mov	r1, r9
 8005480:	4620      	mov	r0, r4
 8005482:	b26d      	sxtb	r5, r5
 8005484:	f7ff fdd9 	bl	800503a <prvCopyDataToQueue>
 8005488:	1c6b      	adds	r3, r5, #1
 800548a:	d10e      	bne.n	80054aa <xQueueGenericSendFromISR+0xba>
 800548c:	6a63      	ldr	r3, [r4, #36]	@ 0x24
 800548e:	b13b      	cbz	r3, 80054a0 <xQueueGenericSendFromISR+0xb0>
 8005490:	f104 0024 	add.w	r0, r4, #36	@ 0x24
 8005494:	f000 fcbc 	bl	8005e10 <xTaskRemoveFromEventList>
 8005498:	b110      	cbz	r0, 80054a0 <xQueueGenericSendFromISR+0xb0>
 800549a:	b10f      	cbz	r7, 80054a0 <xQueueGenericSendFromISR+0xb0>
 800549c:	2301      	movs	r3, #1
 800549e:	603b      	str	r3, [r7, #0]
 80054a0:	2001      	movs	r0, #1
 80054a2:	f388 8811 	msr	BASEPRI, r8
 80054a6:	e8bd 83f8 	ldmia.w	sp!, {r3, r4, r5, r6, r7, r8, r9, pc}
 80054aa:	3501      	adds	r5, #1
 80054ac:	b26d      	sxtb	r5, r5
 80054ae:	f884 5045 	strb.w	r5, [r4, #69]	@ 0x45
 80054b2:	e7f5      	b.n	80054a0 <xQueueGenericSendFromISR+0xb0>
 80054b4:	2000      	movs	r0, #0
 80054b6:	e7f4      	b.n	80054a2 <xQueueGenericSendFromISR+0xb2>

080054b8 <xQueueReceive>:
 80054b8:	e92d 41ff 	stmdb	sp!, {r0, r1, r2, r3, r4, r5, r6, r7, r8, lr}
 80054bc:	460e      	mov	r6, r1
 80054be:	4604      	mov	r4, r0
 80054c0:	9201      	str	r2, [sp, #4]
 80054c2:	b950      	cbnz	r0, 80054da <xQueueReceive+0x22>
 80054c4:	f04f 0350 	mov.w	r3, #80	@ 0x50
 80054c8:	b672      	cpsid	i
 80054ca:	f383 8811 	msr	BASEPRI, r3
 80054ce:	f3bf 8f6f 	isb	sy
 80054d2:	f3bf 8f4f 	dsb	sy
 80054d6:	b662      	cpsie	i
 80054d8:	e7fe      	b.n	80054d8 <xQueueReceive+0x20>
 80054da:	b961      	cbnz	r1, 80054f6 <xQueueReceive+0x3e>
 80054dc:	6c03      	ldr	r3, [r0, #64]	@ 0x40
 80054de:	b153      	cbz	r3, 80054f6 <xQueueReceive+0x3e>
 80054e0:	f04f 0350 	mov.w	r3, #80	@ 0x50
 80054e4:	b672      	cpsid	i
 80054e6:	f383 8811 	msr	BASEPRI, r3
 80054ea:	f3bf 8f6f 	isb	sy
 80054ee:	f3bf 8f4f 	dsb	sy
 80054f2:	b662      	cpsie	i
 80054f4:	e7fe      	b.n	80054f4 <xQueueReceive+0x3c>
 80054f6:	f000 fd21 	bl	8005f3c <xTaskGetSchedulerState>
 80054fa:	4605      	mov	r5, r0
 80054fc:	b318      	cbz	r0, 8005546 <xQueueReceive+0x8e>
 80054fe:	2500      	movs	r5, #0
 8005500:	f04f 0800 	mov.w	r8, #0
 8005504:	f000 ffce 	bl	80064a4 <vPortEnterCritical>
 8005508:	6ba7      	ldr	r7, [r4, #56]	@ 0x38
 800550a:	b357      	cbz	r7, 8005562 <xQueueReceive+0xaa>
 800550c:	3f01      	subs	r7, #1
 800550e:	4631      	mov	r1, r6
 8005510:	4620      	mov	r0, r4
 8005512:	f7ff fdc5 	bl	80050a0 <prvCopyDataFromQueue>
 8005516:	63a7      	str	r7, [r4, #56]	@ 0x38
 8005518:	6923      	ldr	r3, [r4, #16]
 800551a:	b173      	cbz	r3, 800553a <xQueueReceive+0x82>
 800551c:	f104 0010 	add.w	r0, r4, #16
 8005520:	f000 fc76 	bl	8005e10 <xTaskRemoveFromEventList>
 8005524:	b148      	cbz	r0, 800553a <xQueueReceive+0x82>
 8005526:	f04f 23e0 	mov.w	r3, #3758153728	@ 0xe000e000
 800552a:	f04f 5280 	mov.w	r2, #268435456	@ 0x10000000
 800552e:	f8c3 2d04 	str.w	r2, [r3, #3332]	@ 0xd04
 8005532:	f3bf 8f4f 	dsb	sy
 8005536:	f3bf 8f6f 	isb	sy
 800553a:	f000 ffd7 	bl	80064ec <vPortExitCritical>
 800553e:	2001      	movs	r0, #1
 8005540:	b004      	add	sp, #16
 8005542:	e8bd 81f0 	ldmia.w	sp!, {r4, r5, r6, r7, r8, pc}
 8005546:	9b01      	ldr	r3, [sp, #4]
 8005548:	2b00      	cmp	r3, #0
 800554a:	d0d9      	beq.n	8005500 <xQueueReceive+0x48>
 800554c:	f04f 0350 	mov.w	r3, #80	@ 0x50
 8005550:	b672      	cpsid	i
 8005552:	f383 8811 	msr	BASEPRI, r3
 8005556:	f3bf 8f6f 	isb	sy
 800555a:	f3bf 8f4f 	dsb	sy
 800555e:	b662      	cpsie	i
 8005560:	e7fe      	b.n	8005560 <xQueueReceive+0xa8>
 8005562:	9b01      	ldr	r3, [sp, #4]
 8005564:	b91b      	cbnz	r3, 800556e <xQueueReceive+0xb6>
 8005566:	f000 ffc1 	bl	80064ec <vPortExitCritical>
 800556a:	2000      	movs	r0, #0
 800556c:	e7e8      	b.n	8005540 <xQueueReceive+0x88>
 800556e:	b915      	cbnz	r5, 8005576 <xQueueReceive+0xbe>
 8005570:	a802      	add	r0, sp, #8
 8005572:	f000 fc91 	bl	8005e98 <vTaskInternalSetTimeOutState>
 8005576:	f000 ffb9 	bl	80064ec <vPortExitCritical>
 800557a:	f000 fa8f 	bl	8005a9c <vTaskSuspendAll>
 800557e:	f000 ff91 	bl	80064a4 <vPortEnterCritical>
 8005582:	f894 3044 	ldrb.w	r3, [r4, #68]	@ 0x44
 8005586:	2bff      	cmp	r3, #255	@ 0xff
 8005588:	d101      	bne.n	800558e <xQueueReceive+0xd6>
 800558a:	f884 8044 	strb.w	r8, [r4, #68]	@ 0x44
 800558e:	f894 3045 	ldrb.w	r3, [r4, #69]	@ 0x45
 8005592:	2bff      	cmp	r3, #255	@ 0xff
 8005594:	d101      	bne.n	800559a <xQueueReceive+0xe2>
 8005596:	f884 8045 	strb.w	r8, [r4, #69]	@ 0x45
 800559a:	f000 ffa7 	bl	80064ec <vPortExitCritical>
 800559e:	a901      	add	r1, sp, #4
 80055a0:	a802      	add	r0, sp, #8
 80055a2:	f000 fc85 	bl	8005eb0 <xTaskCheckForTimeOut>
 80055a6:	bb00      	cbnz	r0, 80055ea <xQueueReceive+0x132>
 80055a8:	4620      	mov	r0, r4
 80055aa:	f7ff fd3b 	bl	8005024 <prvIsQueueEmpty>
 80055ae:	b1b0      	cbz	r0, 80055de <xQueueReceive+0x126>
 80055b0:	9901      	ldr	r1, [sp, #4]
 80055b2:	f104 0024 	add.w	r0, r4, #36	@ 0x24
 80055b6:	f000 fbef 	bl	8005d98 <vTaskPlaceOnEventList>
 80055ba:	4620      	mov	r0, r4
 80055bc:	f7ff fd85 	bl	80050ca <prvUnlockQueue>
 80055c0:	f000 fb12 	bl	8005be8 <xTaskResumeAll>
 80055c4:	b948      	cbnz	r0, 80055da <xQueueReceive+0x122>
 80055c6:	f04f 23e0 	mov.w	r3, #3758153728	@ 0xe000e000
 80055ca:	f04f 5280 	mov.w	r2, #268435456	@ 0x10000000
 80055ce:	f8c3 2d04 	str.w	r2, [r3, #3332]	@ 0xd04
 80055d2:	f3bf 8f4f 	dsb	sy
 80055d6:	f3bf 8f6f 	isb	sy
 80055da:	2501      	movs	r5, #1
 80055dc:	e792      	b.n	8005504 <xQueueReceive+0x4c>
 80055de:	4620      	mov	r0, r4
 80055e0:	f7ff fd73 	bl	80050ca <prvUnlockQueue>
 80055e4:	f000 fb00 	bl	8005be8 <xTaskResumeAll>
 80055e8:	e7f7      	b.n	80055da <xQueueReceive+0x122>
 80055ea:	4620      	mov	r0, r4
 80055ec:	f7ff fd6d 	bl	80050ca <prvUnlockQueue>
 80055f0:	f000 fafa 	bl	8005be8 <xTaskResumeAll>
 80055f4:	4620      	mov	r0, r4
 80055f6:	f7ff fd15 	bl	8005024 <prvIsQueueEmpty>
 80055fa:	2800      	cmp	r0, #0
 80055fc:	d0ed      	beq.n	80055da <xQueueReceive+0x122>
 80055fe:	e7b4      	b.n	800556a <xQueueReceive+0xb2>

08005600 <vQueueAddToRegistry>:
 8005600:	2300      	movs	r3, #0
 8005602:	4a07      	ldr	r2, [pc, #28]	@ (8005620 <vQueueAddToRegistry+0x20>)
 8005604:	b530      	push	{r4, r5, lr}
 8005606:	f852 5033 	ldr.w	r5, [r2, r3, lsl #3]
 800560a:	eb02 04c3 	add.w	r4, r2, r3, lsl #3
 800560e:	b91d      	cbnz	r5, 8005618 <vQueueAddToRegistry+0x18>
 8005610:	f842 1033 	str.w	r1, [r2, r3, lsl #3]
 8005614:	6060      	str	r0, [r4, #4]
 8005616:	bd30      	pop	{r4, r5, pc}
 8005618:	3301      	adds	r3, #1
 800561a:	2b08      	cmp	r3, #8
 800561c:	d1f3      	bne.n	8005606 <vQueueAddToRegistry+0x6>
 800561e:	e7fa      	b.n	8005616 <vQueueAddToRegistry+0x16>
 8005620:	20001180 	.word	0x20001180

08005624 <vQueueWaitForMessageRestricted>:
 8005624:	b570      	push	{r4, r5, r6, lr}
 8005626:	4604      	mov	r4, r0
 8005628:	460d      	mov	r5, r1
 800562a:	4616      	mov	r6, r2
 800562c:	f000 ff3a 	bl	80064a4 <vPortEnterCritical>
 8005630:	f894 3044 	ldrb.w	r3, [r4, #68]	@ 0x44
 8005634:	2bff      	cmp	r3, #255	@ 0xff
 8005636:	d102      	bne.n	800563e <vQueueWaitForMessageRestricted+0x1a>
 8005638:	2300      	movs	r3, #0
 800563a:	f884 3044 	strb.w	r3, [r4, #68]	@ 0x44
 800563e:	f894 3045 	ldrb.w	r3, [r4, #69]	@ 0x45
 8005642:	2bff      	cmp	r3, #255	@ 0xff
 8005644:	d102      	bne.n	800564c <vQueueWaitForMessageRestricted+0x28>
 8005646:	2300      	movs	r3, #0
 8005648:	f884 3045 	strb.w	r3, [r4, #69]	@ 0x45
 800564c:	f000 ff4e 	bl	80064ec <vPortExitCritical>
 8005650:	6ba3      	ldr	r3, [r4, #56]	@ 0x38
 8005652:	b92b      	cbnz	r3, 8005660 <vQueueWaitForMessageRestricted+0x3c>
 8005654:	4632      	mov	r2, r6
 8005656:	4629      	mov	r1, r5
 8005658:	f104 0024 	add.w	r0, r4, #36	@ 0x24
 800565c:	f000 fbb8 	bl	8005dd0 <vTaskPlaceOnEventListRestricted>
 8005660:	4620      	mov	r0, r4
 8005662:	e8bd 4070 	ldmia.w	sp!, {r4, r5, r6, lr}
 8005666:	f7ff bd30 	b.w	80050ca <prvUnlockQueue>
	...

0800566c <prvAddNewTaskToReadyList>:
 800566c:	e92d 41f0 	stmdb	sp!, {r4, r5, r6, r7, r8, lr}
 8005670:	4604      	mov	r4, r0
 8005672:	f000 ff17 	bl	80064a4 <vPortEnterCritical>
 8005676:	4b2f      	ldr	r3, [pc, #188]	@ (8005734 <prvAddNewTaskToReadyList+0xc8>)
 8005678:	4e2f      	ldr	r6, [pc, #188]	@ (8005738 <prvAddNewTaskToReadyList+0xcc>)
 800567a:	681a      	ldr	r2, [r3, #0]
 800567c:	4f2f      	ldr	r7, [pc, #188]	@ (800573c <prvAddNewTaskToReadyList+0xd0>)
 800567e:	3201      	adds	r2, #1
 8005680:	601a      	str	r2, [r3, #0]
 8005682:	6835      	ldr	r5, [r6, #0]
 8005684:	2d00      	cmp	r5, #0
 8005686:	d14a      	bne.n	800571e <prvAddNewTaskToReadyList+0xb2>
 8005688:	6034      	str	r4, [r6, #0]
 800568a:	681b      	ldr	r3, [r3, #0]
 800568c:	2b01      	cmp	r3, #1
 800568e:	d11f      	bne.n	80056d0 <prvAddNewTaskToReadyList+0x64>
 8005690:	46b8      	mov	r8, r7
 8005692:	3501      	adds	r5, #1
 8005694:	4640      	mov	r0, r8
 8005696:	f7ff fc85 	bl	8004fa4 <vListInitialise>
 800569a:	f108 0814 	add.w	r8, r8, #20
 800569e:	2d38      	cmp	r5, #56	@ 0x38
 80056a0:	d1f7      	bne.n	8005692 <prvAddNewTaskToReadyList+0x26>
 80056a2:	f8df 80c0 	ldr.w	r8, [pc, #192]	@ 8005764 <prvAddNewTaskToReadyList+0xf8>
 80056a6:	4d26      	ldr	r5, [pc, #152]	@ (8005740 <prvAddNewTaskToReadyList+0xd4>)
 80056a8:	4640      	mov	r0, r8
 80056aa:	f7ff fc7b 	bl	8004fa4 <vListInitialise>
 80056ae:	4628      	mov	r0, r5
 80056b0:	f7ff fc78 	bl	8004fa4 <vListInitialise>
 80056b4:	4823      	ldr	r0, [pc, #140]	@ (8005744 <prvAddNewTaskToReadyList+0xd8>)
 80056b6:	f7ff fc75 	bl	8004fa4 <vListInitialise>
 80056ba:	4823      	ldr	r0, [pc, #140]	@ (8005748 <prvAddNewTaskToReadyList+0xdc>)
 80056bc:	f7ff fc72 	bl	8004fa4 <vListInitialise>
 80056c0:	4822      	ldr	r0, [pc, #136]	@ (800574c <prvAddNewTaskToReadyList+0xe0>)
 80056c2:	f7ff fc6f 	bl	8004fa4 <vListInitialise>
 80056c6:	4b22      	ldr	r3, [pc, #136]	@ (8005750 <prvAddNewTaskToReadyList+0xe4>)
 80056c8:	f8c3 8000 	str.w	r8, [r3]
 80056cc:	4b21      	ldr	r3, [pc, #132]	@ (8005754 <prvAddNewTaskToReadyList+0xe8>)
 80056ce:	601d      	str	r5, [r3, #0]
 80056d0:	4a21      	ldr	r2, [pc, #132]	@ (8005758 <prvAddNewTaskToReadyList+0xec>)
 80056d2:	6813      	ldr	r3, [r2, #0]
 80056d4:	3301      	adds	r3, #1
 80056d6:	6013      	str	r3, [r2, #0]
 80056d8:	4a20      	ldr	r2, [pc, #128]	@ (800575c <prvAddNewTaskToReadyList+0xf0>)
 80056da:	6463      	str	r3, [r4, #68]	@ 0x44
 80056dc:	6811      	ldr	r1, [r2, #0]
 80056de:	6ae3      	ldr	r3, [r4, #44]	@ 0x2c
 80056e0:	428b      	cmp	r3, r1
 80056e2:	d900      	bls.n	80056e6 <prvAddNewTaskToReadyList+0x7a>
 80056e4:	6013      	str	r3, [r2, #0]
 80056e6:	2014      	movs	r0, #20
 80056e8:	1d21      	adds	r1, r4, #4
 80056ea:	fb00 7003 	mla	r0, r0, r3, r7
 80056ee:	f7ff fc67 	bl	8004fc0 <vListInsertEnd>
 80056f2:	f000 fefb 	bl	80064ec <vPortExitCritical>
 80056f6:	4b1a      	ldr	r3, [pc, #104]	@ (8005760 <prvAddNewTaskToReadyList+0xf4>)
 80056f8:	681b      	ldr	r3, [r3, #0]
 80056fa:	b173      	cbz	r3, 800571a <prvAddNewTaskToReadyList+0xae>
 80056fc:	6833      	ldr	r3, [r6, #0]
 80056fe:	6ada      	ldr	r2, [r3, #44]	@ 0x2c
 8005700:	6ae3      	ldr	r3, [r4, #44]	@ 0x2c
 8005702:	429a      	cmp	r2, r3
 8005704:	d209      	bcs.n	800571a <prvAddNewTaskToReadyList+0xae>
 8005706:	f04f 23e0 	mov.w	r3, #3758153728	@ 0xe000e000
 800570a:	f04f 5280 	mov.w	r2, #268435456	@ 0x10000000
 800570e:	f8c3 2d04 	str.w	r2, [r3, #3332]	@ 0xd04
 8005712:	f3bf 8f4f 	dsb	sy
 8005716:	f3bf 8f6f 	isb	sy
 800571a:	e8bd 81f0 	ldmia.w	sp!, {r4, r5, r6, r7, r8, pc}
 800571e:	4b10      	ldr	r3, [pc, #64]	@ (8005760 <prvAddNewTaskToReadyList+0xf4>)
 8005720:	681a      	ldr	r2, [r3, #0]
 8005722:	6ae3      	ldr	r3, [r4, #44]	@ 0x2c
 8005724:	2a00      	cmp	r2, #0
 8005726:	d1d3      	bne.n	80056d0 <prvAddNewTaskToReadyList+0x64>
 8005728:	6832      	ldr	r2, [r6, #0]
 800572a:	6ad2      	ldr	r2, [r2, #44]	@ 0x2c
 800572c:	429a      	cmp	r2, r3
 800572e:	d8cf      	bhi.n	80056d0 <prvAddNewTaskToReadyList+0x64>
 8005730:	6034      	str	r4, [r6, #0]
 8005732:	e7cd      	b.n	80056d0 <prvAddNewTaskToReadyList+0x64>
 8005734:	200011e4 	.word	0x200011e4
 8005738:	200016b8 	.word	0x200016b8
 800573c:	20001258 	.word	0x20001258
 8005740:	20001230 	.word	0x20001230
 8005744:	20001214 	.word	0x20001214
 8005748:	20001200 	.word	0x20001200
 800574c:	200011e8 	.word	0x200011e8
 8005750:	2000122c 	.word	0x2000122c
 8005754:	20001228 	.word	0x20001228
 8005758:	200011c8 	.word	0x200011c8
 800575c:	200011dc 	.word	0x200011dc
 8005760:	200011d8 	.word	0x200011d8
 8005764:	20001244 	.word	0x20001244

08005768 <prvAddCurrentTaskToDelayedList>:
 8005768:	b5f8      	push	{r3, r4, r5, r6, r7, lr}
 800576a:	4b15      	ldr	r3, [pc, #84]	@ (80057c0 <prvAddCurrentTaskToDelayedList+0x58>)
 800576c:	4606      	mov	r6, r0
 800576e:	4d15      	ldr	r5, [pc, #84]	@ (80057c4 <prvAddCurrentTaskToDelayedList+0x5c>)
 8005770:	460f      	mov	r7, r1
 8005772:	681c      	ldr	r4, [r3, #0]
 8005774:	6828      	ldr	r0, [r5, #0]
 8005776:	3004      	adds	r0, #4
 8005778:	f7ff fc44 	bl	8005004 <uxListRemove>
 800577c:	1c73      	adds	r3, r6, #1
 800577e:	d107      	bne.n	8005790 <prvAddCurrentTaskToDelayedList+0x28>
 8005780:	b137      	cbz	r7, 8005790 <prvAddCurrentTaskToDelayedList+0x28>
 8005782:	6829      	ldr	r1, [r5, #0]
 8005784:	4810      	ldr	r0, [pc, #64]	@ (80057c8 <prvAddCurrentTaskToDelayedList+0x60>)
 8005786:	3104      	adds	r1, #4
 8005788:	e8bd 40f8 	ldmia.w	sp!, {r3, r4, r5, r6, r7, lr}
 800578c:	f7ff bc18 	b.w	8004fc0 <vListInsertEnd>
 8005790:	19a4      	adds	r4, r4, r6
 8005792:	682b      	ldr	r3, [r5, #0]
 8005794:	605c      	str	r4, [r3, #4]
 8005796:	d307      	bcc.n	80057a8 <prvAddCurrentTaskToDelayedList+0x40>
 8005798:	4b0c      	ldr	r3, [pc, #48]	@ (80057cc <prvAddCurrentTaskToDelayedList+0x64>)
 800579a:	6818      	ldr	r0, [r3, #0]
 800579c:	6829      	ldr	r1, [r5, #0]
 800579e:	e8bd 40f8 	ldmia.w	sp!, {r3, r4, r5, r6, r7, lr}
 80057a2:	3104      	adds	r1, #4
 80057a4:	f7ff bc17 	b.w	8004fd6 <vListInsert>
 80057a8:	4b09      	ldr	r3, [pc, #36]	@ (80057d0 <prvAddCurrentTaskToDelayedList+0x68>)
 80057aa:	6818      	ldr	r0, [r3, #0]
 80057ac:	6829      	ldr	r1, [r5, #0]
 80057ae:	3104      	adds	r1, #4
 80057b0:	f7ff fc11 	bl	8004fd6 <vListInsert>
 80057b4:	4b07      	ldr	r3, [pc, #28]	@ (80057d4 <prvAddCurrentTaskToDelayedList+0x6c>)
 80057b6:	681a      	ldr	r2, [r3, #0]
 80057b8:	42a2      	cmp	r2, r4
 80057ba:	d900      	bls.n	80057be <prvAddCurrentTaskToDelayedList+0x56>
 80057bc:	601c      	str	r4, [r3, #0]
 80057be:	bdf8      	pop	{r3, r4, r5, r6, r7, pc}
 80057c0:	200011e0 	.word	0x200011e0
 80057c4:	200016b8 	.word	0x200016b8
 80057c8:	200011e8 	.word	0x200011e8
 80057cc:	20001228 	.word	0x20001228
 80057d0:	2000122c 	.word	0x2000122c
 80057d4:	200011c4 	.word	0x200011c4

080057d8 <prvResetNextTaskUnblockTime>:
 80057d8:	4a06      	ldr	r2, [pc, #24]	@ (80057f4 <prvResetNextTaskUnblockTime+0x1c>)
 80057da:	6813      	ldr	r3, [r2, #0]
 80057dc:	6819      	ldr	r1, [r3, #0]
 80057de:	4b06      	ldr	r3, [pc, #24]	@ (80057f8 <prvResetNextTaskUnblockTime+0x20>)
 80057e0:	b919      	cbnz	r1, 80057ea <prvResetNextTaskUnblockTime+0x12>
 80057e2:	f04f 32ff 	mov.w	r2, #4294967295
 80057e6:	601a      	str	r2, [r3, #0]
 80057e8:	4770      	bx	lr
 80057ea:	6812      	ldr	r2, [r2, #0]
 80057ec:	68d2      	ldr	r2, [r2, #12]
 80057ee:	68d2      	ldr	r2, [r2, #12]
 80057f0:	6852      	ldr	r2, [r2, #4]
 80057f2:	e7f8      	b.n	80057e6 <prvResetNextTaskUnblockTime+0xe>
 80057f4:	2000122c 	.word	0x2000122c
 80057f8:	200011c4 	.word	0x200011c4

080057fc <prvDeleteTCB>:
 80057fc:	b510      	push	{r4, lr}
 80057fe:	f890 3059 	ldrb.w	r3, [r0, #89]	@ 0x59
 8005802:	4604      	mov	r4, r0
 8005804:	b93b      	cbnz	r3, 8005816 <prvDeleteTCB+0x1a>
 8005806:	6b00      	ldr	r0, [r0, #48]	@ 0x30
 8005808:	f001 f834 	bl	8006874 <vPortFree>
 800580c:	4620      	mov	r0, r4
 800580e:	e8bd 4010 	ldmia.w	sp!, {r4, lr}
 8005812:	f001 b82f 	b.w	8006874 <vPortFree>
 8005816:	2b01      	cmp	r3, #1
 8005818:	d0f9      	beq.n	800580e <prvDeleteTCB+0x12>
 800581a:	2b02      	cmp	r3, #2
 800581c:	d00a      	beq.n	8005834 <prvDeleteTCB+0x38>
 800581e:	f04f 0350 	mov.w	r3, #80	@ 0x50
 8005822:	b672      	cpsid	i
 8005824:	f383 8811 	msr	BASEPRI, r3
 8005828:	f3bf 8f6f 	isb	sy
 800582c:	f3bf 8f4f 	dsb	sy
 8005830:	b662      	cpsie	i
 8005832:	e7fe      	b.n	8005832 <prvDeleteTCB+0x36>
 8005834:	bd10      	pop	{r4, pc}
	...

08005838 <prvIdleTask>:
 8005838:	b580      	push	{r7, lr}
 800583a:	4c13      	ldr	r4, [pc, #76]	@ (8005888 <prvIdleTask+0x50>)
 800583c:	4f13      	ldr	r7, [pc, #76]	@ (800588c <prvIdleTask+0x54>)
 800583e:	4d14      	ldr	r5, [pc, #80]	@ (8005890 <prvIdleTask+0x58>)
 8005840:	6823      	ldr	r3, [r4, #0]
 8005842:	b973      	cbnz	r3, 8005862 <prvIdleTask+0x2a>
 8005844:	4b13      	ldr	r3, [pc, #76]	@ (8005894 <prvIdleTask+0x5c>)
 8005846:	681b      	ldr	r3, [r3, #0]
 8005848:	2b01      	cmp	r3, #1
 800584a:	d9f8      	bls.n	800583e <prvIdleTask+0x6>
 800584c:	f04f 23e0 	mov.w	r3, #3758153728	@ 0xe000e000
 8005850:	f04f 5280 	mov.w	r2, #268435456	@ 0x10000000
 8005854:	f8c3 2d04 	str.w	r2, [r3, #3332]	@ 0xd04
 8005858:	f3bf 8f4f 	dsb	sy
 800585c:	f3bf 8f6f 	isb	sy
 8005860:	e7ed      	b.n	800583e <prvIdleTask+0x6>
 8005862:	f000 fe1f 	bl	80064a4 <vPortEnterCritical>
 8005866:	68fb      	ldr	r3, [r7, #12]
 8005868:	68de      	ldr	r6, [r3, #12]
 800586a:	1d30      	adds	r0, r6, #4
 800586c:	f7ff fbca 	bl	8005004 <uxListRemove>
 8005870:	682b      	ldr	r3, [r5, #0]
 8005872:	3b01      	subs	r3, #1
 8005874:	602b      	str	r3, [r5, #0]
 8005876:	6823      	ldr	r3, [r4, #0]
 8005878:	3b01      	subs	r3, #1
 800587a:	6023      	str	r3, [r4, #0]
 800587c:	f000 fe36 	bl	80064ec <vPortExitCritical>
 8005880:	4630      	mov	r0, r6
 8005882:	f7ff ffbb 	bl	80057fc <prvDeleteTCB>
 8005886:	e7db      	b.n	8005840 <prvIdleTask+0x8>
 8005888:	200011fc 	.word	0x200011fc
 800588c:	20001200 	.word	0x20001200
 8005890:	200011e4 	.word	0x200011e4
 8005894:	20001258 	.word	0x20001258

08005898 <prvInitialiseNewTask.constprop.0>:
 8005898:	e92d 47f0 	stmdb	sp!, {r4, r5, r6, r7, r8, r9, sl, lr}
 800589c:	0096      	lsls	r6, r2, #2
 800589e:	4607      	mov	r7, r0
 80058a0:	460d      	mov	r5, r1
 80058a2:	21a5      	movs	r1, #165	@ 0xa5
 80058a4:	4632      	mov	r2, r6
 80058a6:	4698      	mov	r8, r3
 80058a8:	3e04      	subs	r6, #4
 80058aa:	e9dd 9409 	ldrd	r9, r4, [sp, #36]	@ 0x24
 80058ae:	6b20      	ldr	r0, [r4, #48]	@ 0x30
 80058b0:	f001 f8a4 	bl	80069fc <memset>
 80058b4:	6b23      	ldr	r3, [r4, #48]	@ 0x30
 80058b6:	441e      	add	r6, r3
 80058b8:	f026 0607 	bic.w	r6, r6, #7
 80058bc:	b3a5      	cbz	r5, 8005928 <prvInitialiseNewTask.constprop.0+0x90>
 80058be:	1e6b      	subs	r3, r5, #1
 80058c0:	f104 0233 	add.w	r2, r4, #51	@ 0x33
 80058c4:	350f      	adds	r5, #15
 80058c6:	f813 1f01 	ldrb.w	r1, [r3, #1]!
 80058ca:	f802 1f01 	strb.w	r1, [r2, #1]!
 80058ce:	b109      	cbz	r1, 80058d4 <prvInitialiseNewTask.constprop.0+0x3c>
 80058d0:	42ab      	cmp	r3, r5
 80058d2:	d1f8      	bne.n	80058c6 <prvInitialiseNewTask.constprop.0+0x2e>
 80058d4:	2300      	movs	r3, #0
 80058d6:	f884 3043 	strb.w	r3, [r4, #67]	@ 0x43
 80058da:	9d08      	ldr	r5, [sp, #32]
 80058dc:	f04f 0a00 	mov.w	sl, #0
 80058e0:	1d20      	adds	r0, r4, #4
 80058e2:	2d37      	cmp	r5, #55	@ 0x37
 80058e4:	f8c4 a050 	str.w	sl, [r4, #80]	@ 0x50
 80058e8:	bf28      	it	cs
 80058ea:	2537      	movcs	r5, #55	@ 0x37
 80058ec:	62e5      	str	r5, [r4, #44]	@ 0x2c
 80058ee:	64e5      	str	r5, [r4, #76]	@ 0x4c
 80058f0:	f1c5 0538 	rsb	r5, r5, #56	@ 0x38
 80058f4:	f7ff fb61 	bl	8004fba <vListInitialiseItem>
 80058f8:	f104 0018 	add.w	r0, r4, #24
 80058fc:	f7ff fb5d 	bl	8004fba <vListInitialiseItem>
 8005900:	f8c4 a054 	str.w	sl, [r4, #84]	@ 0x54
 8005904:	4642      	mov	r2, r8
 8005906:	4639      	mov	r1, r7
 8005908:	4630      	mov	r0, r6
 800590a:	6124      	str	r4, [r4, #16]
 800590c:	61a5      	str	r5, [r4, #24]
 800590e:	6264      	str	r4, [r4, #36]	@ 0x24
 8005910:	f884 a058 	strb.w	sl, [r4, #88]	@ 0x58
 8005914:	f000 fd9c 	bl	8006450 <pxPortInitialiseStack>
 8005918:	6020      	str	r0, [r4, #0]
 800591a:	f1b9 0f00 	cmp.w	r9, #0
 800591e:	d001      	beq.n	8005924 <prvInitialiseNewTask.constprop.0+0x8c>
 8005920:	f8c9 4000 	str.w	r4, [r9]
 8005924:	e8bd 87f0 	ldmia.w	sp!, {r4, r5, r6, r7, r8, r9, sl, pc}
 8005928:	f884 5034 	strb.w	r5, [r4, #52]	@ 0x34
 800592c:	e7d5      	b.n	80058da <prvInitialiseNewTask.constprop.0+0x42>

0800592e <xTaskCreateStatic>:
 800592e:	b570      	push	{r4, r5, r6, lr}
 8005930:	b086      	sub	sp, #24
 8005932:	e9dd 540b 	ldrd	r5, r4, [sp, #44]	@ 0x2c
 8005936:	b955      	cbnz	r5, 800594e <xTaskCreateStatic+0x20>
 8005938:	f04f 0350 	mov.w	r3, #80	@ 0x50
 800593c:	b672      	cpsid	i
 800593e:	f383 8811 	msr	BASEPRI, r3
 8005942:	f3bf 8f6f 	isb	sy
 8005946:	f3bf 8f4f 	dsb	sy
 800594a:	b662      	cpsie	i
 800594c:	e7fe      	b.n	800594c <xTaskCreateStatic+0x1e>
 800594e:	b954      	cbnz	r4, 8005966 <xTaskCreateStatic+0x38>
 8005950:	f04f 0350 	mov.w	r3, #80	@ 0x50
 8005954:	b672      	cpsid	i
 8005956:	f383 8811 	msr	BASEPRI, r3
 800595a:	f3bf 8f6f 	isb	sy
 800595e:	f3bf 8f4f 	dsb	sy
 8005962:	b662      	cpsie	i
 8005964:	e7fe      	b.n	8005964 <xTaskCreateStatic+0x36>
 8005966:	265c      	movs	r6, #92	@ 0x5c
 8005968:	9605      	str	r6, [sp, #20]
 800596a:	9e05      	ldr	r6, [sp, #20]
 800596c:	2e5c      	cmp	r6, #92	@ 0x5c
 800596e:	d00a      	beq.n	8005986 <xTaskCreateStatic+0x58>
 8005970:	f04f 0350 	mov.w	r3, #80	@ 0x50
 8005974:	b672      	cpsid	i
 8005976:	f383 8811 	msr	BASEPRI, r3
 800597a:	f3bf 8f6f 	isb	sy
 800597e:	f3bf 8f4f 	dsb	sy
 8005982:	b662      	cpsie	i
 8005984:	e7fe      	b.n	8005984 <xTaskCreateStatic+0x56>
 8005986:	6325      	str	r5, [r4, #48]	@ 0x30
 8005988:	2502      	movs	r5, #2
 800598a:	9e05      	ldr	r6, [sp, #20]
 800598c:	f884 5059 	strb.w	r5, [r4, #89]	@ 0x59
 8005990:	ad04      	add	r5, sp, #16
 8005992:	9402      	str	r4, [sp, #8]
 8005994:	9501      	str	r5, [sp, #4]
 8005996:	9d0a      	ldr	r5, [sp, #40]	@ 0x28
 8005998:	9500      	str	r5, [sp, #0]
 800599a:	f7ff ff7d 	bl	8005898 <prvInitialiseNewTask.constprop.0>
 800599e:	4620      	mov	r0, r4
 80059a0:	f7ff fe64 	bl	800566c <prvAddNewTaskToReadyList>
 80059a4:	9804      	ldr	r0, [sp, #16]
 80059a6:	b006      	add	sp, #24
 80059a8:	bd70      	pop	{r4, r5, r6, pc}

080059aa <xTaskCreate>:
 80059aa:	e92d 43f0 	stmdb	sp!, {r4, r5, r6, r7, r8, r9, lr}
 80059ae:	4607      	mov	r7, r0
 80059b0:	b085      	sub	sp, #20
 80059b2:	0090      	lsls	r0, r2, #2
 80059b4:	4688      	mov	r8, r1
 80059b6:	4616      	mov	r6, r2
 80059b8:	4699      	mov	r9, r3
 80059ba:	f000 fec7 	bl	800674c <pvPortMalloc>
 80059be:	4605      	mov	r5, r0
 80059c0:	b920      	cbnz	r0, 80059cc <xTaskCreate+0x22>
 80059c2:	f04f 30ff 	mov.w	r0, #4294967295
 80059c6:	b005      	add	sp, #20
 80059c8:	e8bd 83f0 	ldmia.w	sp!, {r4, r5, r6, r7, r8, r9, pc}
 80059cc:	205c      	movs	r0, #92	@ 0x5c
 80059ce:	f000 febd 	bl	800674c <pvPortMalloc>
 80059d2:	4604      	mov	r4, r0
 80059d4:	b198      	cbz	r0, 80059fe <xTaskCreate+0x54>
 80059d6:	2300      	movs	r3, #0
 80059d8:	6305      	str	r5, [r0, #48]	@ 0x30
 80059da:	4632      	mov	r2, r6
 80059dc:	4641      	mov	r1, r8
 80059de:	f880 3059 	strb.w	r3, [r0, #89]	@ 0x59
 80059e2:	9b0d      	ldr	r3, [sp, #52]	@ 0x34
 80059e4:	9002      	str	r0, [sp, #8]
 80059e6:	4638      	mov	r0, r7
 80059e8:	9301      	str	r3, [sp, #4]
 80059ea:	9b0c      	ldr	r3, [sp, #48]	@ 0x30
 80059ec:	9300      	str	r3, [sp, #0]
 80059ee:	464b      	mov	r3, r9
 80059f0:	f7ff ff52 	bl	8005898 <prvInitialiseNewTask.constprop.0>
 80059f4:	4620      	mov	r0, r4
 80059f6:	f7ff fe39 	bl	800566c <prvAddNewTaskToReadyList>
 80059fa:	2001      	movs	r0, #1
 80059fc:	e7e3      	b.n	80059c6 <xTaskCreate+0x1c>
 80059fe:	4628      	mov	r0, r5
 8005a00:	f000 ff38 	bl	8006874 <vPortFree>
 8005a04:	e7dd      	b.n	80059c2 <xTaskCreate+0x18>
	...

08005a08 <vTaskStartScheduler>:
 8005a08:	b510      	push	{r4, lr}
 8005a0a:	b088      	sub	sp, #32
 8005a0c:	2400      	movs	r4, #0
 8005a0e:	aa07      	add	r2, sp, #28
 8005a10:	a906      	add	r1, sp, #24
 8005a12:	a805      	add	r0, sp, #20
 8005a14:	e9cd 4405 	strd	r4, r4, [sp, #20]
 8005a18:	f7ff faac 	bl	8004f74 <vApplicationGetIdleTaskMemory>
 8005a1c:	9b05      	ldr	r3, [sp, #20]
 8005a1e:	9a07      	ldr	r2, [sp, #28]
 8005a20:	9302      	str	r3, [sp, #8]
 8005a22:	9b06      	ldr	r3, [sp, #24]
 8005a24:	4918      	ldr	r1, [pc, #96]	@ (8005a88 <vTaskStartScheduler+0x80>)
 8005a26:	4819      	ldr	r0, [pc, #100]	@ (8005a8c <vTaskStartScheduler+0x84>)
 8005a28:	e9cd 4300 	strd	r4, r3, [sp]
 8005a2c:	4623      	mov	r3, r4
 8005a2e:	f7ff ff7e 	bl	800592e <xTaskCreateStatic>
 8005a32:	b338      	cbz	r0, 8005a84 <vTaskStartScheduler+0x7c>
 8005a34:	f000 fb2a 	bl	800608c <xTimerCreateTimerTask>
 8005a38:	2801      	cmp	r0, #1
 8005a3a:	d116      	bne.n	8005a6a <vTaskStartScheduler+0x62>
 8005a3c:	f04f 0350 	mov.w	r3, #80	@ 0x50
 8005a40:	b672      	cpsid	i
 8005a42:	f383 8811 	msr	BASEPRI, r3
 8005a46:	f3bf 8f6f 	isb	sy
 8005a4a:	f3bf 8f4f 	dsb	sy
 8005a4e:	b662      	cpsie	i
 8005a50:	4b0f      	ldr	r3, [pc, #60]	@ (8005a90 <vTaskStartScheduler+0x88>)
 8005a52:	f04f 32ff 	mov.w	r2, #4294967295
 8005a56:	601a      	str	r2, [r3, #0]
 8005a58:	4b0e      	ldr	r3, [pc, #56]	@ (8005a94 <vTaskStartScheduler+0x8c>)
 8005a5a:	6018      	str	r0, [r3, #0]
 8005a5c:	4b0e      	ldr	r3, [pc, #56]	@ (8005a98 <vTaskStartScheduler+0x90>)
 8005a5e:	601c      	str	r4, [r3, #0]
 8005a60:	b008      	add	sp, #32
 8005a62:	e8bd 4010 	ldmia.w	sp!, {r4, lr}
 8005a66:	f000 bdb7 	b.w	80065d8 <xPortStartScheduler>
 8005a6a:	3001      	adds	r0, #1
 8005a6c:	d10a      	bne.n	8005a84 <vTaskStartScheduler+0x7c>
 8005a6e:	f04f 0350 	mov.w	r3, #80	@ 0x50
 8005a72:	b672      	cpsid	i
 8005a74:	f383 8811 	msr	BASEPRI, r3
 8005a78:	f3bf 8f6f 	isb	sy
 8005a7c:	f3bf 8f4f 	dsb	sy
 8005a80:	b662      	cpsie	i
 8005a82:	e7fe      	b.n	8005a82 <vTaskStartScheduler+0x7a>
 8005a84:	b008      	add	sp, #32
 8005a86:	bd10      	pop	{r4, pc}
 8005a88:	08006cd0 	.word	0x08006cd0
 8005a8c:	08005839 	.word	0x08005839
 8005a90:	200011c4 	.word	0x200011c4
 8005a94:	200011d8 	.word	0x200011d8
 8005a98:	200011e0 	.word	0x200011e0

08005a9c <vTaskSuspendAll>:
 8005a9c:	4a02      	ldr	r2, [pc, #8]	@ (8005aa8 <vTaskSuspendAll+0xc>)
 8005a9e:	6813      	ldr	r3, [r2, #0]
 8005aa0:	3301      	adds	r3, #1
 8005aa2:	6013      	str	r3, [r2, #0]
 8005aa4:	4770      	bx	lr
 8005aa6:	bf00      	nop
 8005aa8:	200011c0 	.word	0x200011c0

08005aac <xTaskGetTickCount>:
 8005aac:	4b01      	ldr	r3, [pc, #4]	@ (8005ab4 <xTaskGetTickCount+0x8>)
 8005aae:	6818      	ldr	r0, [r3, #0]
 8005ab0:	4770      	bx	lr
 8005ab2:	bf00      	nop
 8005ab4:	200011e0 	.word	0x200011e0

08005ab8 <xTaskIncrementTick>:
 8005ab8:	4b40      	ldr	r3, [pc, #256]	@ (8005bbc <xTaskIncrementTick+0x104>)
 8005aba:	681b      	ldr	r3, [r3, #0]
 8005abc:	e92d 4ff7 	stmdb	sp!, {r0, r1, r2, r4, r5, r6, r7, r8, r9, sl, fp, lr}
 8005ac0:	2b00      	cmp	r3, #0
 8005ac2:	d173      	bne.n	8005bac <xTaskIncrementTick+0xf4>
 8005ac4:	4b3e      	ldr	r3, [pc, #248]	@ (8005bc0 <xTaskIncrementTick+0x108>)
 8005ac6:	681c      	ldr	r4, [r3, #0]
 8005ac8:	3401      	adds	r4, #1
 8005aca:	601c      	str	r4, [r3, #0]
 8005acc:	b9cc      	cbnz	r4, 8005b02 <xTaskIncrementTick+0x4a>
 8005ace:	4b3d      	ldr	r3, [pc, #244]	@ (8005bc4 <xTaskIncrementTick+0x10c>)
 8005ad0:	681a      	ldr	r2, [r3, #0]
 8005ad2:	6812      	ldr	r2, [r2, #0]
 8005ad4:	b152      	cbz	r2, 8005aec <xTaskIncrementTick+0x34>
 8005ad6:	f04f 0350 	mov.w	r3, #80	@ 0x50
 8005ada:	b672      	cpsid	i
 8005adc:	f383 8811 	msr	BASEPRI, r3
 8005ae0:	f3bf 8f6f 	isb	sy
 8005ae4:	f3bf 8f4f 	dsb	sy
 8005ae8:	b662      	cpsie	i
 8005aea:	e7fe      	b.n	8005aea <xTaskIncrementTick+0x32>
 8005aec:	4a36      	ldr	r2, [pc, #216]	@ (8005bc8 <xTaskIncrementTick+0x110>)
 8005aee:	6819      	ldr	r1, [r3, #0]
 8005af0:	6810      	ldr	r0, [r2, #0]
 8005af2:	6018      	str	r0, [r3, #0]
 8005af4:	6011      	str	r1, [r2, #0]
 8005af6:	4a35      	ldr	r2, [pc, #212]	@ (8005bcc <xTaskIncrementTick+0x114>)
 8005af8:	6813      	ldr	r3, [r2, #0]
 8005afa:	3301      	adds	r3, #1
 8005afc:	6013      	str	r3, [r2, #0]
 8005afe:	f7ff fe6b 	bl	80057d8 <prvResetNextTaskUnblockTime>
 8005b02:	4d33      	ldr	r5, [pc, #204]	@ (8005bd0 <xTaskIncrementTick+0x118>)
 8005b04:	f04f 0b00 	mov.w	fp, #0
 8005b08:	4e32      	ldr	r6, [pc, #200]	@ (8005bd4 <xTaskIncrementTick+0x11c>)
 8005b0a:	682b      	ldr	r3, [r5, #0]
 8005b0c:	4f32      	ldr	r7, [pc, #200]	@ (8005bd8 <xTaskIncrementTick+0x120>)
 8005b0e:	42a3      	cmp	r3, r4
 8005b10:	d911      	bls.n	8005b36 <xTaskIncrementTick+0x7e>
 8005b12:	683a      	ldr	r2, [r7, #0]
 8005b14:	2114      	movs	r1, #20
 8005b16:	6ad2      	ldr	r2, [r2, #44]	@ 0x2c
 8005b18:	434a      	muls	r2, r1
 8005b1a:	58b2      	ldr	r2, [r6, r2]
 8005b1c:	2a02      	cmp	r2, #2
 8005b1e:	bf28      	it	cs
 8005b20:	f04f 0b01 	movcs.w	fp, #1
 8005b24:	4a2d      	ldr	r2, [pc, #180]	@ (8005bdc <xTaskIncrementTick+0x124>)
 8005b26:	6812      	ldr	r2, [r2, #0]
 8005b28:	2a00      	cmp	r2, #0
 8005b2a:	bf0c      	ite	eq
 8005b2c:	4658      	moveq	r0, fp
 8005b2e:	2001      	movne	r0, #1
 8005b30:	b003      	add	sp, #12
 8005b32:	e8bd 8ff0 	ldmia.w	sp!, {r4, r5, r6, r7, r8, r9, sl, fp, pc}
 8005b36:	f8df 908c 	ldr.w	r9, [pc, #140]	@ 8005bc4 <xTaskIncrementTick+0x10c>
 8005b3a:	f8df a0a8 	ldr.w	sl, [pc, #168]	@ 8005be4 <xTaskIncrementTick+0x12c>
 8005b3e:	f8d9 2000 	ldr.w	r2, [r9]
 8005b42:	6812      	ldr	r2, [r2, #0]
 8005b44:	b91a      	cbnz	r2, 8005b4e <xTaskIncrementTick+0x96>
 8005b46:	f04f 32ff 	mov.w	r2, #4294967295
 8005b4a:	602a      	str	r2, [r5, #0]
 8005b4c:	e7e1      	b.n	8005b12 <xTaskIncrementTick+0x5a>
 8005b4e:	f8d9 2000 	ldr.w	r2, [r9]
 8005b52:	68d2      	ldr	r2, [r2, #12]
 8005b54:	f8d2 800c 	ldr.w	r8, [r2, #12]
 8005b58:	f8d8 1004 	ldr.w	r1, [r8, #4]
 8005b5c:	428c      	cmp	r4, r1
 8005b5e:	d201      	bcs.n	8005b64 <xTaskIncrementTick+0xac>
 8005b60:	6029      	str	r1, [r5, #0]
 8005b62:	e7d6      	b.n	8005b12 <xTaskIncrementTick+0x5a>
 8005b64:	f108 0304 	add.w	r3, r8, #4
 8005b68:	4618      	mov	r0, r3
 8005b6a:	9301      	str	r3, [sp, #4]
 8005b6c:	f7ff fa4a 	bl	8005004 <uxListRemove>
 8005b70:	f8d8 1028 	ldr.w	r1, [r8, #40]	@ 0x28
 8005b74:	b119      	cbz	r1, 8005b7e <xTaskIncrementTick+0xc6>
 8005b76:	f108 0018 	add.w	r0, r8, #24
 8005b7a:	f7ff fa43 	bl	8005004 <uxListRemove>
 8005b7e:	f8d8 002c 	ldr.w	r0, [r8, #44]	@ 0x2c
 8005b82:	f8da 1000 	ldr.w	r1, [sl]
 8005b86:	4288      	cmp	r0, r1
 8005b88:	d901      	bls.n	8005b8e <xTaskIncrementTick+0xd6>
 8005b8a:	f8ca 0000 	str.w	r0, [sl]
 8005b8e:	2314      	movs	r3, #20
 8005b90:	9901      	ldr	r1, [sp, #4]
 8005b92:	fb03 6000 	mla	r0, r3, r0, r6
 8005b96:	f7ff fa13 	bl	8004fc0 <vListInsertEnd>
 8005b9a:	6838      	ldr	r0, [r7, #0]
 8005b9c:	f8d8 102c 	ldr.w	r1, [r8, #44]	@ 0x2c
 8005ba0:	6ac2      	ldr	r2, [r0, #44]	@ 0x2c
 8005ba2:	4291      	cmp	r1, r2
 8005ba4:	bf28      	it	cs
 8005ba6:	f04f 0b01 	movcs.w	fp, #1
 8005baa:	e7c8      	b.n	8005b3e <xTaskIncrementTick+0x86>
 8005bac:	4a0c      	ldr	r2, [pc, #48]	@ (8005be0 <xTaskIncrementTick+0x128>)
 8005bae:	f04f 0b00 	mov.w	fp, #0
 8005bb2:	6813      	ldr	r3, [r2, #0]
 8005bb4:	3301      	adds	r3, #1
 8005bb6:	6013      	str	r3, [r2, #0]
 8005bb8:	e7b4      	b.n	8005b24 <xTaskIncrementTick+0x6c>
 8005bba:	bf00      	nop
 8005bbc:	200011c0 	.word	0x200011c0
 8005bc0:	200011e0 	.word	0x200011e0
 8005bc4:	2000122c 	.word	0x2000122c
 8005bc8:	20001228 	.word	0x20001228
 8005bcc:	200011cc 	.word	0x200011cc
 8005bd0:	200011c4 	.word	0x200011c4
 8005bd4:	20001258 	.word	0x20001258
 8005bd8:	200016b8 	.word	0x200016b8
 8005bdc:	200011d0 	.word	0x200011d0
 8005be0:	200011d4 	.word	0x200011d4
 8005be4:	200011dc 	.word	0x200011dc

08005be8 <xTaskResumeAll>:
 8005be8:	e92d 41f0 	stmdb	sp!, {r4, r5, r6, r7, r8, lr}
 8005bec:	4c31      	ldr	r4, [pc, #196]	@ (8005cb4 <xTaskResumeAll+0xcc>)
 8005bee:	6823      	ldr	r3, [r4, #0]
 8005bf0:	b953      	cbnz	r3, 8005c08 <xTaskResumeAll+0x20>
 8005bf2:	f04f 0350 	mov.w	r3, #80	@ 0x50
 8005bf6:	b672      	cpsid	i
 8005bf8:	f383 8811 	msr	BASEPRI, r3
 8005bfc:	f3bf 8f6f 	isb	sy
 8005c00:	f3bf 8f4f 	dsb	sy
 8005c04:	b662      	cpsie	i
 8005c06:	e7fe      	b.n	8005c06 <xTaskResumeAll+0x1e>
 8005c08:	f000 fc4c 	bl	80064a4 <vPortEnterCritical>
 8005c0c:	6823      	ldr	r3, [r4, #0]
 8005c0e:	3b01      	subs	r3, #1
 8005c10:	6023      	str	r3, [r4, #0]
 8005c12:	6824      	ldr	r4, [r4, #0]
 8005c14:	b12c      	cbz	r4, 8005c22 <xTaskResumeAll+0x3a>
 8005c16:	2400      	movs	r4, #0
 8005c18:	f000 fc68 	bl	80064ec <vPortExitCritical>
 8005c1c:	4620      	mov	r0, r4
 8005c1e:	e8bd 81f0 	ldmia.w	sp!, {r4, r5, r6, r7, r8, pc}
 8005c22:	4b25      	ldr	r3, [pc, #148]	@ (8005cb8 <xTaskResumeAll+0xd0>)
 8005c24:	681b      	ldr	r3, [r3, #0]
 8005c26:	2b00      	cmp	r3, #0
 8005c28:	d0f5      	beq.n	8005c16 <xTaskResumeAll+0x2e>
 8005c2a:	4d24      	ldr	r5, [pc, #144]	@ (8005cbc <xTaskResumeAll+0xd4>)
 8005c2c:	4e24      	ldr	r6, [pc, #144]	@ (8005cc0 <xTaskResumeAll+0xd8>)
 8005c2e:	f8df 80a0 	ldr.w	r8, [pc, #160]	@ 8005cd0 <xTaskResumeAll+0xe8>
 8005c32:	e01d      	b.n	8005c70 <xTaskResumeAll+0x88>
 8005c34:	68eb      	ldr	r3, [r5, #12]
 8005c36:	68dc      	ldr	r4, [r3, #12]
 8005c38:	1d27      	adds	r7, r4, #4
 8005c3a:	f104 0018 	add.w	r0, r4, #24
 8005c3e:	f7ff f9e1 	bl	8005004 <uxListRemove>
 8005c42:	4638      	mov	r0, r7
 8005c44:	f7ff f9de 	bl	8005004 <uxListRemove>
 8005c48:	6ae3      	ldr	r3, [r4, #44]	@ 0x2c
 8005c4a:	6832      	ldr	r2, [r6, #0]
 8005c4c:	4293      	cmp	r3, r2
 8005c4e:	d900      	bls.n	8005c52 <xTaskResumeAll+0x6a>
 8005c50:	6033      	str	r3, [r6, #0]
 8005c52:	2014      	movs	r0, #20
 8005c54:	4639      	mov	r1, r7
 8005c56:	fb00 8003 	mla	r0, r0, r3, r8
 8005c5a:	f7ff f9b1 	bl	8004fc0 <vListInsertEnd>
 8005c5e:	4b19      	ldr	r3, [pc, #100]	@ (8005cc4 <xTaskResumeAll+0xdc>)
 8005c60:	6ae2      	ldr	r2, [r4, #44]	@ 0x2c
 8005c62:	681b      	ldr	r3, [r3, #0]
 8005c64:	6adb      	ldr	r3, [r3, #44]	@ 0x2c
 8005c66:	429a      	cmp	r2, r3
 8005c68:	d302      	bcc.n	8005c70 <xTaskResumeAll+0x88>
 8005c6a:	4b17      	ldr	r3, [pc, #92]	@ (8005cc8 <xTaskResumeAll+0xe0>)
 8005c6c:	2201      	movs	r2, #1
 8005c6e:	601a      	str	r2, [r3, #0]
 8005c70:	682b      	ldr	r3, [r5, #0]
 8005c72:	2b00      	cmp	r3, #0
 8005c74:	d1de      	bne.n	8005c34 <xTaskResumeAll+0x4c>
 8005c76:	b10c      	cbz	r4, 8005c7c <xTaskResumeAll+0x94>
 8005c78:	f7ff fdae 	bl	80057d8 <prvResetNextTaskUnblockTime>
 8005c7c:	4d13      	ldr	r5, [pc, #76]	@ (8005ccc <xTaskResumeAll+0xe4>)
 8005c7e:	682c      	ldr	r4, [r5, #0]
 8005c80:	b144      	cbz	r4, 8005c94 <xTaskResumeAll+0xac>
 8005c82:	4e11      	ldr	r6, [pc, #68]	@ (8005cc8 <xTaskResumeAll+0xe0>)
 8005c84:	2701      	movs	r7, #1
 8005c86:	f7ff ff17 	bl	8005ab8 <xTaskIncrementTick>
 8005c8a:	b100      	cbz	r0, 8005c8e <xTaskResumeAll+0xa6>
 8005c8c:	6037      	str	r7, [r6, #0]
 8005c8e:	3c01      	subs	r4, #1
 8005c90:	d1f9      	bne.n	8005c86 <xTaskResumeAll+0x9e>
 8005c92:	602c      	str	r4, [r5, #0]
 8005c94:	4b0c      	ldr	r3, [pc, #48]	@ (8005cc8 <xTaskResumeAll+0xe0>)
 8005c96:	681b      	ldr	r3, [r3, #0]
 8005c98:	2b00      	cmp	r3, #0
 8005c9a:	d0bc      	beq.n	8005c16 <xTaskResumeAll+0x2e>
 8005c9c:	f04f 23e0 	mov.w	r3, #3758153728	@ 0xe000e000
 8005ca0:	f04f 5280 	mov.w	r2, #268435456	@ 0x10000000
 8005ca4:	f8c3 2d04 	str.w	r2, [r3, #3332]	@ 0xd04
 8005ca8:	f3bf 8f4f 	dsb	sy
 8005cac:	f3bf 8f6f 	isb	sy
 8005cb0:	2401      	movs	r4, #1
 8005cb2:	e7b1      	b.n	8005c18 <xTaskResumeAll+0x30>
 8005cb4:	200011c0 	.word	0x200011c0
 8005cb8:	200011e4 	.word	0x200011e4
 8005cbc:	20001214 	.word	0x20001214
 8005cc0:	200011dc 	.word	0x200011dc
 8005cc4:	200016b8 	.word	0x200016b8
 8005cc8:	200011d0 	.word	0x200011d0
 8005ccc:	200011d4 	.word	0x200011d4
 8005cd0:	20001258 	.word	0x20001258

08005cd4 <vTaskDelay>:
 8005cd4:	b508      	push	{r3, lr}
 8005cd6:	b950      	cbnz	r0, 8005cee <vTaskDelay+0x1a>
 8005cd8:	f04f 23e0 	mov.w	r3, #3758153728	@ 0xe000e000
 8005cdc:	f04f 5280 	mov.w	r2, #268435456	@ 0x10000000
 8005ce0:	f8c3 2d04 	str.w	r2, [r3, #3332]	@ 0xd04
 8005ce4:	f3bf 8f4f 	dsb	sy
 8005ce8:	f3bf 8f6f 	isb	sy
 8005cec:	bd08      	pop	{r3, pc}
 8005cee:	4b0b      	ldr	r3, [pc, #44]	@ (8005d1c <vTaskDelay+0x48>)
 8005cf0:	6819      	ldr	r1, [r3, #0]
 8005cf2:	b151      	cbz	r1, 8005d0a <vTaskDelay+0x36>
 8005cf4:	f04f 0350 	mov.w	r3, #80	@ 0x50
 8005cf8:	b672      	cpsid	i
 8005cfa:	f383 8811 	msr	BASEPRI, r3
 8005cfe:	f3bf 8f6f 	isb	sy
 8005d02:	f3bf 8f4f 	dsb	sy
 8005d06:	b662      	cpsie	i
 8005d08:	e7fe      	b.n	8005d08 <vTaskDelay+0x34>
 8005d0a:	f7ff fec7 	bl	8005a9c <vTaskSuspendAll>
 8005d0e:	f7ff fd2b 	bl	8005768 <prvAddCurrentTaskToDelayedList>
 8005d12:	f7ff ff69 	bl	8005be8 <xTaskResumeAll>
 8005d16:	2800      	cmp	r0, #0
 8005d18:	d0de      	beq.n	8005cd8 <vTaskDelay+0x4>
 8005d1a:	e7e7      	b.n	8005cec <vTaskDelay+0x18>
 8005d1c:	200011c0 	.word	0x200011c0

08005d20 <vTaskSwitchContext>:
 8005d20:	4b18      	ldr	r3, [pc, #96]	@ (8005d84 <vTaskSwitchContext+0x64>)
 8005d22:	681a      	ldr	r2, [r3, #0]
 8005d24:	4b18      	ldr	r3, [pc, #96]	@ (8005d88 <vTaskSwitchContext+0x68>)
 8005d26:	b570      	push	{r4, r5, r6, lr}
 8005d28:	b112      	cbz	r2, 8005d30 <vTaskSwitchContext+0x10>
 8005d2a:	2201      	movs	r2, #1
 8005d2c:	601a      	str	r2, [r3, #0]
 8005d2e:	bd70      	pop	{r4, r5, r6, pc}
 8005d30:	4d16      	ldr	r5, [pc, #88]	@ (8005d8c <vTaskSwitchContext+0x6c>)
 8005d32:	2614      	movs	r6, #20
 8005d34:	601a      	str	r2, [r3, #0]
 8005d36:	4916      	ldr	r1, [pc, #88]	@ (8005d90 <vTaskSwitchContext+0x70>)
 8005d38:	682a      	ldr	r2, [r5, #0]
 8005d3a:	fb06 f302 	mul.w	r3, r6, r2
 8005d3e:	58cc      	ldr	r4, [r1, r3]
 8005d40:	18c8      	adds	r0, r1, r3
 8005d42:	b18c      	cbz	r4, 8005d68 <vTaskSwitchContext+0x48>
 8005d44:	6844      	ldr	r4, [r0, #4]
 8005d46:	3308      	adds	r3, #8
 8005d48:	6864      	ldr	r4, [r4, #4]
 8005d4a:	440b      	add	r3, r1
 8005d4c:	429c      	cmp	r4, r3
 8005d4e:	6044      	str	r4, [r0, #4]
 8005d50:	bf04      	itt	eq
 8005d52:	6863      	ldreq	r3, [r4, #4]
 8005d54:	6043      	streq	r3, [r0, #4]
 8005d56:	2314      	movs	r3, #20
 8005d58:	fb03 1102 	mla	r1, r3, r2, r1
 8005d5c:	684b      	ldr	r3, [r1, #4]
 8005d5e:	68d9      	ldr	r1, [r3, #12]
 8005d60:	4b0c      	ldr	r3, [pc, #48]	@ (8005d94 <vTaskSwitchContext+0x74>)
 8005d62:	6019      	str	r1, [r3, #0]
 8005d64:	602a      	str	r2, [r5, #0]
 8005d66:	e7e2      	b.n	8005d2e <vTaskSwitchContext+0xe>
 8005d68:	b952      	cbnz	r2, 8005d80 <vTaskSwitchContext+0x60>
 8005d6a:	f04f 0350 	mov.w	r3, #80	@ 0x50
 8005d6e:	b672      	cpsid	i
 8005d70:	f383 8811 	msr	BASEPRI, r3
 8005d74:	f3bf 8f6f 	isb	sy
 8005d78:	f3bf 8f4f 	dsb	sy
 8005d7c:	b662      	cpsie	i
 8005d7e:	e7fe      	b.n	8005d7e <vTaskSwitchContext+0x5e>
 8005d80:	3a01      	subs	r2, #1
 8005d82:	e7da      	b.n	8005d3a <vTaskSwitchContext+0x1a>
 8005d84:	200011c0 	.word	0x200011c0
 8005d88:	200011d0 	.word	0x200011d0
 8005d8c:	200011dc 	.word	0x200011dc
 8005d90:	20001258 	.word	0x20001258
 8005d94:	200016b8 	.word	0x200016b8

08005d98 <vTaskPlaceOnEventList>:
 8005d98:	b510      	push	{r4, lr}
 8005d9a:	460c      	mov	r4, r1
 8005d9c:	b950      	cbnz	r0, 8005db4 <vTaskPlaceOnEventList+0x1c>
 8005d9e:	f04f 0350 	mov.w	r3, #80	@ 0x50
 8005da2:	b672      	cpsid	i
 8005da4:	f383 8811 	msr	BASEPRI, r3
 8005da8:	f3bf 8f6f 	isb	sy
 8005dac:	f3bf 8f4f 	dsb	sy
 8005db0:	b662      	cpsie	i
 8005db2:	e7fe      	b.n	8005db2 <vTaskPlaceOnEventList+0x1a>
 8005db4:	4b05      	ldr	r3, [pc, #20]	@ (8005dcc <vTaskPlaceOnEventList+0x34>)
 8005db6:	6819      	ldr	r1, [r3, #0]
 8005db8:	3118      	adds	r1, #24
 8005dba:	f7ff f90c 	bl	8004fd6 <vListInsert>
 8005dbe:	4620      	mov	r0, r4
 8005dc0:	2101      	movs	r1, #1
 8005dc2:	e8bd 4010 	ldmia.w	sp!, {r4, lr}
 8005dc6:	f7ff bccf 	b.w	8005768 <prvAddCurrentTaskToDelayedList>
 8005dca:	bf00      	nop
 8005dcc:	200016b8 	.word	0x200016b8

08005dd0 <vTaskPlaceOnEventListRestricted>:
 8005dd0:	b538      	push	{r3, r4, r5, lr}
 8005dd2:	460d      	mov	r5, r1
 8005dd4:	4614      	mov	r4, r2
 8005dd6:	b950      	cbnz	r0, 8005dee <vTaskPlaceOnEventListRestricted+0x1e>
 8005dd8:	f04f 0350 	mov.w	r3, #80	@ 0x50
 8005ddc:	b672      	cpsid	i
 8005dde:	f383 8811 	msr	BASEPRI, r3
 8005de2:	f3bf 8f6f 	isb	sy
 8005de6:	f3bf 8f4f 	dsb	sy
 8005dea:	b662      	cpsie	i
 8005dec:	e7fe      	b.n	8005dec <vTaskPlaceOnEventListRestricted+0x1c>
 8005dee:	4b07      	ldr	r3, [pc, #28]	@ (8005e0c <vTaskPlaceOnEventListRestricted+0x3c>)
 8005df0:	6819      	ldr	r1, [r3, #0]
 8005df2:	3118      	adds	r1, #24
 8005df4:	f7ff f8e4 	bl	8004fc0 <vListInsertEnd>
 8005df8:	2c00      	cmp	r4, #0
 8005dfa:	4621      	mov	r1, r4
 8005dfc:	bf0c      	ite	eq
 8005dfe:	4628      	moveq	r0, r5
 8005e00:	f04f 30ff 	movne.w	r0, #4294967295
 8005e04:	e8bd 4038 	ldmia.w	sp!, {r3, r4, r5, lr}
 8005e08:	f7ff bcae 	b.w	8005768 <prvAddCurrentTaskToDelayedList>
 8005e0c:	200016b8 	.word	0x200016b8

08005e10 <xTaskRemoveFromEventList>:
 8005e10:	b538      	push	{r3, r4, r5, lr}
 8005e12:	68c3      	ldr	r3, [r0, #12]
 8005e14:	68dc      	ldr	r4, [r3, #12]
 8005e16:	b954      	cbnz	r4, 8005e2e <xTaskRemoveFromEventList+0x1e>
 8005e18:	f04f 0350 	mov.w	r3, #80	@ 0x50
 8005e1c:	b672      	cpsid	i
 8005e1e:	f383 8811 	msr	BASEPRI, r3
 8005e22:	f3bf 8f6f 	isb	sy
 8005e26:	f3bf 8f4f 	dsb	sy
 8005e2a:	b662      	cpsie	i
 8005e2c:	e7fe      	b.n	8005e2c <xTaskRemoveFromEventList+0x1c>
 8005e2e:	f104 0518 	add.w	r5, r4, #24
 8005e32:	4628      	mov	r0, r5
 8005e34:	f7ff f8e6 	bl	8005004 <uxListRemove>
 8005e38:	4b11      	ldr	r3, [pc, #68]	@ (8005e80 <xTaskRemoveFromEventList+0x70>)
 8005e3a:	681b      	ldr	r3, [r3, #0]
 8005e3c:	b9d3      	cbnz	r3, 8005e74 <xTaskRemoveFromEventList+0x64>
 8005e3e:	1d25      	adds	r5, r4, #4
 8005e40:	4628      	mov	r0, r5
 8005e42:	f7ff f8df 	bl	8005004 <uxListRemove>
 8005e46:	4a0f      	ldr	r2, [pc, #60]	@ (8005e84 <xTaskRemoveFromEventList+0x74>)
 8005e48:	6ae3      	ldr	r3, [r4, #44]	@ 0x2c
 8005e4a:	6811      	ldr	r1, [r2, #0]
 8005e4c:	428b      	cmp	r3, r1
 8005e4e:	d900      	bls.n	8005e52 <xTaskRemoveFromEventList+0x42>
 8005e50:	6013      	str	r3, [r2, #0]
 8005e52:	2014      	movs	r0, #20
 8005e54:	4a0c      	ldr	r2, [pc, #48]	@ (8005e88 <xTaskRemoveFromEventList+0x78>)
 8005e56:	4629      	mov	r1, r5
 8005e58:	fb00 2003 	mla	r0, r0, r3, r2
 8005e5c:	f7ff f8b0 	bl	8004fc0 <vListInsertEnd>
 8005e60:	4b0a      	ldr	r3, [pc, #40]	@ (8005e8c <xTaskRemoveFromEventList+0x7c>)
 8005e62:	6ae2      	ldr	r2, [r4, #44]	@ 0x2c
 8005e64:	681b      	ldr	r3, [r3, #0]
 8005e66:	6adb      	ldr	r3, [r3, #44]	@ 0x2c
 8005e68:	429a      	cmp	r2, r3
 8005e6a:	d906      	bls.n	8005e7a <xTaskRemoveFromEventList+0x6a>
 8005e6c:	2001      	movs	r0, #1
 8005e6e:	4b08      	ldr	r3, [pc, #32]	@ (8005e90 <xTaskRemoveFromEventList+0x80>)
 8005e70:	6018      	str	r0, [r3, #0]
 8005e72:	bd38      	pop	{r3, r4, r5, pc}
 8005e74:	4629      	mov	r1, r5
 8005e76:	4807      	ldr	r0, [pc, #28]	@ (8005e94 <xTaskRemoveFromEventList+0x84>)
 8005e78:	e7f0      	b.n	8005e5c <xTaskRemoveFromEventList+0x4c>
 8005e7a:	2000      	movs	r0, #0
 8005e7c:	e7f9      	b.n	8005e72 <xTaskRemoveFromEventList+0x62>
 8005e7e:	bf00      	nop
 8005e80:	200011c0 	.word	0x200011c0
 8005e84:	200011dc 	.word	0x200011dc
 8005e88:	20001258 	.word	0x20001258
 8005e8c:	200016b8 	.word	0x200016b8
 8005e90:	200011d0 	.word	0x200011d0
 8005e94:	20001214 	.word	0x20001214

08005e98 <vTaskInternalSetTimeOutState>:
 8005e98:	4b03      	ldr	r3, [pc, #12]	@ (8005ea8 <vTaskInternalSetTimeOutState+0x10>)
 8005e9a:	681b      	ldr	r3, [r3, #0]
 8005e9c:	6003      	str	r3, [r0, #0]
 8005e9e:	4b03      	ldr	r3, [pc, #12]	@ (8005eac <vTaskInternalSetTimeOutState+0x14>)
 8005ea0:	681b      	ldr	r3, [r3, #0]
 8005ea2:	6043      	str	r3, [r0, #4]
 8005ea4:	4770      	bx	lr
 8005ea6:	bf00      	nop
 8005ea8:	200011cc 	.word	0x200011cc
 8005eac:	200011e0 	.word	0x200011e0

08005eb0 <xTaskCheckForTimeOut>:
 8005eb0:	b570      	push	{r4, r5, r6, lr}
 8005eb2:	460c      	mov	r4, r1
 8005eb4:	4605      	mov	r5, r0
 8005eb6:	b950      	cbnz	r0, 8005ece <xTaskCheckForTimeOut+0x1e>
 8005eb8:	f04f 0350 	mov.w	r3, #80	@ 0x50
 8005ebc:	b672      	cpsid	i
 8005ebe:	f383 8811 	msr	BASEPRI, r3
 8005ec2:	f3bf 8f6f 	isb	sy
 8005ec6:	f3bf 8f4f 	dsb	sy
 8005eca:	b662      	cpsie	i
 8005ecc:	e7fe      	b.n	8005ecc <xTaskCheckForTimeOut+0x1c>
 8005ece:	b951      	cbnz	r1, 8005ee6 <xTaskCheckForTimeOut+0x36>
 8005ed0:	f04f 0350 	mov.w	r3, #80	@ 0x50
 8005ed4:	b672      	cpsid	i
 8005ed6:	f383 8811 	msr	BASEPRI, r3
 8005eda:	f3bf 8f6f 	isb	sy
 8005ede:	f3bf 8f4f 	dsb	sy
 8005ee2:	b662      	cpsie	i
 8005ee4:	e7fe      	b.n	8005ee4 <xTaskCheckForTimeOut+0x34>
 8005ee6:	f000 fadd 	bl	80064a4 <vPortEnterCritical>
 8005eea:	4b0f      	ldr	r3, [pc, #60]	@ (8005f28 <xTaskCheckForTimeOut+0x78>)
 8005eec:	6819      	ldr	r1, [r3, #0]
 8005eee:	6823      	ldr	r3, [r4, #0]
 8005ef0:	1c5a      	adds	r2, r3, #1
 8005ef2:	d010      	beq.n	8005f16 <xTaskCheckForTimeOut+0x66>
 8005ef4:	480d      	ldr	r0, [pc, #52]	@ (8005f2c <xTaskCheckForTimeOut+0x7c>)
 8005ef6:	682e      	ldr	r6, [r5, #0]
 8005ef8:	6800      	ldr	r0, [r0, #0]
 8005efa:	686a      	ldr	r2, [r5, #4]
 8005efc:	4286      	cmp	r6, r0
 8005efe:	d001      	beq.n	8005f04 <xTaskCheckForTimeOut+0x54>
 8005f00:	428a      	cmp	r2, r1
 8005f02:	d90f      	bls.n	8005f24 <xTaskCheckForTimeOut+0x74>
 8005f04:	1a88      	subs	r0, r1, r2
 8005f06:	4283      	cmp	r3, r0
 8005f08:	d90a      	bls.n	8005f20 <xTaskCheckForTimeOut+0x70>
 8005f0a:	1a5b      	subs	r3, r3, r1
 8005f0c:	4628      	mov	r0, r5
 8005f0e:	4413      	add	r3, r2
 8005f10:	6023      	str	r3, [r4, #0]
 8005f12:	f7ff ffc1 	bl	8005e98 <vTaskInternalSetTimeOutState>
 8005f16:	2400      	movs	r4, #0
 8005f18:	f000 fae8 	bl	80064ec <vPortExitCritical>
 8005f1c:	4620      	mov	r0, r4
 8005f1e:	bd70      	pop	{r4, r5, r6, pc}
 8005f20:	2300      	movs	r3, #0
 8005f22:	6023      	str	r3, [r4, #0]
 8005f24:	2401      	movs	r4, #1
 8005f26:	e7f7      	b.n	8005f18 <xTaskCheckForTimeOut+0x68>
 8005f28:	200011e0 	.word	0x200011e0
 8005f2c:	200011cc 	.word	0x200011cc

08005f30 <vTaskMissedYield>:
 8005f30:	4b01      	ldr	r3, [pc, #4]	@ (8005f38 <vTaskMissedYield+0x8>)
 8005f32:	2201      	movs	r2, #1
 8005f34:	601a      	str	r2, [r3, #0]
 8005f36:	4770      	bx	lr
 8005f38:	200011d0 	.word	0x200011d0

08005f3c <xTaskGetSchedulerState>:
 8005f3c:	4b05      	ldr	r3, [pc, #20]	@ (8005f54 <xTaskGetSchedulerState+0x18>)
 8005f3e:	681b      	ldr	r3, [r3, #0]
 8005f40:	b133      	cbz	r3, 8005f50 <xTaskGetSchedulerState+0x14>
 8005f42:	4b05      	ldr	r3, [pc, #20]	@ (8005f58 <xTaskGetSchedulerState+0x1c>)
 8005f44:	6818      	ldr	r0, [r3, #0]
 8005f46:	fab0 f080 	clz	r0, r0
 8005f4a:	0940      	lsrs	r0, r0, #5
 8005f4c:	0040      	lsls	r0, r0, #1
 8005f4e:	4770      	bx	lr
 8005f50:	2001      	movs	r0, #1
 8005f52:	4770      	bx	lr
 8005f54:	200011d8 	.word	0x200011d8
 8005f58:	200011c0 	.word	0x200011c0

08005f5c <xTaskPriorityDisinherit>:
 8005f5c:	b538      	push	{r3, r4, r5, lr}
 8005f5e:	b908      	cbnz	r0, 8005f64 <xTaskPriorityDisinherit+0x8>
 8005f60:	2000      	movs	r0, #0
 8005f62:	bd38      	pop	{r3, r4, r5, pc}
 8005f64:	4b1d      	ldr	r3, [pc, #116]	@ (8005fdc <xTaskPriorityDisinherit+0x80>)
 8005f66:	681c      	ldr	r4, [r3, #0]
 8005f68:	4284      	cmp	r4, r0
 8005f6a:	d00a      	beq.n	8005f82 <xTaskPriorityDisinherit+0x26>
 8005f6c:	f04f 0350 	mov.w	r3, #80	@ 0x50
 8005f70:	b672      	cpsid	i
 8005f72:	f383 8811 	msr	BASEPRI, r3
 8005f76:	f3bf 8f6f 	isb	sy
 8005f7a:	f3bf 8f4f 	dsb	sy
 8005f7e:	b662      	cpsie	i
 8005f80:	e7fe      	b.n	8005f80 <xTaskPriorityDisinherit+0x24>
 8005f82:	6d23      	ldr	r3, [r4, #80]	@ 0x50
 8005f84:	b953      	cbnz	r3, 8005f9c <xTaskPriorityDisinherit+0x40>
 8005f86:	f04f 0350 	mov.w	r3, #80	@ 0x50
 8005f8a:	b672      	cpsid	i
 8005f8c:	f383 8811 	msr	BASEPRI, r3
 8005f90:	f3bf 8f6f 	isb	sy
 8005f94:	f3bf 8f4f 	dsb	sy
 8005f98:	b662      	cpsie	i
 8005f9a:	e7fe      	b.n	8005f9a <xTaskPriorityDisinherit+0x3e>
 8005f9c:	6ae1      	ldr	r1, [r4, #44]	@ 0x2c
 8005f9e:	3b01      	subs	r3, #1
 8005fa0:	6ce2      	ldr	r2, [r4, #76]	@ 0x4c
 8005fa2:	6523      	str	r3, [r4, #80]	@ 0x50
 8005fa4:	4291      	cmp	r1, r2
 8005fa6:	d0db      	beq.n	8005f60 <xTaskPriorityDisinherit+0x4>
 8005fa8:	2b00      	cmp	r3, #0
 8005faa:	d1d9      	bne.n	8005f60 <xTaskPriorityDisinherit+0x4>
 8005fac:	1d25      	adds	r5, r4, #4
 8005fae:	4628      	mov	r0, r5
 8005fb0:	f7ff f828 	bl	8005004 <uxListRemove>
 8005fb4:	6ce3      	ldr	r3, [r4, #76]	@ 0x4c
 8005fb6:	f1c3 0238 	rsb	r2, r3, #56	@ 0x38
 8005fba:	62e3      	str	r3, [r4, #44]	@ 0x2c
 8005fbc:	61a2      	str	r2, [r4, #24]
 8005fbe:	4a08      	ldr	r2, [pc, #32]	@ (8005fe0 <xTaskPriorityDisinherit+0x84>)
 8005fc0:	6811      	ldr	r1, [r2, #0]
 8005fc2:	428b      	cmp	r3, r1
 8005fc4:	d900      	bls.n	8005fc8 <xTaskPriorityDisinherit+0x6c>
 8005fc6:	6013      	str	r3, [r2, #0]
 8005fc8:	4a06      	ldr	r2, [pc, #24]	@ (8005fe4 <xTaskPriorityDisinherit+0x88>)
 8005fca:	2014      	movs	r0, #20
 8005fcc:	4629      	mov	r1, r5
 8005fce:	fb00 2003 	mla	r0, r0, r3, r2
 8005fd2:	f7fe fff5 	bl	8004fc0 <vListInsertEnd>
 8005fd6:	2001      	movs	r0, #1
 8005fd8:	e7c3      	b.n	8005f62 <xTaskPriorityDisinherit+0x6>
 8005fda:	bf00      	nop
 8005fdc:	200016b8 	.word	0x200016b8
 8005fe0:	200011dc 	.word	0x200011dc
 8005fe4:	20001258 	.word	0x20001258

08005fe8 <prvInsertTimerInActiveList>:
 8005fe8:	4291      	cmp	r1, r2
 8005fea:	b508      	push	{r3, lr}
 8005fec:	6041      	str	r1, [r0, #4]
 8005fee:	6100      	str	r0, [r0, #16]
 8005ff0:	d80a      	bhi.n	8006008 <prvInsertTimerInActiveList+0x20>
 8005ff2:	1ad2      	subs	r2, r2, r3
 8005ff4:	6983      	ldr	r3, [r0, #24]
 8005ff6:	429a      	cmp	r2, r3
 8005ff8:	d20d      	bcs.n	8006016 <prvInsertTimerInActiveList+0x2e>
 8005ffa:	1d01      	adds	r1, r0, #4
 8005ffc:	4b07      	ldr	r3, [pc, #28]	@ (800601c <prvInsertTimerInActiveList+0x34>)
 8005ffe:	6818      	ldr	r0, [r3, #0]
 8006000:	f7fe ffe9 	bl	8004fd6 <vListInsert>
 8006004:	2000      	movs	r0, #0
 8006006:	bd08      	pop	{r3, pc}
 8006008:	429a      	cmp	r2, r3
 800600a:	d201      	bcs.n	8006010 <prvInsertTimerInActiveList+0x28>
 800600c:	4299      	cmp	r1, r3
 800600e:	d202      	bcs.n	8006016 <prvInsertTimerInActiveList+0x2e>
 8006010:	1d01      	adds	r1, r0, #4
 8006012:	4b03      	ldr	r3, [pc, #12]	@ (8006020 <prvInsertTimerInActiveList+0x38>)
 8006014:	e7f3      	b.n	8005ffe <prvInsertTimerInActiveList+0x16>
 8006016:	2001      	movs	r0, #1
 8006018:	e7f5      	b.n	8006006 <prvInsertTimerInActiveList+0x1e>
 800601a:	bf00      	nop
 800601c:	200017b8 	.word	0x200017b8
 8006020:	200017bc 	.word	0x200017bc

08006024 <prvCheckForValidListAndQueue>:
 8006024:	b5f7      	push	{r0, r1, r2, r4, r5, r6, r7, lr}
 8006026:	4c11      	ldr	r4, [pc, #68]	@ (800606c <prvCheckForValidListAndQueue+0x48>)
 8006028:	f000 fa3c 	bl	80064a4 <vPortEnterCritical>
 800602c:	6825      	ldr	r5, [r4, #0]
 800602e:	b9bd      	cbnz	r5, 8006060 <prvCheckForValidListAndQueue+0x3c>
 8006030:	4f0f      	ldr	r7, [pc, #60]	@ (8006070 <prvCheckForValidListAndQueue+0x4c>)
 8006032:	4e10      	ldr	r6, [pc, #64]	@ (8006074 <prvCheckForValidListAndQueue+0x50>)
 8006034:	4638      	mov	r0, r7
 8006036:	f7fe ffb5 	bl	8004fa4 <vListInitialise>
 800603a:	4630      	mov	r0, r6
 800603c:	f7fe ffb2 	bl	8004fa4 <vListInitialise>
 8006040:	4b0d      	ldr	r3, [pc, #52]	@ (8006078 <prvCheckForValidListAndQueue+0x54>)
 8006042:	4a0e      	ldr	r2, [pc, #56]	@ (800607c <prvCheckForValidListAndQueue+0x58>)
 8006044:	2110      	movs	r1, #16
 8006046:	601f      	str	r7, [r3, #0]
 8006048:	200a      	movs	r0, #10
 800604a:	4b0d      	ldr	r3, [pc, #52]	@ (8006080 <prvCheckForValidListAndQueue+0x5c>)
 800604c:	601e      	str	r6, [r3, #0]
 800604e:	4b0d      	ldr	r3, [pc, #52]	@ (8006084 <prvCheckForValidListAndQueue+0x60>)
 8006050:	9500      	str	r5, [sp, #0]
 8006052:	f7ff f8ff 	bl	8005254 <xQueueGenericCreateStatic>
 8006056:	6020      	str	r0, [r4, #0]
 8006058:	b110      	cbz	r0, 8006060 <prvCheckForValidListAndQueue+0x3c>
 800605a:	490b      	ldr	r1, [pc, #44]	@ (8006088 <prvCheckForValidListAndQueue+0x64>)
 800605c:	f7ff fad0 	bl	8005600 <vQueueAddToRegistry>
 8006060:	b003      	add	sp, #12
 8006062:	e8bd 40f0 	ldmia.w	sp!, {r4, r5, r6, r7, lr}
 8006066:	f000 ba41 	b.w	80064ec <vPortExitCritical>
 800606a:	bf00      	nop
 800606c:	200017b4 	.word	0x200017b4
 8006070:	200017d4 	.word	0x200017d4
 8006074:	200017c0 	.word	0x200017c0
 8006078:	200017bc 	.word	0x200017bc
 800607c:	2000170c 	.word	0x2000170c
 8006080:	200017b8 	.word	0x200017b8
 8006084:	200016bc 	.word	0x200016bc
 8006088:	08006cd5 	.word	0x08006cd5

0800608c <xTimerCreateTimerTask>:
 800608c:	b510      	push	{r4, lr}
 800608e:	b088      	sub	sp, #32
 8006090:	f7ff ffc8 	bl	8006024 <prvCheckForValidListAndQueue>
 8006094:	4b13      	ldr	r3, [pc, #76]	@ (80060e4 <xTimerCreateTimerTask+0x58>)
 8006096:	681b      	ldr	r3, [r3, #0]
 8006098:	b1b3      	cbz	r3, 80060c8 <xTimerCreateTimerTask+0x3c>
 800609a:	2400      	movs	r4, #0
 800609c:	aa07      	add	r2, sp, #28
 800609e:	a906      	add	r1, sp, #24
 80060a0:	a805      	add	r0, sp, #20
 80060a2:	e9cd 4405 	strd	r4, r4, [sp, #20]
 80060a6:	f7fe ff71 	bl	8004f8c <vApplicationGetTimerTaskMemory>
 80060aa:	9b05      	ldr	r3, [sp, #20]
 80060ac:	9a07      	ldr	r2, [sp, #28]
 80060ae:	9302      	str	r3, [sp, #8]
 80060b0:	9b06      	ldr	r3, [sp, #24]
 80060b2:	490d      	ldr	r1, [pc, #52]	@ (80060e8 <xTimerCreateTimerTask+0x5c>)
 80060b4:	9301      	str	r3, [sp, #4]
 80060b6:	2302      	movs	r3, #2
 80060b8:	480c      	ldr	r0, [pc, #48]	@ (80060ec <xTimerCreateTimerTask+0x60>)
 80060ba:	9300      	str	r3, [sp, #0]
 80060bc:	4623      	mov	r3, r4
 80060be:	f7ff fc36 	bl	800592e <xTaskCreateStatic>
 80060c2:	4b0b      	ldr	r3, [pc, #44]	@ (80060f0 <xTimerCreateTimerTask+0x64>)
 80060c4:	6018      	str	r0, [r3, #0]
 80060c6:	b950      	cbnz	r0, 80060de <xTimerCreateTimerTask+0x52>
 80060c8:	f04f 0350 	mov.w	r3, #80	@ 0x50
 80060cc:	b672      	cpsid	i
 80060ce:	f383 8811 	msr	BASEPRI, r3
 80060d2:	f3bf 8f6f 	isb	sy
 80060d6:	f3bf 8f4f 	dsb	sy
 80060da:	b662      	cpsie	i
 80060dc:	e7fe      	b.n	80060dc <xTimerCreateTimerTask+0x50>
 80060de:	2001      	movs	r0, #1
 80060e0:	b008      	add	sp, #32
 80060e2:	bd10      	pop	{r4, pc}
 80060e4:	200017b4 	.word	0x200017b4
 80060e8:	08006cda 	.word	0x08006cda
 80060ec:	080061f5 	.word	0x080061f5
 80060f0:	200017b0 	.word	0x200017b0

080060f4 <xTimerGenericCommand>:
 80060f4:	b57f      	push	{r0, r1, r2, r3, r4, r5, r6, lr}
 80060f6:	4616      	mov	r6, r2
 80060f8:	4604      	mov	r4, r0
 80060fa:	461a      	mov	r2, r3
 80060fc:	b950      	cbnz	r0, 8006114 <xTimerGenericCommand+0x20>
 80060fe:	f04f 0350 	mov.w	r3, #80	@ 0x50
 8006102:	b672      	cpsid	i
 8006104:	f383 8811 	msr	BASEPRI, r3
 8006108:	f3bf 8f6f 	isb	sy
 800610c:	f3bf 8f4f 	dsb	sy
 8006110:	b662      	cpsie	i
 8006112:	e7fe      	b.n	8006112 <xTimerGenericCommand+0x1e>
 8006114:	4d0c      	ldr	r5, [pc, #48]	@ (8006148 <xTimerGenericCommand+0x54>)
 8006116:	6828      	ldr	r0, [r5, #0]
 8006118:	b178      	cbz	r0, 800613a <xTimerGenericCommand+0x46>
 800611a:	2905      	cmp	r1, #5
 800611c:	9402      	str	r4, [sp, #8]
 800611e:	e9cd 1600 	strd	r1, r6, [sp]
 8006122:	dc0c      	bgt.n	800613e <xTimerGenericCommand+0x4a>
 8006124:	f7ff ff0a 	bl	8005f3c <xTaskGetSchedulerState>
 8006128:	2300      	movs	r3, #0
 800612a:	2802      	cmp	r0, #2
 800612c:	4669      	mov	r1, sp
 800612e:	6828      	ldr	r0, [r5, #0]
 8006130:	bf0c      	ite	eq
 8006132:	9a08      	ldreq	r2, [sp, #32]
 8006134:	461a      	movne	r2, r3
 8006136:	f7ff f8a1 	bl	800527c <xQueueGenericSend>
 800613a:	b004      	add	sp, #16
 800613c:	bd70      	pop	{r4, r5, r6, pc}
 800613e:	2300      	movs	r3, #0
 8006140:	4669      	mov	r1, sp
 8006142:	f7ff f955 	bl	80053f0 <xQueueGenericSendFromISR>
 8006146:	e7f8      	b.n	800613a <xTimerGenericCommand+0x46>
 8006148:	200017b4 	.word	0x200017b4

0800614c <prvSampleTimeNow>:
 800614c:	e92d 47f3 	stmdb	sp!, {r0, r1, r4, r5, r6, r7, r8, r9, sl, lr}
 8006150:	f8df 809c 	ldr.w	r8, [pc, #156]	@ 80061f0 <prvSampleTimeNow+0xa4>
 8006154:	4606      	mov	r6, r0
 8006156:	f7ff fca9 	bl	8005aac <xTaskGetTickCount>
 800615a:	4605      	mov	r5, r0
 800615c:	f8d8 3000 	ldr.w	r3, [r8]
 8006160:	4283      	cmp	r3, r0
 8006162:	d909      	bls.n	8006178 <prvSampleTimeNow+0x2c>
 8006164:	4f20      	ldr	r7, [pc, #128]	@ (80061e8 <prvSampleTimeNow+0x9c>)
 8006166:	683b      	ldr	r3, [r7, #0]
 8006168:	681a      	ldr	r2, [r3, #0]
 800616a:	b96a      	cbnz	r2, 8006188 <prvSampleTimeNow+0x3c>
 800616c:	4a1f      	ldr	r2, [pc, #124]	@ (80061ec <prvSampleTimeNow+0xa0>)
 800616e:	6811      	ldr	r1, [r2, #0]
 8006170:	6013      	str	r3, [r2, #0]
 8006172:	2301      	movs	r3, #1
 8006174:	6039      	str	r1, [r7, #0]
 8006176:	e000      	b.n	800617a <prvSampleTimeNow+0x2e>
 8006178:	2300      	movs	r3, #0
 800617a:	4628      	mov	r0, r5
 800617c:	6033      	str	r3, [r6, #0]
 800617e:	f8c8 5000 	str.w	r5, [r8]
 8006182:	b002      	add	sp, #8
 8006184:	e8bd 87f0 	ldmia.w	sp!, {r4, r5, r6, r7, r8, r9, sl, pc}
 8006188:	68db      	ldr	r3, [r3, #12]
 800618a:	68dc      	ldr	r4, [r3, #12]
 800618c:	f8d3 9000 	ldr.w	r9, [r3]
 8006190:	f104 0a04 	add.w	sl, r4, #4
 8006194:	4650      	mov	r0, sl
 8006196:	f7fe ff35 	bl	8005004 <uxListRemove>
 800619a:	6a23      	ldr	r3, [r4, #32]
 800619c:	4620      	mov	r0, r4
 800619e:	4798      	blx	r3
 80061a0:	f894 3028 	ldrb.w	r3, [r4, #40]	@ 0x28
 80061a4:	075b      	lsls	r3, r3, #29
 80061a6:	d5de      	bpl.n	8006166 <prvSampleTimeNow+0x1a>
 80061a8:	69a3      	ldr	r3, [r4, #24]
 80061aa:	444b      	add	r3, r9
 80061ac:	4599      	cmp	r9, r3
 80061ae:	d206      	bcs.n	80061be <prvSampleTimeNow+0x72>
 80061b0:	4651      	mov	r1, sl
 80061b2:	6838      	ldr	r0, [r7, #0]
 80061b4:	6063      	str	r3, [r4, #4]
 80061b6:	6124      	str	r4, [r4, #16]
 80061b8:	f7fe ff0d 	bl	8004fd6 <vListInsert>
 80061bc:	e7d3      	b.n	8006166 <prvSampleTimeNow+0x1a>
 80061be:	2300      	movs	r3, #0
 80061c0:	464a      	mov	r2, r9
 80061c2:	4620      	mov	r0, r4
 80061c4:	4619      	mov	r1, r3
 80061c6:	9300      	str	r3, [sp, #0]
 80061c8:	f7ff ff94 	bl	80060f4 <xTimerGenericCommand>
 80061cc:	2800      	cmp	r0, #0
 80061ce:	d1ca      	bne.n	8006166 <prvSampleTimeNow+0x1a>
 80061d0:	f04f 0350 	mov.w	r3, #80	@ 0x50
 80061d4:	b672      	cpsid	i
 80061d6:	f383 8811 	msr	BASEPRI, r3
 80061da:	f3bf 8f6f 	isb	sy
 80061de:	f3bf 8f4f 	dsb	sy
 80061e2:	b662      	cpsie	i
 80061e4:	e7fe      	b.n	80061e4 <prvSampleTimeNow+0x98>
 80061e6:	bf00      	nop
 80061e8:	200017bc 	.word	0x200017bc
 80061ec:	200017b8 	.word	0x200017b8
 80061f0:	200017ac 	.word	0x200017ac

080061f4 <prvTimerTask>:
 80061f4:	e92d 43f0 	stmdb	sp!, {r4, r5, r6, r7, r8, r9, lr}
 80061f8:	4d71      	ldr	r5, [pc, #452]	@ (80063c0 <prvTimerTask+0x1cc>)
 80061fa:	b089      	sub	sp, #36	@ 0x24
 80061fc:	4e71      	ldr	r6, [pc, #452]	@ (80063c4 <prvTimerTask+0x1d0>)
 80061fe:	682b      	ldr	r3, [r5, #0]
 8006200:	f8d3 8000 	ldr.w	r8, [r3]
 8006204:	f1b8 0f00 	cmp.w	r8, #0
 8006208:	d037      	beq.n	800627a <prvTimerTask+0x86>
 800620a:	68db      	ldr	r3, [r3, #12]
 800620c:	2400      	movs	r4, #0
 800620e:	f8d3 8000 	ldr.w	r8, [r3]
 8006212:	f7ff fc43 	bl	8005a9c <vTaskSuspendAll>
 8006216:	a804      	add	r0, sp, #16
 8006218:	f7ff ff98 	bl	800614c <prvSampleTimeNow>
 800621c:	9b04      	ldr	r3, [sp, #16]
 800621e:	4681      	mov	r9, r0
 8006220:	2b00      	cmp	r3, #0
 8006222:	d16b      	bne.n	80062fc <prvTimerTask+0x108>
 8006224:	2c00      	cmp	r4, #0
 8006226:	d14e      	bne.n	80062c6 <prvTimerTask+0xd2>
 8006228:	4540      	cmp	r0, r8
 800622a:	d352      	bcc.n	80062d2 <prvTimerTask+0xde>
 800622c:	f7ff fcdc 	bl	8005be8 <xTaskResumeAll>
 8006230:	682b      	ldr	r3, [r5, #0]
 8006232:	68db      	ldr	r3, [r3, #12]
 8006234:	68df      	ldr	r7, [r3, #12]
 8006236:	1d38      	adds	r0, r7, #4
 8006238:	f7fe fee4 	bl	8005004 <uxListRemove>
 800623c:	f897 3028 	ldrb.w	r3, [r7, #40]	@ 0x28
 8006240:	0758      	lsls	r0, r3, #29
 8006242:	d51c      	bpl.n	800627e <prvTimerTask+0x8a>
 8006244:	69b9      	ldr	r1, [r7, #24]
 8006246:	4643      	mov	r3, r8
 8006248:	464a      	mov	r2, r9
 800624a:	4638      	mov	r0, r7
 800624c:	4441      	add	r1, r8
 800624e:	f7ff fecb 	bl	8005fe8 <prvInsertTimerInActiveList>
 8006252:	b1c0      	cbz	r0, 8006286 <prvTimerTask+0x92>
 8006254:	4623      	mov	r3, r4
 8006256:	4642      	mov	r2, r8
 8006258:	4621      	mov	r1, r4
 800625a:	4638      	mov	r0, r7
 800625c:	9400      	str	r4, [sp, #0]
 800625e:	f7ff ff49 	bl	80060f4 <xTimerGenericCommand>
 8006262:	b980      	cbnz	r0, 8006286 <prvTimerTask+0x92>
 8006264:	f04f 0350 	mov.w	r3, #80	@ 0x50
 8006268:	b672      	cpsid	i
 800626a:	f383 8811 	msr	BASEPRI, r3
 800626e:	f3bf 8f6f 	isb	sy
 8006272:	f3bf 8f4f 	dsb	sy
 8006276:	b662      	cpsie	i
 8006278:	e7fe      	b.n	8006278 <prvTimerTask+0x84>
 800627a:	2401      	movs	r4, #1
 800627c:	e7c9      	b.n	8006212 <prvTimerTask+0x1e>
 800627e:	f023 0301 	bic.w	r3, r3, #1
 8006282:	f887 3028 	strb.w	r3, [r7, #40]	@ 0x28
 8006286:	6a3b      	ldr	r3, [r7, #32]
 8006288:	4638      	mov	r0, r7
 800628a:	4798      	blx	r3
 800628c:	2200      	movs	r2, #0
 800628e:	a904      	add	r1, sp, #16
 8006290:	6830      	ldr	r0, [r6, #0]
 8006292:	f7ff f911 	bl	80054b8 <xQueueReceive>
 8006296:	2800      	cmp	r0, #0
 8006298:	d0b1      	beq.n	80061fe <prvTimerTask+0xa>
 800629a:	9b04      	ldr	r3, [sp, #16]
 800629c:	9806      	ldr	r0, [sp, #24]
 800629e:	2b00      	cmp	r3, #0
 80062a0:	db2f      	blt.n	8006302 <prvTimerTask+0x10e>
 80062a2:	9c06      	ldr	r4, [sp, #24]
 80062a4:	6963      	ldr	r3, [r4, #20]
 80062a6:	2b00      	cmp	r3, #0
 80062a8:	d132      	bne.n	8006310 <prvTimerTask+0x11c>
 80062aa:	a803      	add	r0, sp, #12
 80062ac:	f7ff ff4e 	bl	800614c <prvSampleTimeNow>
 80062b0:	9b04      	ldr	r3, [sp, #16]
 80062b2:	4602      	mov	r2, r0
 80062b4:	2b09      	cmp	r3, #9
 80062b6:	d8e9      	bhi.n	800628c <prvTimerTask+0x98>
 80062b8:	e8df f003 	tbb	[pc, r3]
 80062bc:	592e2e2e 	.word	0x592e2e2e
 80062c0:	2e2e7a60 	.word	0x2e2e7a60
 80062c4:	6059      	.short	0x6059
 80062c6:	4b40      	ldr	r3, [pc, #256]	@ (80063c8 <prvTimerTask+0x1d4>)
 80062c8:	681b      	ldr	r3, [r3, #0]
 80062ca:	681c      	ldr	r4, [r3, #0]
 80062cc:	fab4 f484 	clz	r4, r4
 80062d0:	0964      	lsrs	r4, r4, #5
 80062d2:	4622      	mov	r2, r4
 80062d4:	eba8 0109 	sub.w	r1, r8, r9
 80062d8:	6830      	ldr	r0, [r6, #0]
 80062da:	f7ff f9a3 	bl	8005624 <vQueueWaitForMessageRestricted>
 80062de:	f7ff fc83 	bl	8005be8 <xTaskResumeAll>
 80062e2:	2800      	cmp	r0, #0
 80062e4:	d1d2      	bne.n	800628c <prvTimerTask+0x98>
 80062e6:	f04f 23e0 	mov.w	r3, #3758153728	@ 0xe000e000
 80062ea:	f04f 5280 	mov.w	r2, #268435456	@ 0x10000000
 80062ee:	f8c3 2d04 	str.w	r2, [r3, #3332]	@ 0xd04
 80062f2:	f3bf 8f4f 	dsb	sy
 80062f6:	f3bf 8f6f 	isb	sy
 80062fa:	e7c7      	b.n	800628c <prvTimerTask+0x98>
 80062fc:	f7ff fc74 	bl	8005be8 <xTaskResumeAll>
 8006300:	e7c4      	b.n	800628c <prvTimerTask+0x98>
 8006302:	9b05      	ldr	r3, [sp, #20]
 8006304:	9907      	ldr	r1, [sp, #28]
 8006306:	4798      	blx	r3
 8006308:	9b04      	ldr	r3, [sp, #16]
 800630a:	2b00      	cmp	r3, #0
 800630c:	dbbe      	blt.n	800628c <prvTimerTask+0x98>
 800630e:	e7c8      	b.n	80062a2 <prvTimerTask+0xae>
 8006310:	1d20      	adds	r0, r4, #4
 8006312:	f7fe fe77 	bl	8005004 <uxListRemove>
 8006316:	e7c8      	b.n	80062aa <prvTimerTask+0xb6>
 8006318:	f894 3028 	ldrb.w	r3, [r4, #40]	@ 0x28
 800631c:	4620      	mov	r0, r4
 800631e:	69a1      	ldr	r1, [r4, #24]
 8006320:	f043 0301 	orr.w	r3, r3, #1
 8006324:	f884 3028 	strb.w	r3, [r4, #40]	@ 0x28
 8006328:	9b05      	ldr	r3, [sp, #20]
 800632a:	4419      	add	r1, r3
 800632c:	f7ff fe5c 	bl	8005fe8 <prvInsertTimerInActiveList>
 8006330:	2800      	cmp	r0, #0
 8006332:	d0ab      	beq.n	800628c <prvTimerTask+0x98>
 8006334:	6a23      	ldr	r3, [r4, #32]
 8006336:	4620      	mov	r0, r4
 8006338:	4798      	blx	r3
 800633a:	f894 3028 	ldrb.w	r3, [r4, #40]	@ 0x28
 800633e:	0759      	lsls	r1, r3, #29
 8006340:	d5a4      	bpl.n	800628c <prvTimerTask+0x98>
 8006342:	69a2      	ldr	r2, [r4, #24]
 8006344:	2300      	movs	r3, #0
 8006346:	9905      	ldr	r1, [sp, #20]
 8006348:	4620      	mov	r0, r4
 800634a:	9300      	str	r3, [sp, #0]
 800634c:	440a      	add	r2, r1
 800634e:	4619      	mov	r1, r3
 8006350:	f7ff fed0 	bl	80060f4 <xTimerGenericCommand>
 8006354:	2800      	cmp	r0, #0
 8006356:	d199      	bne.n	800628c <prvTimerTask+0x98>
 8006358:	f04f 0350 	mov.w	r3, #80	@ 0x50
 800635c:	b672      	cpsid	i
 800635e:	f383 8811 	msr	BASEPRI, r3
 8006362:	f3bf 8f6f 	isb	sy
 8006366:	f3bf 8f4f 	dsb	sy
 800636a:	b662      	cpsie	i
 800636c:	e7fe      	b.n	800636c <prvTimerTask+0x178>
 800636e:	f894 3028 	ldrb.w	r3, [r4, #40]	@ 0x28
 8006372:	f023 0301 	bic.w	r3, r3, #1
 8006376:	f884 3028 	strb.w	r3, [r4, #40]	@ 0x28
 800637a:	e787      	b.n	800628c <prvTimerTask+0x98>
 800637c:	f894 3028 	ldrb.w	r3, [r4, #40]	@ 0x28
 8006380:	f043 0301 	orr.w	r3, r3, #1
 8006384:	f884 3028 	strb.w	r3, [r4, #40]	@ 0x28
 8006388:	9905      	ldr	r1, [sp, #20]
 800638a:	61a1      	str	r1, [r4, #24]
 800638c:	b951      	cbnz	r1, 80063a4 <prvTimerTask+0x1b0>
 800638e:	f04f 0350 	mov.w	r3, #80	@ 0x50
 8006392:	b672      	cpsid	i
 8006394:	f383 8811 	msr	BASEPRI, r3
 8006398:	f3bf 8f6f 	isb	sy
 800639c:	f3bf 8f4f 	dsb	sy
 80063a0:	b662      	cpsie	i
 80063a2:	e7fe      	b.n	80063a2 <prvTimerTask+0x1ae>
 80063a4:	4603      	mov	r3, r0
 80063a6:	4401      	add	r1, r0
 80063a8:	4620      	mov	r0, r4
 80063aa:	f7ff fe1d 	bl	8005fe8 <prvInsertTimerInActiveList>
 80063ae:	e76d      	b.n	800628c <prvTimerTask+0x98>
 80063b0:	f894 3028 	ldrb.w	r3, [r4, #40]	@ 0x28
 80063b4:	079a      	lsls	r2, r3, #30
 80063b6:	d4dc      	bmi.n	8006372 <prvTimerTask+0x17e>
 80063b8:	4620      	mov	r0, r4
 80063ba:	f000 fa5b 	bl	8006874 <vPortFree>
 80063be:	e765      	b.n	800628c <prvTimerTask+0x98>
 80063c0:	200017bc 	.word	0x200017bc
 80063c4:	200017b4 	.word	0x200017b4
 80063c8:	200017b8 	.word	0x200017b8

080063cc <prvPortStartFirstTask>:
 80063cc:	4808      	ldr	r0, [pc, #32]	@ (80063f0 <prvPortStartFirstTask+0x24>)
 80063ce:	6800      	ldr	r0, [r0, #0]
 80063d0:	6800      	ldr	r0, [r0, #0]
 80063d2:	f380 8808 	msr	MSP, r0
 80063d6:	f04f 0000 	mov.w	r0, #0
 80063da:	f380 8814 	msr	CONTROL, r0
 80063de:	b662      	cpsie	i
 80063e0:	b661      	cpsie	f
 80063e2:	f3bf 8f4f 	dsb	sy
 80063e6:	f3bf 8f6f 	isb	sy
 80063ea:	df00      	svc	0
 80063ec:	bf00      	nop
 80063ee:	0000      	.short	0x0000
 80063f0:	e000ed08 	.word	0xe000ed08

080063f4 <vPortEnableVFP>:
 80063f4:	f8df 000c 	ldr.w	r0, [pc, #12]	@ 8006404 <vPortEnableVFP+0x10>
 80063f8:	6801      	ldr	r1, [r0, #0]
 80063fa:	f441 0170 	orr.w	r1, r1, #15728640	@ 0xf00000
 80063fe:	6001      	str	r1, [r0, #0]
 8006400:	4770      	bx	lr
 8006402:	0000      	.short	0x0000
 8006404:	e000ed88 	.word	0xe000ed88

08006408 <prvTaskExitError>:
 8006408:	2300      	movs	r3, #0
 800640a:	b082      	sub	sp, #8
 800640c:	9301      	str	r3, [sp, #4]
 800640e:	4b0f      	ldr	r3, [pc, #60]	@ (800644c <prvTaskExitError+0x44>)
 8006410:	681b      	ldr	r3, [r3, #0]
 8006412:	3301      	adds	r3, #1
 8006414:	d00a      	beq.n	800642c <prvTaskExitError+0x24>
 8006416:	f04f 0350 	mov.w	r3, #80	@ 0x50
 800641a:	b672      	cpsid	i
 800641c:	f383 8811 	msr	BASEPRI, r3
 8006420:	f3bf 8f6f 	isb	sy
 8006424:	f3bf 8f4f 	dsb	sy
 8006428:	b662      	cpsie	i
 800642a:	e7fe      	b.n	800642a <prvTaskExitError+0x22>
 800642c:	f04f 0350 	mov.w	r3, #80	@ 0x50
 8006430:	b672      	cpsid	i
 8006432:	f383 8811 	msr	BASEPRI, r3
 8006436:	f3bf 8f6f 	isb	sy
 800643a:	f3bf 8f4f 	dsb	sy
 800643e:	b662      	cpsie	i
 8006440:	9b01      	ldr	r3, [sp, #4]
 8006442:	2b00      	cmp	r3, #0
 8006444:	d0fc      	beq.n	8006440 <prvTaskExitError+0x38>
 8006446:	b002      	add	sp, #8
 8006448:	4770      	bx	lr
 800644a:	bf00      	nop
 800644c:	2000000c 	.word	0x2000000c

08006450 <pxPortInitialiseStack>:
 8006450:	f04f 7380 	mov.w	r3, #16777216	@ 0x1000000
 8006454:	f021 0101 	bic.w	r1, r1, #1
 8006458:	f840 2c20 	str.w	r2, [r0, #-32]
 800645c:	3844      	subs	r0, #68	@ 0x44
 800645e:	6403      	str	r3, [r0, #64]	@ 0x40
 8006460:	4b03      	ldr	r3, [pc, #12]	@ (8006470 <pxPortInitialiseStack+0x20>)
 8006462:	63c1      	str	r1, [r0, #60]	@ 0x3c
 8006464:	6383      	str	r3, [r0, #56]	@ 0x38
 8006466:	f06f 0302 	mvn.w	r3, #2
 800646a:	6203      	str	r3, [r0, #32]
 800646c:	4770      	bx	lr
 800646e:	bf00      	nop
 8006470:	08006409 	.word	0x08006409
	...

08006480 <SVC_Handler>:
 8006480:	4b07      	ldr	r3, [pc, #28]	@ (80064a0 <pxCurrentTCBConst2>)
 8006482:	6819      	ldr	r1, [r3, #0]
 8006484:	6808      	ldr	r0, [r1, #0]
 8006486:	e8b0 4ff0 	ldmia.w	r0!, {r4, r5, r6, r7, r8, r9, sl, fp, lr}
 800648a:	f380 8809 	msr	PSP, r0
 800648e:	f3bf 8f6f 	isb	sy
 8006492:	f04f 0000 	mov.w	r0, #0
 8006496:	f380 8811 	msr	BASEPRI, r0
 800649a:	4770      	bx	lr
 800649c:	f3af 8000 	nop.w

080064a0 <pxCurrentTCBConst2>:
 80064a0:	200016b8 	.word	0x200016b8

080064a4 <vPortEnterCritical>:
 80064a4:	f04f 0350 	mov.w	r3, #80	@ 0x50
 80064a8:	b672      	cpsid	i
 80064aa:	f383 8811 	msr	BASEPRI, r3
 80064ae:	f3bf 8f6f 	isb	sy
 80064b2:	f3bf 8f4f 	dsb	sy
 80064b6:	b662      	cpsie	i
 80064b8:	4a0b      	ldr	r2, [pc, #44]	@ (80064e8 <vPortEnterCritical+0x44>)
 80064ba:	6813      	ldr	r3, [r2, #0]
 80064bc:	3301      	adds	r3, #1
 80064be:	2b01      	cmp	r3, #1
 80064c0:	6013      	str	r3, [r2, #0]
 80064c2:	d110      	bne.n	80064e6 <vPortEnterCritical+0x42>
 80064c4:	f04f 23e0 	mov.w	r3, #3758153728	@ 0xe000e000
 80064c8:	f8d3 3d04 	ldr.w	r3, [r3, #3332]	@ 0xd04
 80064cc:	b2db      	uxtb	r3, r3
 80064ce:	b153      	cbz	r3, 80064e6 <vPortEnterCritical+0x42>
 80064d0:	f04f 0350 	mov.w	r3, #80	@ 0x50
 80064d4:	b672      	cpsid	i
 80064d6:	f383 8811 	msr	BASEPRI, r3
 80064da:	f3bf 8f6f 	isb	sy
 80064de:	f3bf 8f4f 	dsb	sy
 80064e2:	b662      	cpsie	i
 80064e4:	e7fe      	b.n	80064e4 <vPortEnterCritical+0x40>
 80064e6:	4770      	bx	lr
 80064e8:	2000000c 	.word	0x2000000c

080064ec <vPortExitCritical>:
 80064ec:	4a09      	ldr	r2, [pc, #36]	@ (8006514 <vPortExitCritical+0x28>)
 80064ee:	6813      	ldr	r3, [r2, #0]
 80064f0:	b953      	cbnz	r3, 8006508 <vPortExitCritical+0x1c>
 80064f2:	f04f 0350 	mov.w	r3, #80	@ 0x50
 80064f6:	b672      	cpsid	i
 80064f8:	f383 8811 	msr	BASEPRI, r3
 80064fc:	f3bf 8f6f 	isb	sy
 8006500:	f3bf 8f4f 	dsb	sy
 8006504:	b662      	cpsie	i
 8006506:	e7fe      	b.n	8006506 <vPortExitCritical+0x1a>
 8006508:	3b01      	subs	r3, #1
 800650a:	6013      	str	r3, [r2, #0]
 800650c:	b90b      	cbnz	r3, 8006512 <vPortExitCritical+0x26>
 800650e:	f383 8811 	msr	BASEPRI, r3
 8006512:	4770      	bx	lr
 8006514:	2000000c 	.word	0x2000000c
	...

08006520 <PendSV_Handler>:
 8006520:	f3ef 8009 	mrs	r0, PSP
 8006524:	f3bf 8f6f 	isb	sy
 8006528:	4b15      	ldr	r3, [pc, #84]	@ (8006580 <pxCurrentTCBConst>)
 800652a:	681a      	ldr	r2, [r3, #0]
 800652c:	f01e 0f10 	tst.w	lr, #16
 8006530:	bf08      	it	eq
 8006532:	ed20 8a10 	vstmdbeq	r0!, {s16-s31}
 8006536:	e920 4ff0 	stmdb	r0!, {r4, r5, r6, r7, r8, r9, sl, fp, lr}
 800653a:	6010      	str	r0, [r2, #0]
 800653c:	e92d 0009 	stmdb	sp!, {r0, r3}
 8006540:	f04f 0050 	mov.w	r0, #80	@ 0x50
 8006544:	b672      	cpsid	i
 8006546:	f380 8811 	msr	BASEPRI, r0
 800654a:	f3bf 8f4f 	dsb	sy
 800654e:	f3bf 8f6f 	isb	sy
 8006552:	b662      	cpsie	i
 8006554:	f7ff fbe4 	bl	8005d20 <vTaskSwitchContext>
 8006558:	f04f 0000 	mov.w	r0, #0
 800655c:	f380 8811 	msr	BASEPRI, r0
 8006560:	bc09      	pop	{r0, r3}
 8006562:	6819      	ldr	r1, [r3, #0]
 8006564:	6808      	ldr	r0, [r1, #0]
 8006566:	e8b0 4ff0 	ldmia.w	r0!, {r4, r5, r6, r7, r8, r9, sl, fp, lr}
 800656a:	f01e 0f10 	tst.w	lr, #16
 800656e:	bf08      	it	eq
 8006570:	ecb0 8a10 	vldmiaeq	r0!, {s16-s31}
 8006574:	f380 8809 	msr	PSP, r0
 8006578:	f3bf 8f6f 	isb	sy
 800657c:	4770      	bx	lr
 800657e:	bf00      	nop

08006580 <pxCurrentTCBConst>:
 8006580:	200016b8 	.word	0x200016b8

08006584 <xPortSysTickHandler>:
 8006584:	b508      	push	{r3, lr}
 8006586:	f04f 0350 	mov.w	r3, #80	@ 0x50
 800658a:	b672      	cpsid	i
 800658c:	f383 8811 	msr	BASEPRI, r3
 8006590:	f3bf 8f6f 	isb	sy
 8006594:	f3bf 8f4f 	dsb	sy
 8006598:	b662      	cpsie	i
 800659a:	f7ff fa8d 	bl	8005ab8 <xTaskIncrementTick>
 800659e:	b128      	cbz	r0, 80065ac <xPortSysTickHandler+0x28>
 80065a0:	f04f 23e0 	mov.w	r3, #3758153728	@ 0xe000e000
 80065a4:	f04f 5280 	mov.w	r2, #268435456	@ 0x10000000
 80065a8:	f8c3 2d04 	str.w	r2, [r3, #3332]	@ 0xd04
 80065ac:	2300      	movs	r3, #0
 80065ae:	f383 8811 	msr	BASEPRI, r3
 80065b2:	bd08      	pop	{r3, pc}

080065b4 <vPortSetupTimerInterrupt>:
 80065b4:	f04f 22e0 	mov.w	r2, #3758153728	@ 0xe000e000
 80065b8:	2300      	movs	r3, #0
 80065ba:	f44f 717a 	mov.w	r1, #1000	@ 0x3e8
 80065be:	6113      	str	r3, [r2, #16]
 80065c0:	6193      	str	r3, [r2, #24]
 80065c2:	4b04      	ldr	r3, [pc, #16]	@ (80065d4 <vPortSetupTimerInterrupt+0x20>)
 80065c4:	681b      	ldr	r3, [r3, #0]
 80065c6:	fbb3 f3f1 	udiv	r3, r3, r1
 80065ca:	3b01      	subs	r3, #1
 80065cc:	6153      	str	r3, [r2, #20]
 80065ce:	2307      	movs	r3, #7
 80065d0:	6113      	str	r3, [r2, #16]
 80065d2:	4770      	bx	lr
 80065d4:	20000000 	.word	0x20000000

080065d8 <xPortStartScheduler>:
 80065d8:	4b2c      	ldr	r3, [pc, #176]	@ (800668c <xPortStartScheduler+0xb4>)
 80065da:	b537      	push	{r0, r1, r2, r4, r5, lr}
 80065dc:	781a      	ldrb	r2, [r3, #0]
 80065de:	b2d2      	uxtb	r2, r2
 80065e0:	9201      	str	r2, [sp, #4]
 80065e2:	22ff      	movs	r2, #255	@ 0xff
 80065e4:	701a      	strb	r2, [r3, #0]
 80065e6:	781b      	ldrb	r3, [r3, #0]
 80065e8:	4a29      	ldr	r2, [pc, #164]	@ (8006690 <xPortStartScheduler+0xb8>)
 80065ea:	b2db      	uxtb	r3, r3
 80065ec:	f88d 3003 	strb.w	r3, [sp, #3]
 80065f0:	f89d 3003 	ldrb.w	r3, [sp, #3]
 80065f4:	f003 0350 	and.w	r3, r3, #80	@ 0x50
 80065f8:	7013      	strb	r3, [r2, #0]
 80065fa:	2307      	movs	r3, #7
 80065fc:	4a25      	ldr	r2, [pc, #148]	@ (8006694 <xPortStartScheduler+0xbc>)
 80065fe:	6013      	str	r3, [r2, #0]
 8006600:	f89d 1003 	ldrb.w	r1, [sp, #3]
 8006604:	6813      	ldr	r3, [r2, #0]
 8006606:	0609      	lsls	r1, r1, #24
 8006608:	d40c      	bmi.n	8006624 <xPortStartScheduler+0x4c>
 800660a:	2b03      	cmp	r3, #3
 800660c:	d013      	beq.n	8006636 <xPortStartScheduler+0x5e>
 800660e:	f04f 0350 	mov.w	r3, #80	@ 0x50
 8006612:	b672      	cpsid	i
 8006614:	f383 8811 	msr	BASEPRI, r3
 8006618:	f3bf 8f6f 	isb	sy
 800661c:	f3bf 8f4f 	dsb	sy
 8006620:	b662      	cpsie	i
 8006622:	e7fe      	b.n	8006622 <xPortStartScheduler+0x4a>
 8006624:	3b01      	subs	r3, #1
 8006626:	6013      	str	r3, [r2, #0]
 8006628:	f89d 3003 	ldrb.w	r3, [sp, #3]
 800662c:	005b      	lsls	r3, r3, #1
 800662e:	b2db      	uxtb	r3, r3
 8006630:	f88d 3003 	strb.w	r3, [sp, #3]
 8006634:	e7e4      	b.n	8006600 <xPortStartScheduler+0x28>
 8006636:	f44f 7340 	mov.w	r3, #768	@ 0x300
 800663a:	f04f 24e0 	mov.w	r4, #3758153728	@ 0xe000e000
 800663e:	2500      	movs	r5, #0
 8006640:	6013      	str	r3, [r2, #0]
 8006642:	9b01      	ldr	r3, [sp, #4]
 8006644:	4a11      	ldr	r2, [pc, #68]	@ (800668c <xPortStartScheduler+0xb4>)
 8006646:	b2db      	uxtb	r3, r3
 8006648:	7013      	strb	r3, [r2, #0]
 800664a:	f8d4 3d20 	ldr.w	r3, [r4, #3360]	@ 0xd20
 800664e:	f443 0370 	orr.w	r3, r3, #15728640	@ 0xf00000
 8006652:	f8c4 3d20 	str.w	r3, [r4, #3360]	@ 0xd20
 8006656:	f8d4 3d20 	ldr.w	r3, [r4, #3360]	@ 0xd20
 800665a:	f043 4370 	orr.w	r3, r3, #4026531840	@ 0xf0000000
 800665e:	f8c4 3d20 	str.w	r3, [r4, #3360]	@ 0xd20
 8006662:	f7ff ffa7 	bl	80065b4 <vPortSetupTimerInterrupt>
 8006666:	4b0c      	ldr	r3, [pc, #48]	@ (8006698 <xPortStartScheduler+0xc0>)
 8006668:	601d      	str	r5, [r3, #0]
 800666a:	f7ff fec3 	bl	80063f4 <vPortEnableVFP>
 800666e:	f8d4 3f34 	ldr.w	r3, [r4, #3892]	@ 0xf34
 8006672:	f043 4340 	orr.w	r3, r3, #3221225472	@ 0xc0000000
 8006676:	f8c4 3f34 	str.w	r3, [r4, #3892]	@ 0xf34
 800667a:	f7ff fea7 	bl	80063cc <prvPortStartFirstTask>
 800667e:	f7ff fb4f 	bl	8005d20 <vTaskSwitchContext>
 8006682:	4628      	mov	r0, r5
 8006684:	f7ff fec0 	bl	8006408 <prvTaskExitError>
 8006688:	b003      	add	sp, #12
 800668a:	bd30      	pop	{r4, r5, pc}
 800668c:	e000e400 	.word	0xe000e400
 8006690:	200017ec 	.word	0x200017ec
 8006694:	200017e8 	.word	0x200017e8
 8006698:	2000000c 	.word	0x2000000c

0800669c <vPortValidateInterruptPriority>:
 800669c:	f3ef 8305 	mrs	r3, IPSR
 80066a0:	2b0f      	cmp	r3, #15
 80066a2:	d910      	bls.n	80066c6 <vPortValidateInterruptPriority+0x2a>
 80066a4:	4a13      	ldr	r2, [pc, #76]	@ (80066f4 <vPortValidateInterruptPriority+0x58>)
 80066a6:	5c9b      	ldrb	r3, [r3, r2]
 80066a8:	4a13      	ldr	r2, [pc, #76]	@ (80066f8 <vPortValidateInterruptPriority+0x5c>)
 80066aa:	7812      	ldrb	r2, [r2, #0]
 80066ac:	429a      	cmp	r2, r3
 80066ae:	d90a      	bls.n	80066c6 <vPortValidateInterruptPriority+0x2a>
 80066b0:	f04f 0350 	mov.w	r3, #80	@ 0x50
 80066b4:	b672      	cpsid	i
 80066b6:	f383 8811 	msr	BASEPRI, r3
 80066ba:	f3bf 8f6f 	isb	sy
 80066be:	f3bf 8f4f 	dsb	sy
 80066c2:	b662      	cpsie	i
 80066c4:	e7fe      	b.n	80066c4 <vPortValidateInterruptPriority+0x28>
 80066c6:	f04f 23e0 	mov.w	r3, #3758153728	@ 0xe000e000
 80066ca:	4a0c      	ldr	r2, [pc, #48]	@ (80066fc <vPortValidateInterruptPriority+0x60>)
 80066cc:	f8d3 3d0c 	ldr.w	r3, [r3, #3340]	@ 0xd0c
 80066d0:	6812      	ldr	r2, [r2, #0]
 80066d2:	f403 63e0 	and.w	r3, r3, #1792	@ 0x700
 80066d6:	4293      	cmp	r3, r2
 80066d8:	d90a      	bls.n	80066f0 <vPortValidateInterruptPriority+0x54>
 80066da:	f04f 0350 	mov.w	r3, #80	@ 0x50
 80066de:	b672      	cpsid	i
 80066e0:	f383 8811 	msr	BASEPRI, r3
 80066e4:	f3bf 8f6f 	isb	sy
 80066e8:	f3bf 8f4f 	dsb	sy
 80066ec:	b662      	cpsie	i
 80066ee:	e7fe      	b.n	80066ee <vPortValidateInterruptPriority+0x52>
 80066f0:	4770      	bx	lr
 80066f2:	bf00      	nop
 80066f4:	e000e3f0 	.word	0xe000e3f0
 80066f8:	200017ec 	.word	0x200017ec
 80066fc:	200017e8 	.word	0x200017e8

08006700 <prvInsertBlockIntoFreeList>:
 8006700:	4b10      	ldr	r3, [pc, #64]	@ (8006744 <prvInsertBlockIntoFreeList+0x44>)
 8006702:	b510      	push	{r4, lr}
 8006704:	461a      	mov	r2, r3
 8006706:	681b      	ldr	r3, [r3, #0]
 8006708:	4283      	cmp	r3, r0
 800670a:	d3fb      	bcc.n	8006704 <prvInsertBlockIntoFreeList+0x4>
 800670c:	6854      	ldr	r4, [r2, #4]
 800670e:	1911      	adds	r1, r2, r4
 8006710:	4288      	cmp	r0, r1
 8006712:	bf01      	itttt	eq
 8006714:	6841      	ldreq	r1, [r0, #4]
 8006716:	4610      	moveq	r0, r2
 8006718:	1909      	addeq	r1, r1, r4
 800671a:	6051      	streq	r1, [r2, #4]
 800671c:	6844      	ldr	r4, [r0, #4]
 800671e:	1901      	adds	r1, r0, r4
 8006720:	428b      	cmp	r3, r1
 8006722:	d10c      	bne.n	800673e <prvInsertBlockIntoFreeList+0x3e>
 8006724:	4908      	ldr	r1, [pc, #32]	@ (8006748 <prvInsertBlockIntoFreeList+0x48>)
 8006726:	6809      	ldr	r1, [r1, #0]
 8006728:	428b      	cmp	r3, r1
 800672a:	d003      	beq.n	8006734 <prvInsertBlockIntoFreeList+0x34>
 800672c:	6859      	ldr	r1, [r3, #4]
 800672e:	4421      	add	r1, r4
 8006730:	6041      	str	r1, [r0, #4]
 8006732:	6819      	ldr	r1, [r3, #0]
 8006734:	4290      	cmp	r0, r2
 8006736:	6001      	str	r1, [r0, #0]
 8006738:	bf18      	it	ne
 800673a:	6010      	strne	r0, [r2, #0]
 800673c:	bd10      	pop	{r4, pc}
 800673e:	4619      	mov	r1, r3
 8006740:	e7f8      	b.n	8006734 <prvInsertBlockIntoFreeList+0x34>
 8006742:	bf00      	nop
 8006744:	20001800 	.word	0x20001800
 8006748:	200017fc 	.word	0x200017fc

0800674c <pvPortMalloc>:
 800674c:	e92d 41f0 	stmdb	sp!, {r4, r5, r6, r7, r8, lr}
 8006750:	4604      	mov	r4, r0
 8006752:	f7ff f9a3 	bl	8005a9c <vTaskSuspendAll>
 8006756:	4941      	ldr	r1, [pc, #260]	@ (800685c <pvPortMalloc+0x110>)
 8006758:	4d41      	ldr	r5, [pc, #260]	@ (8006860 <pvPortMalloc+0x114>)
 800675a:	680b      	ldr	r3, [r1, #0]
 800675c:	bb0b      	cbnz	r3, 80067a2 <pvPortMalloc+0x56>
 800675e:	4a41      	ldr	r2, [pc, #260]	@ (8006864 <pvPortMalloc+0x118>)
 8006760:	0756      	lsls	r6, r2, #29
 8006762:	4e41      	ldr	r6, [pc, #260]	@ (8006868 <pvPortMalloc+0x11c>)
 8006764:	bf1b      	ittet	ne
 8006766:	1dd0      	addne	r0, r2, #7
 8006768:	f502 5270 	addne.w	r2, r2, #15360	@ 0x3c00
 800676c:	f44f 5370 	moveq.w	r3, #15360	@ 0x3c00
 8006770:	f020 0007 	bicne.w	r0, r0, #7
 8006774:	bf1c      	itt	ne
 8006776:	1a13      	subne	r3, r2, r0
 8006778:	4602      	movne	r2, r0
 800677a:	2000      	movs	r0, #0
 800677c:	4413      	add	r3, r2
 800677e:	6032      	str	r2, [r6, #0]
 8006780:	6070      	str	r0, [r6, #4]
 8006782:	3b08      	subs	r3, #8
 8006784:	f023 0307 	bic.w	r3, r3, #7
 8006788:	e9c3 0000 	strd	r0, r0, [r3]
 800678c:	1a98      	subs	r0, r3, r2
 800678e:	600b      	str	r3, [r1, #0]
 8006790:	e9c2 3000 	strd	r3, r0, [r2]
 8006794:	4b35      	ldr	r3, [pc, #212]	@ (800686c <pvPortMalloc+0x120>)
 8006796:	6018      	str	r0, [r3, #0]
 8006798:	4b35      	ldr	r3, [pc, #212]	@ (8006870 <pvPortMalloc+0x124>)
 800679a:	6018      	str	r0, [r3, #0]
 800679c:	f04f 4300 	mov.w	r3, #2147483648	@ 0x80000000
 80067a0:	602b      	str	r3, [r5, #0]
 80067a2:	682e      	ldr	r6, [r5, #0]
 80067a4:	4226      	tst	r6, r4
 80067a6:	d154      	bne.n	8006852 <pvPortMalloc+0x106>
 80067a8:	2c00      	cmp	r4, #0
 80067aa:	d043      	beq.n	8006834 <pvPortMalloc+0xe8>
 80067ac:	f104 0308 	add.w	r3, r4, #8
 80067b0:	0760      	lsls	r0, r4, #29
 80067b2:	bf1c      	itt	ne
 80067b4:	f023 0307 	bicne.w	r3, r3, #7
 80067b8:	3308      	addne	r3, #8
 80067ba:	2b00      	cmp	r3, #0
 80067bc:	d049      	beq.n	8006852 <pvPortMalloc+0x106>
 80067be:	4f2c      	ldr	r7, [pc, #176]	@ (8006870 <pvPortMalloc+0x124>)
 80067c0:	683c      	ldr	r4, [r7, #0]
 80067c2:	429c      	cmp	r4, r3
 80067c4:	d345      	bcc.n	8006852 <pvPortMalloc+0x106>
 80067c6:	4a28      	ldr	r2, [pc, #160]	@ (8006868 <pvPortMalloc+0x11c>)
 80067c8:	6815      	ldr	r5, [r2, #0]
 80067ca:	6868      	ldr	r0, [r5, #4]
 80067cc:	4298      	cmp	r0, r3
 80067ce:	d204      	bcs.n	80067da <pvPortMalloc+0x8e>
 80067d0:	f8d5 c000 	ldr.w	ip, [r5]
 80067d4:	f1bc 0f00 	cmp.w	ip, #0
 80067d8:	d117      	bne.n	800680a <pvPortMalloc+0xbe>
 80067da:	6809      	ldr	r1, [r1, #0]
 80067dc:	42a9      	cmp	r1, r5
 80067de:	d038      	beq.n	8006852 <pvPortMalloc+0x106>
 80067e0:	6829      	ldr	r1, [r5, #0]
 80067e2:	f8d2 8000 	ldr.w	r8, [r2]
 80067e6:	6011      	str	r1, [r2, #0]
 80067e8:	1ac2      	subs	r2, r0, r3
 80067ea:	2a10      	cmp	r2, #16
 80067ec:	d914      	bls.n	8006818 <pvPortMalloc+0xcc>
 80067ee:	18e8      	adds	r0, r5, r3
 80067f0:	0741      	lsls	r1, r0, #29
 80067f2:	d00d      	beq.n	8006810 <pvPortMalloc+0xc4>
 80067f4:	f04f 0350 	mov.w	r3, #80	@ 0x50
 80067f8:	b672      	cpsid	i
 80067fa:	f383 8811 	msr	BASEPRI, r3
 80067fe:	f3bf 8f6f 	isb	sy
 8006802:	f3bf 8f4f 	dsb	sy
 8006806:	b662      	cpsie	i
 8006808:	e7fe      	b.n	8006808 <pvPortMalloc+0xbc>
 800680a:	462a      	mov	r2, r5
 800680c:	4665      	mov	r5, ip
 800680e:	e7dc      	b.n	80067ca <pvPortMalloc+0x7e>
 8006810:	6042      	str	r2, [r0, #4]
 8006812:	606b      	str	r3, [r5, #4]
 8006814:	f7ff ff74 	bl	8006700 <prvInsertBlockIntoFreeList>
 8006818:	686a      	ldr	r2, [r5, #4]
 800681a:	2300      	movs	r3, #0
 800681c:	4913      	ldr	r1, [pc, #76]	@ (800686c <pvPortMalloc+0x120>)
 800681e:	1aa4      	subs	r4, r4, r2
 8006820:	4316      	orrs	r6, r2
 8006822:	6808      	ldr	r0, [r1, #0]
 8006824:	603c      	str	r4, [r7, #0]
 8006826:	4284      	cmp	r4, r0
 8006828:	606e      	str	r6, [r5, #4]
 800682a:	602b      	str	r3, [r5, #0]
 800682c:	bf38      	it	cc
 800682e:	600c      	strcc	r4, [r1, #0]
 8006830:	f108 0408 	add.w	r4, r8, #8
 8006834:	f7ff f9d8 	bl	8005be8 <xTaskResumeAll>
 8006838:	0763      	lsls	r3, r4, #29
 800683a:	d00c      	beq.n	8006856 <pvPortMalloc+0x10a>
 800683c:	f04f 0350 	mov.w	r3, #80	@ 0x50
 8006840:	b672      	cpsid	i
 8006842:	f383 8811 	msr	BASEPRI, r3
 8006846:	f3bf 8f6f 	isb	sy
 800684a:	f3bf 8f4f 	dsb	sy
 800684e:	b662      	cpsie	i
 8006850:	e7fe      	b.n	8006850 <pvPortMalloc+0x104>
 8006852:	2400      	movs	r4, #0
 8006854:	e7ee      	b.n	8006834 <pvPortMalloc+0xe8>
 8006856:	4620      	mov	r0, r4
 8006858:	e8bd 81f0 	ldmia.w	sp!, {r4, r5, r6, r7, r8, pc}
 800685c:	200017fc 	.word	0x200017fc
 8006860:	200017f0 	.word	0x200017f0
 8006864:	20001808 	.word	0x20001808
 8006868:	20001800 	.word	0x20001800
 800686c:	200017f4 	.word	0x200017f4
 8006870:	200017f8 	.word	0x200017f8

08006874 <vPortFree>:
 8006874:	b510      	push	{r4, lr}
 8006876:	4604      	mov	r4, r0
 8006878:	2800      	cmp	r0, #0
 800687a:	d032      	beq.n	80068e2 <vPortFree+0x6e>
 800687c:	4a19      	ldr	r2, [pc, #100]	@ (80068e4 <vPortFree+0x70>)
 800687e:	f850 3c04 	ldr.w	r3, [r0, #-4]
 8006882:	6812      	ldr	r2, [r2, #0]
 8006884:	4213      	tst	r3, r2
 8006886:	d10a      	bne.n	800689e <vPortFree+0x2a>
 8006888:	f04f 0350 	mov.w	r3, #80	@ 0x50
 800688c:	b672      	cpsid	i
 800688e:	f383 8811 	msr	BASEPRI, r3
 8006892:	f3bf 8f6f 	isb	sy
 8006896:	f3bf 8f4f 	dsb	sy
 800689a:	b662      	cpsie	i
 800689c:	e7fe      	b.n	800689c <vPortFree+0x28>
 800689e:	f850 1c08 	ldr.w	r1, [r0, #-8]
 80068a2:	b151      	cbz	r1, 80068ba <vPortFree+0x46>
 80068a4:	f04f 0350 	mov.w	r3, #80	@ 0x50
 80068a8:	b672      	cpsid	i
 80068aa:	f383 8811 	msr	BASEPRI, r3
 80068ae:	f3bf 8f6f 	isb	sy
 80068b2:	f3bf 8f4f 	dsb	sy
 80068b6:	b662      	cpsie	i
 80068b8:	e7fe      	b.n	80068b8 <vPortFree+0x44>
 80068ba:	ea23 0302 	bic.w	r3, r3, r2
 80068be:	f840 3c04 	str.w	r3, [r0, #-4]
 80068c2:	f7ff f8eb 	bl	8005a9c <vTaskSuspendAll>
 80068c6:	4a08      	ldr	r2, [pc, #32]	@ (80068e8 <vPortFree+0x74>)
 80068c8:	f854 3c04 	ldr.w	r3, [r4, #-4]
 80068cc:	f1a4 0008 	sub.w	r0, r4, #8
 80068d0:	6811      	ldr	r1, [r2, #0]
 80068d2:	440b      	add	r3, r1
 80068d4:	6013      	str	r3, [r2, #0]
 80068d6:	f7ff ff13 	bl	8006700 <prvInsertBlockIntoFreeList>
 80068da:	e8bd 4010 	ldmia.w	sp!, {r4, lr}
 80068de:	f7ff b983 	b.w	8005be8 <xTaskResumeAll>
 80068e2:	bd10      	pop	{r4, pc}
 80068e4:	200017f0 	.word	0x200017f0
 80068e8:	200017f8 	.word	0x200017f8

080068ec <atoi>:
 80068ec:	220a      	movs	r2, #10
 80068ee:	2100      	movs	r1, #0
 80068f0:	f000 b87a 	b.w	80069e8 <strtol>

080068f4 <_strtol_l.constprop.0>:
 80068f4:	2b24      	cmp	r3, #36	@ 0x24
 80068f6:	e92d 47f0 	stmdb	sp!, {r4, r5, r6, r7, r8, r9, sl, lr}
 80068fa:	4686      	mov	lr, r0
 80068fc:	4690      	mov	r8, r2
 80068fe:	d801      	bhi.n	8006904 <_strtol_l.constprop.0+0x10>
 8006900:	2b01      	cmp	r3, #1
 8006902:	d106      	bne.n	8006912 <_strtol_l.constprop.0+0x1e>
 8006904:	f000 f894 	bl	8006a30 <__errno>
 8006908:	2316      	movs	r3, #22
 800690a:	6003      	str	r3, [r0, #0]
 800690c:	2000      	movs	r0, #0
 800690e:	e8bd 87f0 	ldmia.w	sp!, {r4, r5, r6, r7, r8, r9, sl, pc}
 8006912:	4834      	ldr	r0, [pc, #208]	@ (80069e4 <_strtol_l.constprop.0+0xf0>)
 8006914:	460d      	mov	r5, r1
 8006916:	462a      	mov	r2, r5
 8006918:	f815 4b01 	ldrb.w	r4, [r5], #1
 800691c:	5d06      	ldrb	r6, [r0, r4]
 800691e:	f016 0608 	ands.w	r6, r6, #8
 8006922:	d1f8      	bne.n	8006916 <_strtol_l.constprop.0+0x22>
 8006924:	2c2d      	cmp	r4, #45	@ 0x2d
 8006926:	d12d      	bne.n	8006984 <_strtol_l.constprop.0+0x90>
 8006928:	782c      	ldrb	r4, [r5, #0]
 800692a:	2601      	movs	r6, #1
 800692c:	1c95      	adds	r5, r2, #2
 800692e:	f033 0210 	bics.w	r2, r3, #16
 8006932:	d109      	bne.n	8006948 <_strtol_l.constprop.0+0x54>
 8006934:	2c30      	cmp	r4, #48	@ 0x30
 8006936:	d12a      	bne.n	800698e <_strtol_l.constprop.0+0x9a>
 8006938:	782a      	ldrb	r2, [r5, #0]
 800693a:	f002 02df 	and.w	r2, r2, #223	@ 0xdf
 800693e:	2a58      	cmp	r2, #88	@ 0x58
 8006940:	d125      	bne.n	800698e <_strtol_l.constprop.0+0x9a>
 8006942:	786c      	ldrb	r4, [r5, #1]
 8006944:	2310      	movs	r3, #16
 8006946:	3502      	adds	r5, #2
 8006948:	f106 4c00 	add.w	ip, r6, #2147483648	@ 0x80000000
 800694c:	f10c 3cff 	add.w	ip, ip, #4294967295
 8006950:	2200      	movs	r2, #0
 8006952:	fbbc f9f3 	udiv	r9, ip, r3
 8006956:	4610      	mov	r0, r2
 8006958:	fb03 ca19 	mls	sl, r3, r9, ip
 800695c:	f1a4 0730 	sub.w	r7, r4, #48	@ 0x30
 8006960:	2f09      	cmp	r7, #9
 8006962:	d81b      	bhi.n	800699c <_strtol_l.constprop.0+0xa8>
 8006964:	463c      	mov	r4, r7
 8006966:	42a3      	cmp	r3, r4
 8006968:	dd27      	ble.n	80069ba <_strtol_l.constprop.0+0xc6>
 800696a:	1c57      	adds	r7, r2, #1
 800696c:	d007      	beq.n	800697e <_strtol_l.constprop.0+0x8a>
 800696e:	4581      	cmp	r9, r0
 8006970:	d320      	bcc.n	80069b4 <_strtol_l.constprop.0+0xc0>
 8006972:	d101      	bne.n	8006978 <_strtol_l.constprop.0+0x84>
 8006974:	45a2      	cmp	sl, r4
 8006976:	db1d      	blt.n	80069b4 <_strtol_l.constprop.0+0xc0>
 8006978:	fb00 4003 	mla	r0, r0, r3, r4
 800697c:	2201      	movs	r2, #1
 800697e:	f815 4b01 	ldrb.w	r4, [r5], #1
 8006982:	e7eb      	b.n	800695c <_strtol_l.constprop.0+0x68>
 8006984:	2c2b      	cmp	r4, #43	@ 0x2b
 8006986:	bf04      	itt	eq
 8006988:	782c      	ldrbeq	r4, [r5, #0]
 800698a:	1c95      	addeq	r5, r2, #2
 800698c:	e7cf      	b.n	800692e <_strtol_l.constprop.0+0x3a>
 800698e:	2b00      	cmp	r3, #0
 8006990:	d1da      	bne.n	8006948 <_strtol_l.constprop.0+0x54>
 8006992:	2c30      	cmp	r4, #48	@ 0x30
 8006994:	bf0c      	ite	eq
 8006996:	2308      	moveq	r3, #8
 8006998:	230a      	movne	r3, #10
 800699a:	e7d5      	b.n	8006948 <_strtol_l.constprop.0+0x54>
 800699c:	f1a4 0741 	sub.w	r7, r4, #65	@ 0x41
 80069a0:	2f19      	cmp	r7, #25
 80069a2:	d801      	bhi.n	80069a8 <_strtol_l.constprop.0+0xb4>
 80069a4:	3c37      	subs	r4, #55	@ 0x37
 80069a6:	e7de      	b.n	8006966 <_strtol_l.constprop.0+0x72>
 80069a8:	f1a4 0761 	sub.w	r7, r4, #97	@ 0x61
 80069ac:	2f19      	cmp	r7, #25
 80069ae:	d804      	bhi.n	80069ba <_strtol_l.constprop.0+0xc6>
 80069b0:	3c57      	subs	r4, #87	@ 0x57
 80069b2:	e7d8      	b.n	8006966 <_strtol_l.constprop.0+0x72>
 80069b4:	f04f 32ff 	mov.w	r2, #4294967295
 80069b8:	e7e1      	b.n	800697e <_strtol_l.constprop.0+0x8a>
 80069ba:	1c53      	adds	r3, r2, #1
 80069bc:	d108      	bne.n	80069d0 <_strtol_l.constprop.0+0xdc>
 80069be:	2322      	movs	r3, #34	@ 0x22
 80069c0:	f8ce 3000 	str.w	r3, [lr]
 80069c4:	4660      	mov	r0, ip
 80069c6:	f1b8 0f00 	cmp.w	r8, #0
 80069ca:	d0a0      	beq.n	800690e <_strtol_l.constprop.0+0x1a>
 80069cc:	1e69      	subs	r1, r5, #1
 80069ce:	e006      	b.n	80069de <_strtol_l.constprop.0+0xea>
 80069d0:	b106      	cbz	r6, 80069d4 <_strtol_l.constprop.0+0xe0>
 80069d2:	4240      	negs	r0, r0
 80069d4:	f1b8 0f00 	cmp.w	r8, #0
 80069d8:	d099      	beq.n	800690e <_strtol_l.constprop.0+0x1a>
 80069da:	2a00      	cmp	r2, #0
 80069dc:	d1f6      	bne.n	80069cc <_strtol_l.constprop.0+0xd8>
 80069de:	f8c8 1000 	str.w	r1, [r8]
 80069e2:	e794      	b.n	800690e <_strtol_l.constprop.0+0x1a>
 80069e4:	08006ce3 	.word	0x08006ce3

080069e8 <strtol>:
 80069e8:	4613      	mov	r3, r2
 80069ea:	460a      	mov	r2, r1
 80069ec:	4601      	mov	r1, r0
 80069ee:	4802      	ldr	r0, [pc, #8]	@ (80069f8 <strtol+0x10>)
 80069f0:	6800      	ldr	r0, [r0, #0]
 80069f2:	f7ff bf7f 	b.w	80068f4 <_strtol_l.constprop.0>
 80069f6:	bf00      	nop
 80069f8:	20000010 	.word	0x20000010

080069fc <memset>:
 80069fc:	4402      	add	r2, r0
 80069fe:	4603      	mov	r3, r0
 8006a00:	4293      	cmp	r3, r2
 8006a02:	d100      	bne.n	8006a06 <memset+0xa>
 8006a04:	4770      	bx	lr
 8006a06:	f803 1b01 	strb.w	r1, [r3], #1
 8006a0a:	e7f9      	b.n	8006a00 <memset+0x4>

08006a0c <strncmp>:
 8006a0c:	b510      	push	{r4, lr}
 8006a0e:	b16a      	cbz	r2, 8006a2c <strncmp+0x20>
 8006a10:	3901      	subs	r1, #1
 8006a12:	1884      	adds	r4, r0, r2
 8006a14:	f810 2b01 	ldrb.w	r2, [r0], #1
 8006a18:	f811 3f01 	ldrb.w	r3, [r1, #1]!
 8006a1c:	429a      	cmp	r2, r3
 8006a1e:	d103      	bne.n	8006a28 <strncmp+0x1c>
 8006a20:	42a0      	cmp	r0, r4
 8006a22:	d001      	beq.n	8006a28 <strncmp+0x1c>
 8006a24:	2a00      	cmp	r2, #0
 8006a26:	d1f5      	bne.n	8006a14 <strncmp+0x8>
 8006a28:	1ad0      	subs	r0, r2, r3
 8006a2a:	bd10      	pop	{r4, pc}
 8006a2c:	4610      	mov	r0, r2
 8006a2e:	e7fc      	b.n	8006a2a <strncmp+0x1e>

08006a30 <__errno>:
 8006a30:	4b01      	ldr	r3, [pc, #4]	@ (8006a38 <__errno+0x8>)
 8006a32:	6818      	ldr	r0, [r3, #0]
 8006a34:	4770      	bx	lr
 8006a36:	bf00      	nop
 8006a38:	20000010 	.word	0x20000010

08006a3c <__libc_init_array>:
 8006a3c:	b570      	push	{r4, r5, r6, lr}
 8006a3e:	4d0d      	ldr	r5, [pc, #52]	@ (8006a74 <__libc_init_array+0x38>)
 8006a40:	4c0d      	ldr	r4, [pc, #52]	@ (8006a78 <__libc_init_array+0x3c>)
 8006a42:	1b64      	subs	r4, r4, r5
 8006a44:	10a4      	asrs	r4, r4, #2
 8006a46:	2600      	movs	r6, #0
 8006a48:	42a6      	cmp	r6, r4
 8006a4a:	d109      	bne.n	8006a60 <__libc_init_array+0x24>
 8006a4c:	4d0b      	ldr	r5, [pc, #44]	@ (8006a7c <__libc_init_array+0x40>)
 8006a4e:	4c0c      	ldr	r4, [pc, #48]	@ (8006a80 <__libc_init_array+0x44>)
 8006a50:	f000 f826 	bl	8006aa0 <_init>
 8006a54:	1b64      	subs	r4, r4, r5
 8006a56:	10a4      	asrs	r4, r4, #2
 8006a58:	2600      	movs	r6, #0
 8006a5a:	42a6      	cmp	r6, r4
 8006a5c:	d105      	bne.n	8006a6a <__libc_init_array+0x2e>
 8006a5e:	bd70      	pop	{r4, r5, r6, pc}
 8006a60:	f855 3b04 	ldr.w	r3, [r5], #4
 8006a64:	4798      	blx	r3
 8006a66:	3601      	adds	r6, #1
 8006a68:	e7ee      	b.n	8006a48 <__libc_init_array+0xc>
 8006a6a:	f855 3b04 	ldr.w	r3, [r5], #4
 8006a6e:	4798      	blx	r3
 8006a70:	3601      	adds	r6, #1
 8006a72:	e7f2      	b.n	8006a5a <__libc_init_array+0x1e>
 8006a74:	08006dec 	.word	0x08006dec
 8006a78:	08006dec 	.word	0x08006dec
 8006a7c:	08006dec 	.word	0x08006dec
 8006a80:	08006df0 	.word	0x08006df0

08006a84 <memcpy>:
 8006a84:	440a      	add	r2, r1
 8006a86:	4291      	cmp	r1, r2
 8006a88:	f100 33ff 	add.w	r3, r0, #4294967295
 8006a8c:	d100      	bne.n	8006a90 <memcpy+0xc>
 8006a8e:	4770      	bx	lr
 8006a90:	b510      	push	{r4, lr}
 8006a92:	f811 4b01 	ldrb.w	r4, [r1], #1
 8006a96:	f803 4f01 	strb.w	r4, [r3, #1]!
 8006a9a:	4291      	cmp	r1, r2
 8006a9c:	d1f9      	bne.n	8006a92 <memcpy+0xe>
 8006a9e:	bd10      	pop	{r4, pc}

08006aa0 <_init>:
 8006aa0:	b5f8      	push	{r3, r4, r5, r6, r7, lr}
 8006aa2:	bf00      	nop
 8006aa4:	bcf8      	pop	{r3, r4, r5, r6, r7}
 8006aa6:	bc08      	pop	{r3}
 8006aa8:	469e      	mov	lr, r3
 8006aaa:	4770      	bx	lr

08006aac <_fini>:
 8006aac:	b5f8      	push	{r3, r4, r5, r6, r7, lr}
 8006aae:	bf00      	nop
 8006ab0:	bcf8      	pop	{r3, r4, r5, r6, r7}
 8006ab2:	bc08      	pop	{r3}
 8006ab4:	469e      	mov	lr, r3
 8006ab6:	4770      	bx	lr
