
STM32-RC-Car.elf:     file format elf32-littlearm

Sections:
Idx Name          Size      VMA       LMA       File off  Algn
  0 .isr_vector   000001f8  08000000  08000000  00001000  2**0
                  CONTENTS, ALLOC, LOAD, READONLY, DATA
  1 .text         00005c78  08000200  08000200  00001200  2**4
                  CONTENTS, ALLOC, LOAD, READONLY, CODE
  2 .rodata       00000d60  08005e78  08005e78  00006e78  2**0
                  CONTENTS, ALLOC, LOAD, READONLY, DATA
  3 .ARM.extab    00000000  08006bd8  08006bd8  0000805c  2**0
                  CONTENTS, READONLY
  4 .ARM          00000008  08006bd8  08006bd8  00007bd8  2**2
                  CONTENTS, ALLOC, LOAD, READONLY, DATA
  5 .preinit_array 00000000  08006be0  08006be0  0000805c  2**0
                  CONTENTS, ALLOC, LOAD, DATA
  6 .init_array   00000004  08006be0  08006be0  00007be0  2**2
                  CONTENTS, ALLOC, LOAD, READONLY, DATA
  7 .fini_array   00000004  08006be4  08006be4  00007be4  2**2
                  CONTENTS, ALLOC, LOAD, READONLY, DATA
  8 .data         0000005c  20000000  08006be8  00008000  2**2
                  CONTENTS, ALLOC, LOAD, DATA
  9 .bss          00002b18  2000005c  08006c44  0000805c  2**2
                  ALLOC
 10 ._user_heap_stack 00000604  20002b74  08006c44  00008b74  2**0
                  ALLOC
 11 .ARM.attributes 0000002e  00000000  00000000  0000805c  2**0
                  CONTENTS, READONLY
 12 .comment      00000043  00000000  00000000  0000808a  2**0
                  CONTENTS, READONLY
 13 .debug_frame  00000790  00000000  00000000  000080d0  2**2
                  CONTENTS, READONLY, DEBUGGING, OCTETS

Disassembly of section .text:

08000200 <__do_global_dtors_aux>:
 8000200:	b510      	push	{r4, lr}
 8000202:	4c05      	ldr	r4, [pc, #20]	@ (8000218 <__do_global_dtors_aux+0x18>)
 8000204:	7823      	ldrb	r3, [r4, #0]
 8000206:	b933      	cbnz	r3, 8000216 <__do_global_dtors_aux+0x16>
 8000208:	4b04      	ldr	r3, [pc, #16]	@ (800021c <__do_global_dtors_aux+0x1c>)
 800020a:	b113      	cbz	r3, 8000212 <__do_global_dtors_aux+0x12>
 800020c:	4804      	ldr	r0, [pc, #16]	@ (8000220 <__do_global_dtors_aux+0x20>)
 800020e:	f3af 8000 	nop.w
 8000212:	2301      	movs	r3, #1
 8000214:	7023      	strb	r3, [r4, #0]
 8000216:	bd10      	pop	{r4, pc}
 8000218:	2000005c 	.word	0x2000005c
 800021c:	00000000 	.word	0x00000000
 8000220:	08005e60 	.word	0x08005e60

08000224 <frame_dummy>:
 8000224:	b508      	push	{r3, lr}
 8000226:	4b03      	ldr	r3, [pc, #12]	@ (8000234 <frame_dummy+0x10>)
 8000228:	b11b      	cbz	r3, 8000232 <frame_dummy+0xe>
 800022a:	4903      	ldr	r1, [pc, #12]	@ (8000238 <frame_dummy+0x14>)
 800022c:	4803      	ldr	r0, [pc, #12]	@ (800023c <frame_dummy+0x18>)
 800022e:	f3af 8000 	nop.w
 8000232:	bd08      	pop	{r3, pc}
 8000234:	00000000 	.word	0x00000000
 8000238:	20000060 	.word	0x20000060
 800023c:	08005e60 	.word	0x08005e60

08000240 <strcmp>:
 8000240:	f810 2b01 	ldrb.w	r2, [r0], #1
 8000244:	f811 3b01 	ldrb.w	r3, [r1], #1
 8000248:	2a01      	cmp	r2, #1
 800024a:	bf28      	it	cs
 800024c:	429a      	cmpcs	r2, r3
 800024e:	d0f7      	beq.n	8000240 <strcmp>
 8000250:	1ad0      	subs	r0, r2, r3
 8000252:	4770      	bx	lr

08000254 <strlen>:
 8000254:	4603      	mov	r3, r0
 8000256:	f813 2b01 	ldrb.w	r2, [r3], #1
 800025a:	2a00      	cmp	r2, #0
 800025c:	d1fb      	bne.n	8000256 <strlen+0x2>
 800025e:	1a18      	subs	r0, r3, r0
 8000260:	3801      	subs	r0, #1
 8000262:	4770      	bx	lr
	...

08000270 <memchr>:
 8000270:	f001 01ff 	and.w	r1, r1, #255	@ 0xff
 8000274:	2a10      	cmp	r2, #16
 8000276:	db2b      	blt.n	80002d0 <memchr+0x60>
 8000278:	f010 0f07 	tst.w	r0, #7
 800027c:	d008      	beq.n	8000290 <memchr+0x20>
 800027e:	f810 3b01 	ldrb.w	r3, [r0], #1
 8000282:	3a01      	subs	r2, #1
 8000284:	428b      	cmp	r3, r1
 8000286:	d02d      	beq.n	80002e4 <memchr+0x74>
 8000288:	f010 0f07 	tst.w	r0, #7
 800028c:	b342      	cbz	r2, 80002e0 <memchr+0x70>
 800028e:	d1f6      	bne.n	800027e <memchr+0xe>
 8000290:	b4f0      	push	{r4, r5, r6, r7}
 8000292:	ea41 2101 	orr.w	r1, r1, r1, lsl #8
 8000296:	ea41 4101 	orr.w	r1, r1, r1, lsl #16
 800029a:	f022 0407 	bic.w	r4, r2, #7
 800029e:	f07f 0700 	mvns.w	r7, #0
 80002a2:	2300      	movs	r3, #0
 80002a4:	e8f0 5602 	ldrd	r5, r6, [r0], #8
 80002a8:	3c08      	subs	r4, #8
 80002aa:	ea85 0501 	eor.w	r5, r5, r1
 80002ae:	ea86 0601 	eor.w	r6, r6, r1
 80002b2:	fa85 f547 	uadd8	r5, r5, r7
 80002b6:	faa3 f587 	sel	r5, r3, r7
 80002ba:	fa86 f647 	uadd8	r6, r6, r7
 80002be:	faa5 f687 	sel	r6, r5, r7
 80002c2:	b98e      	cbnz	r6, 80002e8 <memchr+0x78>
 80002c4:	d1ee      	bne.n	80002a4 <memchr+0x34>
 80002c6:	bcf0      	pop	{r4, r5, r6, r7}
 80002c8:	f001 01ff 	and.w	r1, r1, #255	@ 0xff
 80002cc:	f002 0207 	and.w	r2, r2, #7
 80002d0:	b132      	cbz	r2, 80002e0 <memchr+0x70>
 80002d2:	f810 3b01 	ldrb.w	r3, [r0], #1
 80002d6:	3a01      	subs	r2, #1
 80002d8:	ea83 0301 	eor.w	r3, r3, r1
 80002dc:	b113      	cbz	r3, 80002e4 <memchr+0x74>
 80002de:	d1f8      	bne.n	80002d2 <memchr+0x62>
 80002e0:	2000      	movs	r0, #0
 80002e2:	4770      	bx	lr
 80002e4:	3801      	subs	r0, #1
 80002e6:	4770      	bx	lr
 80002e8:	2d00      	cmp	r5, #0
 80002ea:	bf06      	itte	eq
 80002ec:	4635      	moveq	r5, r6
 80002ee:	3803      	subeq	r0, #3
 80002f0:	3807      	subne	r0, #7
 80002f2:	f015 0f01 	tst.w	r5, #1
 80002f6:	d107      	bne.n	8000308 <memchr+0x98>
 80002f8:	3001      	adds	r0, #1
 80002fa:	f415 7f80 	tst.w	r5, #256	@ 0x100
 80002fe:	bf02      	ittt	eq
 8000300:	3001      	addeq	r0, #1
 8000302:	f415 3fc0 	tsteq.w	r5, #98304	@ 0x18000
 8000306:	3001      	addeq	r0, #1
 8000308:	bcf0      	pop	{r4, r5, r6, r7}
 800030a:	3801      	subs	r0, #1
 800030c:	4770      	bx	lr
 800030e:	bf00      	nop

08000310 <__aeabi_uldivmod>:
 8000310:	b953      	cbnz	r3, 8000328 <__aeabi_uldivmod+0x18>
 8000312:	b94a      	cbnz	r2, 8000328 <__aeabi_uldivmod+0x18>
 8000314:	2900      	cmp	r1, #0
 8000316:	bf08      	it	eq
 8000318:	2800      	cmpeq	r0, #0
 800031a:	bf1c      	itt	ne
 800031c:	f04f 31ff 	movne.w	r1, #4294967295
 8000320:	f04f 30ff 	movne.w	r0, #4294967295
 8000324:	f000 b988 	b.w	8000638 <__aeabi_idiv0>
 8000328:	f1ad 0c08 	sub.w	ip, sp, #8
 800032c:	e96d ce04 	strd	ip, lr, [sp, #-16]!
 8000330:	f000 f806 	bl	8000340 <__udivmoddi4>
 8000334:	f8dd e004 	ldr.w	lr, [sp, #4]
 8000338:	e9dd 2302 	ldrd	r2, r3, [sp, #8]
 800033c:	b004      	add	sp, #16
 800033e:	4770      	bx	lr

08000340 <__udivmoddi4>:
 8000340:	e92d 47f0 	stmdb	sp!, {r4, r5, r6, r7, r8, r9, sl, lr}
 8000344:	9d08      	ldr	r5, [sp, #32]
 8000346:	468e      	mov	lr, r1
 8000348:	4604      	mov	r4, r0
 800034a:	4688      	mov	r8, r1
 800034c:	2b00      	cmp	r3, #0
 800034e:	d14a      	bne.n	80003e6 <__udivmoddi4+0xa6>
 8000350:	428a      	cmp	r2, r1
 8000352:	4617      	mov	r7, r2
 8000354:	d962      	bls.n	800041c <__udivmoddi4+0xdc>
 8000356:	fab2 f682 	clz	r6, r2
 800035a:	b14e      	cbz	r6, 8000370 <__udivmoddi4+0x30>
 800035c:	f1c6 0320 	rsb	r3, r6, #32
 8000360:	fa01 f806 	lsl.w	r8, r1, r6
 8000364:	fa20 f303 	lsr.w	r3, r0, r3
 8000368:	40b7      	lsls	r7, r6
 800036a:	ea43 0808 	orr.w	r8, r3, r8
 800036e:	40b4      	lsls	r4, r6
 8000370:	ea4f 4e17 	mov.w	lr, r7, lsr #16
 8000374:	fa1f fc87 	uxth.w	ip, r7
 8000378:	fbb8 f1fe 	udiv	r1, r8, lr
 800037c:	0c23      	lsrs	r3, r4, #16
 800037e:	fb0e 8811 	mls	r8, lr, r1, r8
 8000382:	ea43 4308 	orr.w	r3, r3, r8, lsl #16
 8000386:	fb01 f20c 	mul.w	r2, r1, ip
 800038a:	429a      	cmp	r2, r3
 800038c:	d909      	bls.n	80003a2 <__udivmoddi4+0x62>
 800038e:	18fb      	adds	r3, r7, r3
 8000390:	f101 30ff 	add.w	r0, r1, #4294967295
 8000394:	f080 80ea 	bcs.w	800056c <__udivmoddi4+0x22c>
 8000398:	429a      	cmp	r2, r3
 800039a:	f240 80e7 	bls.w	800056c <__udivmoddi4+0x22c>
 800039e:	3902      	subs	r1, #2
 80003a0:	443b      	add	r3, r7
 80003a2:	1a9a      	subs	r2, r3, r2
 80003a4:	b2a3      	uxth	r3, r4
 80003a6:	fbb2 f0fe 	udiv	r0, r2, lr
 80003aa:	fb0e 2210 	mls	r2, lr, r0, r2
 80003ae:	ea43 4302 	orr.w	r3, r3, r2, lsl #16
 80003b2:	fb00 fc0c 	mul.w	ip, r0, ip
 80003b6:	459c      	cmp	ip, r3
 80003b8:	d909      	bls.n	80003ce <__udivmoddi4+0x8e>
 80003ba:	18fb      	adds	r3, r7, r3
 80003bc:	f100 32ff 	add.w	r2, r0, #4294967295
 80003c0:	f080 80d6 	bcs.w	8000570 <__udivmoddi4+0x230>
 80003c4:	459c      	cmp	ip, r3
 80003c6:	f240 80d3 	bls.w	8000570 <__udivmoddi4+0x230>
 80003ca:	443b      	add	r3, r7
 80003cc:	3802      	subs	r0, #2
 80003ce:	ea40 4001 	orr.w	r0, r0, r1, lsl #16
 80003d2:	eba3 030c 	sub.w	r3, r3, ip
 80003d6:	2100      	movs	r1, #0
 80003d8:	b11d      	cbz	r5, 80003e2 <__udivmoddi4+0xa2>
 80003da:	40f3      	lsrs	r3, r6
 80003dc:	2200      	movs	r2, #0
 80003de:	e9c5 3200 	strd	r3, r2, [r5]
 80003e2:	e8bd 87f0 	ldmia.w	sp!, {r4, r5, r6, r7, r8, r9, sl, pc}
 80003e6:	428b      	cmp	r3, r1
 80003e8:	d905      	bls.n	80003f6 <__udivmoddi4+0xb6>
 80003ea:	b10d      	cbz	r5, 80003f0 <__udivmoddi4+0xb0>
 80003ec:	e9c5 0100 	strd	r0, r1, [r5]
 80003f0:	2100      	movs	r1, #0
 80003f2:	4608      	mov	r0, r1
 80003f4:	e7f5      	b.n	80003e2 <__udivmoddi4+0xa2>
 80003f6:	fab3 f183 	clz	r1, r3
 80003fa:	2900      	cmp	r1, #0
 80003fc:	d146      	bne.n	800048c <__udivmoddi4+0x14c>
 80003fe:	4573      	cmp	r3, lr
 8000400:	d302      	bcc.n	8000408 <__udivmoddi4+0xc8>
 8000402:	4282      	cmp	r2, r0
 8000404:	f200 8105 	bhi.w	8000612 <__udivmoddi4+0x2d2>
 8000408:	1a84      	subs	r4, r0, r2
 800040a:	eb6e 0203 	sbc.w	r2, lr, r3
 800040e:	2001      	movs	r0, #1
 8000410:	4690      	mov	r8, r2
 8000412:	2d00      	cmp	r5, #0
 8000414:	d0e5      	beq.n	80003e2 <__udivmoddi4+0xa2>
 8000416:	e9c5 4800 	strd	r4, r8, [r5]
 800041a:	e7e2      	b.n	80003e2 <__udivmoddi4+0xa2>
 800041c:	2a00      	cmp	r2, #0
 800041e:	f000 8090 	beq.w	8000542 <__udivmoddi4+0x202>
 8000422:	fab2 f682 	clz	r6, r2
 8000426:	2e00      	cmp	r6, #0
 8000428:	f040 80a4 	bne.w	8000574 <__udivmoddi4+0x234>
 800042c:	1a8a      	subs	r2, r1, r2
 800042e:	0c03      	lsrs	r3, r0, #16
 8000430:	ea4f 4e17 	mov.w	lr, r7, lsr #16
 8000434:	b280      	uxth	r0, r0
 8000436:	b2bc      	uxth	r4, r7
 8000438:	2101      	movs	r1, #1
 800043a:	fbb2 fcfe 	udiv	ip, r2, lr
 800043e:	fb0e 221c 	mls	r2, lr, ip, r2
 8000442:	ea43 4302 	orr.w	r3, r3, r2, lsl #16
 8000446:	fb04 f20c 	mul.w	r2, r4, ip
 800044a:	429a      	cmp	r2, r3
 800044c:	d907      	bls.n	800045e <__udivmoddi4+0x11e>
 800044e:	18fb      	adds	r3, r7, r3
 8000450:	f10c 38ff 	add.w	r8, ip, #4294967295
 8000454:	d202      	bcs.n	800045c <__udivmoddi4+0x11c>
 8000456:	429a      	cmp	r2, r3
 8000458:	f200 80e0 	bhi.w	800061c <__udivmoddi4+0x2dc>
 800045c:	46c4      	mov	ip, r8
 800045e:	1a9b      	subs	r3, r3, r2
 8000460:	fbb3 f2fe 	udiv	r2, r3, lr
 8000464:	fb0e 3312 	mls	r3, lr, r2, r3
 8000468:	ea40 4303 	orr.w	r3, r0, r3, lsl #16
 800046c:	fb02 f404 	mul.w	r4, r2, r4
 8000470:	429c      	cmp	r4, r3
 8000472:	d907      	bls.n	8000484 <__udivmoddi4+0x144>
 8000474:	18fb      	adds	r3, r7, r3
 8000476:	f102 30ff 	add.w	r0, r2, #4294967295
 800047a:	d202      	bcs.n	8000482 <__udivmoddi4+0x142>
 800047c:	429c      	cmp	r4, r3
 800047e:	f200 80ca 	bhi.w	8000616 <__udivmoddi4+0x2d6>
 8000482:	4602      	mov	r2, r0
 8000484:	1b1b      	subs	r3, r3, r4
 8000486:	ea42 400c 	orr.w	r0, r2, ip, lsl #16
 800048a:	e7a5      	b.n	80003d8 <__udivmoddi4+0x98>
 800048c:	f1c1 0620 	rsb	r6, r1, #32
 8000490:	408b      	lsls	r3, r1
 8000492:	fa22 f706 	lsr.w	r7, r2, r6
 8000496:	431f      	orrs	r7, r3
 8000498:	fa0e f401 	lsl.w	r4, lr, r1
 800049c:	fa20 f306 	lsr.w	r3, r0, r6
 80004a0:	fa2e fe06 	lsr.w	lr, lr, r6
 80004a4:	ea4f 4917 	mov.w	r9, r7, lsr #16
 80004a8:	4323      	orrs	r3, r4
 80004aa:	fa00 f801 	lsl.w	r8, r0, r1
 80004ae:	fa1f fc87 	uxth.w	ip, r7
 80004b2:	fbbe f0f9 	udiv	r0, lr, r9
 80004b6:	0c1c      	lsrs	r4, r3, #16
 80004b8:	fb09 ee10 	mls	lr, r9, r0, lr
 80004bc:	ea44 440e 	orr.w	r4, r4, lr, lsl #16
 80004c0:	fb00 fe0c 	mul.w	lr, r0, ip
 80004c4:	45a6      	cmp	lr, r4
 80004c6:	fa02 f201 	lsl.w	r2, r2, r1
 80004ca:	d909      	bls.n	80004e0 <__udivmoddi4+0x1a0>
 80004cc:	193c      	adds	r4, r7, r4
 80004ce:	f100 3aff 	add.w	sl, r0, #4294967295
 80004d2:	f080 809c 	bcs.w	800060e <__udivmoddi4+0x2ce>
 80004d6:	45a6      	cmp	lr, r4
 80004d8:	f240 8099 	bls.w	800060e <__udivmoddi4+0x2ce>
 80004dc:	3802      	subs	r0, #2
 80004de:	443c      	add	r4, r7
 80004e0:	eba4 040e 	sub.w	r4, r4, lr
 80004e4:	fa1f fe83 	uxth.w	lr, r3
 80004e8:	fbb4 f3f9 	udiv	r3, r4, r9
 80004ec:	fb09 4413 	mls	r4, r9, r3, r4
 80004f0:	ea4e 4404 	orr.w	r4, lr, r4, lsl #16
 80004f4:	fb03 fc0c 	mul.w	ip, r3, ip
 80004f8:	45a4      	cmp	ip, r4
 80004fa:	d908      	bls.n	800050e <__udivmoddi4+0x1ce>
 80004fc:	193c      	adds	r4, r7, r4
 80004fe:	f103 3eff 	add.w	lr, r3, #4294967295
 8000502:	f080 8082 	bcs.w	800060a <__udivmoddi4+0x2ca>
 8000506:	45a4      	cmp	ip, r4
 8000508:	d97f      	bls.n	800060a <__udivmoddi4+0x2ca>
 800050a:	3b02      	subs	r3, #2
 800050c:	443c      	add	r4, r7
 800050e:	ea43 4000 	orr.w	r0, r3, r0, lsl #16
 8000512:	eba4 040c 	sub.w	r4, r4, ip
 8000516:	fba0 ec02 	umull	lr, ip, r0, r2
 800051a:	4564      	cmp	r4, ip
 800051c:	4673      	mov	r3, lr
 800051e:	46e1      	mov	r9, ip
 8000520:	d362      	bcc.n	80005e8 <__udivmoddi4+0x2a8>
 8000522:	d05f      	beq.n	80005e4 <__udivmoddi4+0x2a4>
 8000524:	b15d      	cbz	r5, 800053e <__udivmoddi4+0x1fe>
 8000526:	ebb8 0203 	subs.w	r2, r8, r3
 800052a:	eb64 0409 	sbc.w	r4, r4, r9
 800052e:	fa04 f606 	lsl.w	r6, r4, r6
 8000532:	fa22 f301 	lsr.w	r3, r2, r1
 8000536:	431e      	orrs	r6, r3
 8000538:	40cc      	lsrs	r4, r1
 800053a:	e9c5 6400 	strd	r6, r4, [r5]
 800053e:	2100      	movs	r1, #0
 8000540:	e74f      	b.n	80003e2 <__udivmoddi4+0xa2>
 8000542:	fbb1 fcf2 	udiv	ip, r1, r2
 8000546:	0c01      	lsrs	r1, r0, #16
 8000548:	ea41 410e 	orr.w	r1, r1, lr, lsl #16
 800054c:	b280      	uxth	r0, r0
 800054e:	ea40 4201 	orr.w	r2, r0, r1, lsl #16
 8000552:	463b      	mov	r3, r7
 8000554:	4638      	mov	r0, r7
 8000556:	463c      	mov	r4, r7
 8000558:	46b8      	mov	r8, r7
 800055a:	46be      	mov	lr, r7
 800055c:	2620      	movs	r6, #32
 800055e:	fbb1 f1f7 	udiv	r1, r1, r7
 8000562:	eba2 0208 	sub.w	r2, r2, r8
 8000566:	ea41 410c 	orr.w	r1, r1, ip, lsl #16
 800056a:	e766      	b.n	800043a <__udivmoddi4+0xfa>
 800056c:	4601      	mov	r1, r0
 800056e:	e718      	b.n	80003a2 <__udivmoddi4+0x62>
 8000570:	4610      	mov	r0, r2
 8000572:	e72c      	b.n	80003ce <__udivmoddi4+0x8e>
 8000574:	f1c6 0220 	rsb	r2, r6, #32
 8000578:	fa2e f302 	lsr.w	r3, lr, r2
 800057c:	40b7      	lsls	r7, r6
 800057e:	40b1      	lsls	r1, r6
 8000580:	fa20 f202 	lsr.w	r2, r0, r2
 8000584:	ea4f 4e17 	mov.w	lr, r7, lsr #16
 8000588:	430a      	orrs	r2, r1
 800058a:	fbb3 f8fe 	udiv	r8, r3, lr
 800058e:	b2bc      	uxth	r4, r7
 8000590:	fb0e 3318 	mls	r3, lr, r8, r3
 8000594:	0c11      	lsrs	r1, r2, #16
 8000596:	ea41 4103 	orr.w	r1, r1, r3, lsl #16
 800059a:	fb08 f904 	mul.w	r9, r8, r4
 800059e:	40b0      	lsls	r0, r6
 80005a0:	4589      	cmp	r9, r1
 80005a2:	ea4f 4310 	mov.w	r3, r0, lsr #16
 80005a6:	b280      	uxth	r0, r0
 80005a8:	d93e      	bls.n	8000628 <__udivmoddi4+0x2e8>
 80005aa:	1879      	adds	r1, r7, r1
 80005ac:	f108 3cff 	add.w	ip, r8, #4294967295
 80005b0:	d201      	bcs.n	80005b6 <__udivmoddi4+0x276>
 80005b2:	4589      	cmp	r9, r1
 80005b4:	d81f      	bhi.n	80005f6 <__udivmoddi4+0x2b6>
 80005b6:	eba1 0109 	sub.w	r1, r1, r9
 80005ba:	fbb1 f9fe 	udiv	r9, r1, lr
 80005be:	fb09 f804 	mul.w	r8, r9, r4
 80005c2:	fb0e 1119 	mls	r1, lr, r9, r1
 80005c6:	b292      	uxth	r2, r2
 80005c8:	ea42 4201 	orr.w	r2, r2, r1, lsl #16
 80005cc:	4542      	cmp	r2, r8
 80005ce:	d229      	bcs.n	8000624 <__udivmoddi4+0x2e4>
 80005d0:	18ba      	adds	r2, r7, r2
 80005d2:	f109 31ff 	add.w	r1, r9, #4294967295
 80005d6:	d2c4      	bcs.n	8000562 <__udivmoddi4+0x222>
 80005d8:	4542      	cmp	r2, r8
 80005da:	d2c2      	bcs.n	8000562 <__udivmoddi4+0x222>
 80005dc:	f1a9 0102 	sub.w	r1, r9, #2
 80005e0:	443a      	add	r2, r7
 80005e2:	e7be      	b.n	8000562 <__udivmoddi4+0x222>
 80005e4:	45f0      	cmp	r8, lr
 80005e6:	d29d      	bcs.n	8000524 <__udivmoddi4+0x1e4>
 80005e8:	ebbe 0302 	subs.w	r3, lr, r2
 80005ec:	eb6c 0c07 	sbc.w	ip, ip, r7
 80005f0:	3801      	subs	r0, #1
 80005f2:	46e1      	mov	r9, ip
 80005f4:	e796      	b.n	8000524 <__udivmoddi4+0x1e4>
 80005f6:	eba7 0909 	sub.w	r9, r7, r9
 80005fa:	4449      	add	r1, r9
 80005fc:	f1a8 0c02 	sub.w	ip, r8, #2
 8000600:	fbb1 f9fe 	udiv	r9, r1, lr
 8000604:	fb09 f804 	mul.w	r8, r9, r4
 8000608:	e7db      	b.n	80005c2 <__udivmoddi4+0x282>
 800060a:	4673      	mov	r3, lr
 800060c:	e77f      	b.n	800050e <__udivmoddi4+0x1ce>
 800060e:	4650      	mov	r0, sl
 8000610:	e766      	b.n	80004e0 <__udivmoddi4+0x1a0>
 8000612:	4608      	mov	r0, r1
 8000614:	e6fd      	b.n	8000412 <__udivmoddi4+0xd2>
 8000616:	443b      	add	r3, r7
 8000618:	3a02      	subs	r2, #2
 800061a:	e733      	b.n	8000484 <__udivmoddi4+0x144>
 800061c:	f1ac 0c02 	sub.w	ip, ip, #2
 8000620:	443b      	add	r3, r7
 8000622:	e71c      	b.n	800045e <__udivmoddi4+0x11e>
 8000624:	4649      	mov	r1, r9
 8000626:	e79c      	b.n	8000562 <__udivmoddi4+0x222>
 8000628:	eba1 0109 	sub.w	r1, r1, r9
 800062c:	46c4      	mov	ip, r8
 800062e:	fbb1 f9fe 	udiv	r9, r1, lr
 8000632:	fb09 f804 	mul.w	r8, r9, r4
 8000636:	e7c4      	b.n	80005c2 <__udivmoddi4+0x282>

08000638 <__aeabi_idiv0>:
 8000638:	4770      	bx	lr
 800063a:	bf00      	nop

0800063c <MX_DMA_Init>:
 800063c:	4b0e      	ldr	r3, [pc, #56]	@ (8000678 <MX_DMA_Init+0x3c>)
 800063e:	b507      	push	{r0, r1, r2, lr}
 8000640:	6b1a      	ldr	r2, [r3, #48]	@ 0x30
 8000642:	2010      	movs	r0, #16
 8000644:	f442 1200 	orr.w	r2, r2, #2097152	@ 0x200000
 8000648:	631a      	str	r2, [r3, #48]	@ 0x30
 800064a:	2200      	movs	r2, #0
 800064c:	6b1b      	ldr	r3, [r3, #48]	@ 0x30
 800064e:	4611      	mov	r1, r2
 8000650:	f403 1300 	and.w	r3, r3, #2097152	@ 0x200000
 8000654:	9301      	str	r3, [sp, #4]
 8000656:	9b01      	ldr	r3, [sp, #4]
 8000658:	f002 f82a 	bl	80026b0 <HAL_NVIC_SetPriority>
 800065c:	2010      	movs	r0, #16
 800065e:	f002 f859 	bl	8002714 <HAL_NVIC_EnableIRQ>
 8000662:	2200      	movs	r2, #0
 8000664:	2011      	movs	r0, #17
 8000666:	4611      	mov	r1, r2
 8000668:	f002 f822 	bl	80026b0 <HAL_NVIC_SetPriority>
 800066c:	2011      	movs	r0, #17
 800066e:	b003      	add	sp, #12
 8000670:	f85d eb04 	ldr.w	lr, [sp], #4
 8000674:	f002 b84e 	b.w	8002714 <HAL_NVIC_EnableIRQ>
 8000678:	40023800 	.word	0x40023800

0800067c <MX_GPIO_Init>:
 800067c:	e92d 4ff0 	stmdb	sp!, {r4, r5, r6, r7, r8, r9, sl, fp, lr}
 8000680:	b08d      	sub	sp, #52	@ 0x34
 8000682:	2214      	movs	r2, #20
 8000684:	2100      	movs	r1, #0
 8000686:	4e69      	ldr	r6, [pc, #420]	@ (800082c <MX_GPIO_Init+0x1b0>)
 8000688:	a807      	add	r0, sp, #28
 800068a:	f8df a1b4 	ldr.w	sl, [pc, #436]	@ 8000840 <MX_GPIO_Init+0x1c4>
 800068e:	f004 fffb 	bl	8005688 <memset>
 8000692:	4b67      	ldr	r3, [pc, #412]	@ (8000830 <MX_GPIO_Init+0x1b4>)
 8000694:	4d67      	ldr	r5, [pc, #412]	@ (8000834 <MX_GPIO_Init+0x1b8>)
 8000696:	4630      	mov	r0, r6
 8000698:	6b1a      	ldr	r2, [r3, #48]	@ 0x30
 800069a:	2141      	movs	r1, #65	@ 0x41
 800069c:	f8df b1a4 	ldr.w	fp, [pc, #420]	@ 8000844 <MX_GPIO_Init+0x1c8>
 80006a0:	2400      	movs	r4, #0
 80006a2:	f042 0210 	orr.w	r2, r2, #16
 80006a6:	f04f 0901 	mov.w	r9, #1
 80006aa:	f04f 0802 	mov.w	r8, #2
 80006ae:	2703      	movs	r7, #3
 80006b0:	631a      	str	r2, [r3, #48]	@ 0x30
 80006b2:	6b1a      	ldr	r2, [r3, #48]	@ 0x30
 80006b4:	f002 0210 	and.w	r2, r2, #16
 80006b8:	9200      	str	r2, [sp, #0]
 80006ba:	9a00      	ldr	r2, [sp, #0]
 80006bc:	6b1a      	ldr	r2, [r3, #48]	@ 0x30
 80006be:	f042 0204 	orr.w	r2, r2, #4
 80006c2:	631a      	str	r2, [r3, #48]	@ 0x30
 80006c4:	6b1a      	ldr	r2, [r3, #48]	@ 0x30
 80006c6:	f002 0204 	and.w	r2, r2, #4
 80006ca:	9201      	str	r2, [sp, #4]
 80006cc:	9a01      	ldr	r2, [sp, #4]
 80006ce:	6b1a      	ldr	r2, [r3, #48]	@ 0x30
 80006d0:	f042 0280 	orr.w	r2, r2, #128	@ 0x80
 80006d4:	631a      	str	r2, [r3, #48]	@ 0x30
 80006d6:	6b1a      	ldr	r2, [r3, #48]	@ 0x30
 80006d8:	f002 0280 	and.w	r2, r2, #128	@ 0x80
 80006dc:	9202      	str	r2, [sp, #8]
 80006de:	9a02      	ldr	r2, [sp, #8]
 80006e0:	6b1a      	ldr	r2, [r3, #48]	@ 0x30
 80006e2:	f042 0201 	orr.w	r2, r2, #1
 80006e6:	631a      	str	r2, [r3, #48]	@ 0x30
 80006e8:	6b1a      	ldr	r2, [r3, #48]	@ 0x30
 80006ea:	f002 0201 	and.w	r2, r2, #1
 80006ee:	9203      	str	r2, [sp, #12]
 80006f0:	9a03      	ldr	r2, [sp, #12]
 80006f2:	6b1a      	ldr	r2, [r3, #48]	@ 0x30
 80006f4:	f042 0202 	orr.w	r2, r2, #2
 80006f8:	631a      	str	r2, [r3, #48]	@ 0x30
 80006fa:	6b1a      	ldr	r2, [r3, #48]	@ 0x30
 80006fc:	f002 0202 	and.w	r2, r2, #2
 8000700:	9204      	str	r2, [sp, #16]
 8000702:	9a04      	ldr	r2, [sp, #16]
 8000704:	6b1a      	ldr	r2, [r3, #48]	@ 0x30
 8000706:	f042 0240 	orr.w	r2, r2, #64	@ 0x40
 800070a:	631a      	str	r2, [r3, #48]	@ 0x30
 800070c:	6b1a      	ldr	r2, [r3, #48]	@ 0x30
 800070e:	f002 0240 	and.w	r2, r2, #64	@ 0x40
 8000712:	9205      	str	r2, [sp, #20]
 8000714:	9a05      	ldr	r2, [sp, #20]
 8000716:	6b1a      	ldr	r2, [r3, #48]	@ 0x30
 8000718:	f042 0208 	orr.w	r2, r2, #8
 800071c:	631a      	str	r2, [r3, #48]	@ 0x30
 800071e:	2200      	movs	r2, #0
 8000720:	6b1b      	ldr	r3, [r3, #48]	@ 0x30
 8000722:	f003 0308 	and.w	r3, r3, #8
 8000726:	9306      	str	r3, [sp, #24]
 8000728:	9b06      	ldr	r3, [sp, #24]
 800072a:	f002 faa1 	bl	8002c70 <HAL_GPIO_WritePin>
 800072e:	4650      	mov	r0, sl
 8000730:	2200      	movs	r2, #0
 8000732:	f244 0181 	movw	r1, #16513	@ 0x4081
 8000736:	f002 fa9b 	bl	8002c70 <HAL_GPIO_WritePin>
 800073a:	4628      	mov	r0, r5
 800073c:	2200      	movs	r2, #0
 800073e:	2141      	movs	r1, #65	@ 0x41
 8000740:	f002 fa96 	bl	8002c70 <HAL_GPIO_WritePin>
 8000744:	4658      	mov	r0, fp
 8000746:	2200      	movs	r2, #0
 8000748:	2110      	movs	r1, #16
 800074a:	f002 fa91 	bl	8002c70 <HAL_GPIO_WritePin>
 800074e:	2241      	movs	r2, #65	@ 0x41
 8000750:	a907      	add	r1, sp, #28
 8000752:	4630      	mov	r0, r6
 8000754:	260b      	movs	r6, #11
 8000756:	e9cd 2907 	strd	r2, r9, [sp, #28]
 800075a:	e9cd 4409 	strd	r4, r4, [sp, #36]	@ 0x24
 800075e:	f002 f99d 	bl	8002a9c <HAL_GPIO_Init>
 8000762:	f44f 5300 	mov.w	r3, #8192	@ 0x2000
 8000766:	f44f 1104 	mov.w	r1, #2162688	@ 0x210000
 800076a:	4833      	ldr	r0, [pc, #204]	@ (8000838 <MX_GPIO_Init+0x1bc>)
 800076c:	9409      	str	r4, [sp, #36]	@ 0x24
 800076e:	e9cd 3107 	strd	r3, r1, [sp, #28]
 8000772:	a907      	add	r1, sp, #28
 8000774:	f002 f992 	bl	8002a9c <HAL_GPIO_Init>
 8000778:	2132      	movs	r1, #50	@ 0x32
 800077a:	482f      	ldr	r0, [pc, #188]	@ (8000838 <MX_GPIO_Init+0x1bc>)
 800077c:	9409      	str	r4, [sp, #36]	@ 0x24
 800077e:	e9cd 1807 	strd	r1, r8, [sp, #28]
 8000782:	a907      	add	r1, sp, #28
 8000784:	e9cd 760a 	strd	r7, r6, [sp, #40]	@ 0x28
 8000788:	f002 f988 	bl	8002a9c <HAL_GPIO_Init>
 800078c:	2186      	movs	r1, #134	@ 0x86
 800078e:	482b      	ldr	r0, [pc, #172]	@ (800083c <MX_GPIO_Init+0x1c0>)
 8000790:	960b      	str	r6, [sp, #44]	@ 0x2c
 8000792:	e9cd 1807 	strd	r1, r8, [sp, #28]
 8000796:	a907      	add	r1, sp, #28
 8000798:	e9cd 4709 	strd	r4, r7, [sp, #36]	@ 0x24
 800079c:	f002 f97e 	bl	8002a9c <HAL_GPIO_Init>
 80007a0:	f244 0181 	movw	r1, #16513	@ 0x4081
 80007a4:	4650      	mov	r0, sl
 80007a6:	e9cd 1907 	strd	r1, r9, [sp, #28]
 80007aa:	a907      	add	r1, sp, #28
 80007ac:	e9cd 4409 	strd	r4, r4, [sp, #36]	@ 0x24
 80007b0:	f002 f974 	bl	8002a9c <HAL_GPIO_Init>
 80007b4:	2241      	movs	r2, #65	@ 0x41
 80007b6:	a907      	add	r1, sp, #28
 80007b8:	4628      	mov	r0, r5
 80007ba:	e9cd 2907 	strd	r2, r9, [sp, #28]
 80007be:	e9cd 4409 	strd	r4, r4, [sp, #36]	@ 0x24
 80007c2:	f002 f96b 	bl	8002a9c <HAL_GPIO_Init>
 80007c6:	f44f 5300 	mov.w	r3, #8192	@ 0x2000
 80007ca:	a907      	add	r1, sp, #28
 80007cc:	4650      	mov	r0, sl
 80007ce:	960b      	str	r6, [sp, #44]	@ 0x2c
 80007d0:	e9cd 3807 	strd	r3, r8, [sp, #28]
 80007d4:	e9cd 4709 	strd	r4, r7, [sp, #36]	@ 0x24
 80007d8:	f002 f960 	bl	8002a9c <HAL_GPIO_Init>
 80007dc:	2380      	movs	r3, #128	@ 0x80
 80007de:	a907      	add	r1, sp, #28
 80007e0:	4628      	mov	r0, r5
 80007e2:	9409      	str	r4, [sp, #36]	@ 0x24
 80007e4:	e9cd 3407 	strd	r3, r4, [sp, #28]
 80007e8:	f002 f958 	bl	8002a9c <HAL_GPIO_Init>
 80007ec:	2310      	movs	r3, #16
 80007ee:	a907      	add	r1, sp, #28
 80007f0:	4658      	mov	r0, fp
 80007f2:	e9cd 3907 	strd	r3, r9, [sp, #28]
 80007f6:	e9cd 4409 	strd	r4, r4, [sp, #36]	@ 0x24
 80007fa:	f002 f94f 	bl	8002a9c <HAL_GPIO_Init>
 80007fe:	f44f 5320 	mov.w	r3, #10240	@ 0x2800
 8000802:	a907      	add	r1, sp, #28
 8000804:	4628      	mov	r0, r5
 8000806:	960b      	str	r6, [sp, #44]	@ 0x2c
 8000808:	e9cd 3807 	strd	r3, r8, [sp, #28]
 800080c:	e9cd 4709 	strd	r4, r7, [sp, #36]	@ 0x24
 8000810:	f002 f944 	bl	8002a9c <HAL_GPIO_Init>
 8000814:	4622      	mov	r2, r4
 8000816:	4621      	mov	r1, r4
 8000818:	2028      	movs	r0, #40	@ 0x28
 800081a:	f001 ff49 	bl	80026b0 <HAL_NVIC_SetPriority>
 800081e:	2028      	movs	r0, #40	@ 0x28
 8000820:	f001 ff78 	bl	8002714 <HAL_NVIC_EnableIRQ>
 8000824:	b00d      	add	sp, #52	@ 0x34
 8000826:	e8bd 8ff0 	ldmia.w	sp!, {r4, r5, r6, r7, r8, r9, sl, fp, pc}
 800082a:	bf00      	nop
 800082c:	40021000 	.word	0x40021000
 8000830:	40023800 	.word	0x40023800
 8000834:	40021800 	.word	0x40021800
 8000838:	40020800 	.word	0x40020800
 800083c:	40020000 	.word	0x40020000
 8000840:	40020400 	.word	0x40020400
 8000844:	40020c00 	.word	0x40020c00

08000848 <SystemClock_Config>:
 8000848:	b510      	push	{r4, lr}
 800084a:	b094      	sub	sp, #80	@ 0x50
 800084c:	2234      	movs	r2, #52	@ 0x34
 800084e:	2100      	movs	r1, #0
 8000850:	2402      	movs	r4, #2
 8000852:	a807      	add	r0, sp, #28
 8000854:	f004 ff18 	bl	8005688 <memset>
 8000858:	2214      	movs	r2, #20
 800085a:	2100      	movs	r1, #0
 800085c:	a802      	add	r0, sp, #8
 800085e:	f004 ff13 	bl	8005688 <memset>
 8000862:	f002 faa7 	bl	8002db4 <HAL_PWR_EnableBkUpAccess>
 8000866:	4b21      	ldr	r3, [pc, #132]	@ (80008ec <SystemClock_Config+0xa4>)
 8000868:	a807      	add	r0, sp, #28
 800086a:	6c1a      	ldr	r2, [r3, #64]	@ 0x40
 800086c:	f042 5280 	orr.w	r2, r2, #268435456	@ 0x10000000
 8000870:	641a      	str	r2, [r3, #64]	@ 0x40
 8000872:	6c1b      	ldr	r3, [r3, #64]	@ 0x40
 8000874:	4a1e      	ldr	r2, [pc, #120]	@ (80008f0 <SystemClock_Config+0xa8>)
 8000876:	f003 5380 	and.w	r3, r3, #268435456	@ 0x10000000
 800087a:	9300      	str	r3, [sp, #0]
 800087c:	9b00      	ldr	r3, [sp, #0]
 800087e:	6813      	ldr	r3, [r2, #0]
 8000880:	f423 4340 	bic.w	r3, r3, #49152	@ 0xc000
 8000884:	f443 4380 	orr.w	r3, r3, #16384	@ 0x4000
 8000888:	6013      	str	r3, [r2, #0]
 800088a:	6813      	ldr	r3, [r2, #0]
 800088c:	2201      	movs	r2, #1
 800088e:	9413      	str	r4, [sp, #76]	@ 0x4c
 8000890:	f403 4340 	and.w	r3, r3, #49152	@ 0xc000
 8000894:	9301      	str	r3, [sp, #4]
 8000896:	9b01      	ldr	r3, [sp, #4]
 8000898:	f44f 3380 	mov.w	r3, #65536	@ 0x10000
 800089c:	e9cd 2307 	strd	r2, r3, [sp, #28]
 80008a0:	f44f 0380 	mov.w	r3, #4194304	@ 0x400000
 80008a4:	2260      	movs	r2, #96	@ 0x60
 80008a6:	e9cd 430d 	strd	r4, r3, [sp, #52]	@ 0x34
 80008aa:	2304      	movs	r3, #4
 80008ac:	e9cd 320f 	strd	r3, r2, [sp, #60]	@ 0x3c
 80008b0:	e9cd 4311 	strd	r4, r3, [sp, #68]	@ 0x44
 80008b4:	f002 fabe 	bl	8002e34 <HAL_RCC_OscConfig>
 80008b8:	b108      	cbz	r0, 80008be <SystemClock_Config+0x76>
 80008ba:	b672      	cpsid	i
 80008bc:	e7fe      	b.n	80008bc <SystemClock_Config+0x74>
 80008be:	f002 fa81 	bl	8002dc4 <HAL_PWREx_EnableOverDrive>
 80008c2:	b108      	cbz	r0, 80008c8 <SystemClock_Config+0x80>
 80008c4:	b672      	cpsid	i
 80008c6:	e7fe      	b.n	80008c6 <SystemClock_Config+0x7e>
 80008c8:	230f      	movs	r3, #15
 80008ca:	9004      	str	r0, [sp, #16]
 80008cc:	2103      	movs	r1, #3
 80008ce:	e9cd 3402 	strd	r3, r4, [sp, #8]
 80008d2:	f44f 5380 	mov.w	r3, #4096	@ 0x1000
 80008d6:	e9cd 3005 	strd	r3, r0, [sp, #20]
 80008da:	a802      	add	r0, sp, #8
 80008dc:	f002 fc9c 	bl	8003218 <HAL_RCC_ClockConfig>
 80008e0:	b108      	cbz	r0, 80008e6 <SystemClock_Config+0x9e>
 80008e2:	b672      	cpsid	i
 80008e4:	e7fe      	b.n	80008e4 <SystemClock_Config+0x9c>
 80008e6:	b014      	add	sp, #80	@ 0x50
 80008e8:	bd10      	pop	{r4, pc}
 80008ea:	bf00      	nop
 80008ec:	40023800 	.word	0x40023800
 80008f0:	40007000 	.word	0x40007000

080008f4 <main>:
 80008f4:	b508      	push	{r3, lr}
 80008f6:	f001 fe99 	bl	800262c <HAL_Init>
 80008fa:	f7ff ffa5 	bl	8000848 <SystemClock_Config>
 80008fe:	f7ff febd 	bl	800067c <MX_GPIO_Init>
 8000902:	f7ff fe9b 	bl	800063c <MX_DMA_Init>
 8000906:	f001 f995 	bl	8001c34 <MX_USART3_UART_Init>
 800090a:	f001 fa6f 	bl	8001dec <MX_USB_OTG_FS_PCD_Init>
 800090e:	f001 f973 	bl	8001bf8 <MX_USART2_UART_Init>
 8000912:	f000 fd77 	bl	8001404 <MX_TIM1_Init>
 8000916:	f000 fdab 	bl	8001470 <MX_TIM3_Init>
 800091a:	f000 fddd 	bl	80014d8 <MX_TIM4_Init>
 800091e:	f000 fe33 	bl	8001588 <MX_TIM8_Init>
 8000922:	f001 f8b3 	bl	8001a8c <MX_TIM2_Init>
 8000926:	f000 fe0b 	bl	8001540 <MX_TIM6_Init>
 800092a:	f001 f8f1 	bl	8001b10 <MX_TIM5_Init>
 800092e:	f001 f933 	bl	8001b98 <MX_TIM12_Init>
 8000932:	f000 fe5f 	bl	80015f4 <MX_TIM9_Init>
 8000936:	f04f 33ff 	mov.w	r3, #4294967295
 800093a:	2224      	movs	r2, #36	@ 0x24
 800093c:	4907      	ldr	r1, [pc, #28]	@ (800095c <main+0x68>)
 800093e:	4808      	ldr	r0, [pc, #32]	@ (8000960 <main+0x6c>)
 8000940:	f004 fa11 	bl	8004d66 <HAL_UART_Transmit>
 8000944:	f000 face 	bl	8000ee4 <Init_MotorSystem>
 8000948:	f000 fc3c 	bl	80011c4 <StartMultiThreads>
 800094c:	f001 fda0 	bl	8002490 <WifiApi_Init>
 8000950:	f001 fdf4 	bl	800253c <WifiApi_Process>
 8000954:	f000 fc5a 	bl	800120c <ProcessMultiThreads>
 8000958:	e7fa      	b.n	8000950 <main+0x5c>
 800095a:	bf00      	nop
 800095c:	08005e78 	.word	0x08005e78
 8000960:	20000494 	.word	0x20000494

08000964 <Error_Handler>:
 8000964:	b672      	cpsid	i
 8000966:	e7fe      	b.n	8000966 <Error_Handler+0x2>

08000968 <Set_PWM_Frequency>:
 8000968:	4602      	mov	r2, r0
 800096a:	b918      	cbnz	r0, 8000974 <Set_PWM_Frequency+0xc>
 800096c:	2104      	movs	r1, #4
 800096e:	4809      	ldr	r0, [pc, #36]	@ (8000994 <Set_PWM_Frequency+0x2c>)
 8000970:	f003 be88 	b.w	8004684 <HAL_TIM_PWM_Stop>
 8000974:	4807      	ldr	r0, [pc, #28]	@ (8000994 <Set_PWM_Frequency+0x2c>)
 8000976:	2104      	movs	r1, #4
 8000978:	6843      	ldr	r3, [r0, #4]
 800097a:	fb03 2202 	mla	r2, r3, r2, r2
 800097e:	4b06      	ldr	r3, [pc, #24]	@ (8000998 <Set_PWM_Frequency+0x30>)
 8000980:	fbb3 f3f2 	udiv	r3, r3, r2
 8000984:	6802      	ldr	r2, [r0, #0]
 8000986:	3b01      	subs	r3, #1
 8000988:	62d3      	str	r3, [r2, #44]	@ 0x2c
 800098a:	60c3      	str	r3, [r0, #12]
 800098c:	085b      	lsrs	r3, r3, #1
 800098e:	6393      	str	r3, [r2, #56]	@ 0x38
 8000990:	f003 be2a 	b.w	80045e8 <HAL_TIM_PWM_Start>
 8000994:	20000128 	.word	0x20000128
 8000998:	05b8d800 	.word	0x05b8d800

0800099c <Command_Engine>:
 800099c:	b570      	push	{r4, r5, r6, lr}
 800099e:	4d2e      	ldr	r5, [pc, #184]	@ (8000a58 <Command_Engine+0xbc>)
 80009a0:	682c      	ldr	r4, [r5, #0]
 80009a2:	bb6c      	cbnz	r4, 8000a00 <Command_Engine+0x64>
 80009a4:	213c      	movs	r1, #60	@ 0x3c
 80009a6:	482d      	ldr	r0, [pc, #180]	@ (8000a5c <Command_Engine+0xc0>)
 80009a8:	f003 f909 	bl	8003bbe <HAL_TIM_Encoder_Start>
 80009ac:	213c      	movs	r1, #60	@ 0x3c
 80009ae:	482c      	ldr	r0, [pc, #176]	@ (8000a60 <Command_Engine+0xc4>)
 80009b0:	f003 f905 	bl	8003bbe <HAL_TIM_Encoder_Start>
 80009b4:	213c      	movs	r1, #60	@ 0x3c
 80009b6:	482b      	ldr	r0, [pc, #172]	@ (8000a64 <Command_Engine+0xc8>)
 80009b8:	f003 f901 	bl	8003bbe <HAL_TIM_Encoder_Start>
 80009bc:	213c      	movs	r1, #60	@ 0x3c
 80009be:	482a      	ldr	r0, [pc, #168]	@ (8000a68 <Command_Engine+0xcc>)
 80009c0:	f003 f8fd 	bl	8003bbe <HAL_TIM_Encoder_Start>
 80009c4:	4621      	mov	r1, r4
 80009c6:	4829      	ldr	r0, [pc, #164]	@ (8000a6c <Command_Engine+0xd0>)
 80009c8:	f003 fe0e 	bl	80045e8 <HAL_TIM_PWM_Start>
 80009cc:	210c      	movs	r1, #12
 80009ce:	4827      	ldr	r0, [pc, #156]	@ (8000a6c <Command_Engine+0xd0>)
 80009d0:	f003 fe0a 	bl	80045e8 <HAL_TIM_PWM_Start>
 80009d4:	4621      	mov	r1, r4
 80009d6:	4826      	ldr	r0, [pc, #152]	@ (8000a70 <Command_Engine+0xd4>)
 80009d8:	f003 fe06 	bl	80045e8 <HAL_TIM_PWM_Start>
 80009dc:	210c      	movs	r1, #12
 80009de:	4824      	ldr	r0, [pc, #144]	@ (8000a70 <Command_Engine+0xd4>)
 80009e0:	f003 fe02 	bl	80045e8 <HAL_TIM_PWM_Start>
 80009e4:	4823      	ldr	r0, [pc, #140]	@ (8000a74 <Command_Engine+0xd8>)
 80009e6:	f003 f893 	bl	8003b10 <HAL_TIM_Base_Start_IT>
 80009ea:	2301      	movs	r3, #1
 80009ec:	602b      	str	r3, [r5, #0]
 80009ee:	2211      	movs	r2, #17
 80009f0:	f04f 33ff 	mov.w	r3, #4294967295
 80009f4:	4920      	ldr	r1, [pc, #128]	@ (8000a78 <Command_Engine+0xdc>)
 80009f6:	4821      	ldr	r0, [pc, #132]	@ (8000a7c <Command_Engine+0xe0>)
 80009f8:	e8bd 4070 	ldmia.w	sp!, {r4, r5, r6, lr}
 80009fc:	f004 b9b3 	b.w	8004d66 <HAL_UART_Transmit>
 8000a00:	481f      	ldr	r0, [pc, #124]	@ (8000a80 <Command_Engine+0xe4>)
 8000a02:	f000 f9ad 	bl	8000d60 <ResetMotor>
 8000a06:	481f      	ldr	r0, [pc, #124]	@ (8000a84 <Command_Engine+0xe8>)
 8000a08:	f000 f9aa 	bl	8000d60 <ResetMotor>
 8000a0c:	213c      	movs	r1, #60	@ 0x3c
 8000a0e:	4813      	ldr	r0, [pc, #76]	@ (8000a5c <Command_Engine+0xc0>)
 8000a10:	f003 f92e 	bl	8003c70 <HAL_TIM_Encoder_Stop>
 8000a14:	213c      	movs	r1, #60	@ 0x3c
 8000a16:	4812      	ldr	r0, [pc, #72]	@ (8000a60 <Command_Engine+0xc4>)
 8000a18:	f003 f92a 	bl	8003c70 <HAL_TIM_Encoder_Stop>
 8000a1c:	213c      	movs	r1, #60	@ 0x3c
 8000a1e:	4811      	ldr	r0, [pc, #68]	@ (8000a64 <Command_Engine+0xc8>)
 8000a20:	f003 f926 	bl	8003c70 <HAL_TIM_Encoder_Stop>
 8000a24:	213c      	movs	r1, #60	@ 0x3c
 8000a26:	4810      	ldr	r0, [pc, #64]	@ (8000a68 <Command_Engine+0xcc>)
 8000a28:	f003 f922 	bl	8003c70 <HAL_TIM_Encoder_Stop>
 8000a2c:	2100      	movs	r1, #0
 8000a2e:	480f      	ldr	r0, [pc, #60]	@ (8000a6c <Command_Engine+0xd0>)
 8000a30:	f003 fe28 	bl	8004684 <HAL_TIM_PWM_Stop>
 8000a34:	210c      	movs	r1, #12
 8000a36:	480d      	ldr	r0, [pc, #52]	@ (8000a6c <Command_Engine+0xd0>)
 8000a38:	f003 fe24 	bl	8004684 <HAL_TIM_PWM_Stop>
 8000a3c:	2100      	movs	r1, #0
 8000a3e:	480c      	ldr	r0, [pc, #48]	@ (8000a70 <Command_Engine+0xd4>)
 8000a40:	f003 fe20 	bl	8004684 <HAL_TIM_PWM_Stop>
 8000a44:	210c      	movs	r1, #12
 8000a46:	480a      	ldr	r0, [pc, #40]	@ (8000a70 <Command_Engine+0xd4>)
 8000a48:	f003 fe1c 	bl	8004684 <HAL_TIM_PWM_Stop>
 8000a4c:	4809      	ldr	r0, [pc, #36]	@ (8000a74 <Command_Engine+0xd8>)
 8000a4e:	f003 f89d 	bl	8003b8c <HAL_TIM_Base_Stop_IT>
 8000a52:	2300      	movs	r3, #0
 8000a54:	e7ca      	b.n	80009ec <Command_Engine+0x50>
 8000a56:	bf00      	nop
 8000a58:	2000007c 	.word	0x2000007c
 8000a5c:	20000388 	.word	0x20000388
 8000a60:	200002f0 	.word	0x200002f0
 8000a64:	200002a4 	.word	0x200002a4
 8000a68:	200001c0 	.word	0x200001c0
 8000a6c:	2000033c 	.word	0x2000033c
 8000a70:	20000258 	.word	0x20000258
 8000a74:	2000020c 	.word	0x2000020c
 8000a78:	08005e9d 	.word	0x08005e9d
 8000a7c:	20000494 	.word	0x20000494
 8000a80:	200000d4 	.word	0x200000d4
 8000a84:	20000098 	.word	0x20000098

08000a88 <Command_Lights>:
 8000a88:	2101      	movs	r1, #1
 8000a8a:	4806      	ldr	r0, [pc, #24]	@ (8000aa4 <Command_Lights+0x1c>)
 8000a8c:	b510      	push	{r4, lr}
 8000a8e:	f002 f8f4 	bl	8002c7a <HAL_GPIO_TogglePin>
 8000a92:	f04f 33ff 	mov.w	r3, #4294967295
 8000a96:	2211      	movs	r2, #17
 8000a98:	4903      	ldr	r1, [pc, #12]	@ (8000aa8 <Command_Lights+0x20>)
 8000a9a:	4804      	ldr	r0, [pc, #16]	@ (8000aac <Command_Lights+0x24>)
 8000a9c:	e8bd 4010 	ldmia.w	sp!, {r4, lr}
 8000aa0:	f004 b961 	b.w	8004d66 <HAL_UART_Transmit>
 8000aa4:	40021800 	.word	0x40021800
 8000aa8:	08005eaf 	.word	0x08005eaf
 8000aac:	20000494 	.word	0x20000494

08000ab0 <Command_Horn>:
 8000ab0:	b510      	push	{r4, lr}
 8000ab2:	4c0c      	ldr	r4, [pc, #48]	@ (8000ae4 <Command_Horn+0x34>)
 8000ab4:	6823      	ldr	r3, [r4, #0]
 8000ab6:	b973      	cbnz	r3, 8000ad6 <Command_Horn+0x26>
 8000ab8:	f44f 707a 	mov.w	r0, #1000	@ 0x3e8
 8000abc:	f7ff ff54 	bl	8000968 <Set_PWM_Frequency>
 8000ac0:	2301      	movs	r3, #1
 8000ac2:	6023      	str	r3, [r4, #0]
 8000ac4:	220f      	movs	r2, #15
 8000ac6:	f04f 33ff 	mov.w	r3, #4294967295
 8000aca:	4907      	ldr	r1, [pc, #28]	@ (8000ae8 <Command_Horn+0x38>)
 8000acc:	4807      	ldr	r0, [pc, #28]	@ (8000aec <Command_Horn+0x3c>)
 8000ace:	e8bd 4010 	ldmia.w	sp!, {r4, lr}
 8000ad2:	f004 b948 	b.w	8004d66 <HAL_UART_Transmit>
 8000ad6:	2104      	movs	r1, #4
 8000ad8:	4805      	ldr	r0, [pc, #20]	@ (8000af0 <Command_Horn+0x40>)
 8000ada:	f003 fdd3 	bl	8004684 <HAL_TIM_PWM_Stop>
 8000ade:	2300      	movs	r3, #0
 8000ae0:	e7ef      	b.n	8000ac2 <Command_Horn+0x12>
 8000ae2:	bf00      	nop
 8000ae4:	20000084 	.word	0x20000084
 8000ae8:	08005ec1 	.word	0x08005ec1
 8000aec:	20000494 	.word	0x20000494
 8000af0:	20000128 	.word	0x20000128

08000af4 <Command_ABS>:
 8000af4:	b510      	push	{r4, lr}
 8000af6:	4807      	ldr	r0, [pc, #28]	@ (8000b14 <Command_ABS+0x20>)
 8000af8:	f000 f932 	bl	8000d60 <ResetMotor>
 8000afc:	4806      	ldr	r0, [pc, #24]	@ (8000b18 <Command_ABS+0x24>)
 8000afe:	f000 f92f 	bl	8000d60 <ResetMotor>
 8000b02:	f04f 33ff 	mov.w	r3, #4294967295
 8000b06:	220e      	movs	r2, #14
 8000b08:	4904      	ldr	r1, [pc, #16]	@ (8000b1c <Command_ABS+0x28>)
 8000b0a:	4805      	ldr	r0, [pc, #20]	@ (8000b20 <Command_ABS+0x2c>)
 8000b0c:	e8bd 4010 	ldmia.w	sp!, {r4, lr}
 8000b10:	f004 b929 	b.w	8004d66 <HAL_UART_Transmit>
 8000b14:	200000d4 	.word	0x200000d4
 8000b18:	20000098 	.word	0x20000098
 8000b1c:	08005ed1 	.word	0x08005ed1
 8000b20:	20000494 	.word	0x20000494

08000b24 <Command_Motors>:
 8000b24:	3003      	adds	r0, #3
 8000b26:	b510      	push	{r4, lr}
 8000b28:	f004 fc06 	bl	8005338 <atoi>
 8000b2c:	1e43      	subs	r3, r0, #1
 8000b2e:	2b08      	cmp	r3, #8
 8000b30:	d87b      	bhi.n	8000c2a <Command_Motors+0x106>
 8000b32:	3802      	subs	r0, #2
 8000b34:	2807      	cmp	r0, #7
 8000b36:	d805      	bhi.n	8000b44 <Command_Motors+0x20>
 8000b38:	e8df f000 	tbb	[pc, r0]
 8000b3c:	392f2617 	.word	0x392f2617
 8000b40:	695f5047 	.word	0x695f5047
 8000b44:	f04f 33ff 	mov.w	r3, #4294967295
 8000b48:	2213      	movs	r2, #19
 8000b4a:	493c      	ldr	r1, [pc, #240]	@ (8000c3c <Command_Motors+0x118>)
 8000b4c:	483c      	ldr	r0, [pc, #240]	@ (8000c40 <Command_Motors+0x11c>)
 8000b4e:	f004 f90a 	bl	8004d66 <HAL_UART_Transmit>
 8000b52:	2200      	movs	r2, #0
 8000b54:	483b      	ldr	r0, [pc, #236]	@ (8000c44 <Command_Motors+0x120>)
 8000b56:	4611      	mov	r1, r2
 8000b58:	f000 f937 	bl	8000dca <motor_set_speed>
 8000b5c:	2200      	movs	r2, #0
 8000b5e:	4611      	mov	r1, r2
 8000b60:	4839      	ldr	r0, [pc, #228]	@ (8000c48 <Command_Motors+0x124>)
 8000b62:	e8bd 4010 	ldmia.w	sp!, {r4, lr}
 8000b66:	f000 b930 	b.w	8000dca <motor_set_speed>
 8000b6a:	2213      	movs	r2, #19
 8000b6c:	f04f 33ff 	mov.w	r3, #4294967295
 8000b70:	4936      	ldr	r1, [pc, #216]	@ (8000c4c <Command_Motors+0x128>)
 8000b72:	4833      	ldr	r0, [pc, #204]	@ (8000c40 <Command_Motors+0x11c>)
 8000b74:	f004 f8f7 	bl	8004d66 <HAL_UART_Transmit>
 8000b78:	225d      	movs	r2, #93	@ 0x5d
 8000b7a:	2101      	movs	r1, #1
 8000b7c:	4831      	ldr	r0, [pc, #196]	@ (8000c44 <Command_Motors+0x120>)
 8000b7e:	f000 f924 	bl	8000dca <motor_set_speed>
 8000b82:	2264      	movs	r2, #100	@ 0x64
 8000b84:	2101      	movs	r1, #1
 8000b86:	e7eb      	b.n	8000b60 <Command_Motors+0x3c>
 8000b88:	2213      	movs	r2, #19
 8000b8a:	f04f 33ff 	mov.w	r3, #4294967295
 8000b8e:	4930      	ldr	r1, [pc, #192]	@ (8000c50 <Command_Motors+0x12c>)
 8000b90:	482b      	ldr	r0, [pc, #172]	@ (8000c40 <Command_Motors+0x11c>)
 8000b92:	f004 f8e8 	bl	8004d66 <HAL_UART_Transmit>
 8000b96:	2232      	movs	r2, #50	@ 0x32
 8000b98:	e7ef      	b.n	8000b7a <Command_Motors+0x56>
 8000b9a:	2213      	movs	r2, #19
 8000b9c:	492d      	ldr	r1, [pc, #180]	@ (8000c54 <Command_Motors+0x130>)
 8000b9e:	f04f 33ff 	mov.w	r3, #4294967295
 8000ba2:	4827      	ldr	r0, [pc, #156]	@ (8000c40 <Command_Motors+0x11c>)
 8000ba4:	f004 f8df 	bl	8004d66 <HAL_UART_Transmit>
 8000ba8:	2264      	movs	r2, #100	@ 0x64
 8000baa:	2102      	movs	r1, #2
 8000bac:	e7e6      	b.n	8000b7c <Command_Motors+0x58>
 8000bae:	2213      	movs	r2, #19
 8000bb0:	f04f 33ff 	mov.w	r3, #4294967295
 8000bb4:	4928      	ldr	r1, [pc, #160]	@ (8000c58 <Command_Motors+0x134>)
 8000bb6:	4822      	ldr	r0, [pc, #136]	@ (8000c40 <Command_Motors+0x11c>)
 8000bb8:	f004 f8d5 	bl	8004d66 <HAL_UART_Transmit>
 8000bbc:	2232      	movs	r2, #50	@ 0x32
 8000bbe:	2102      	movs	r1, #2
 8000bc0:	4820      	ldr	r0, [pc, #128]	@ (8000c44 <Command_Motors+0x120>)
 8000bc2:	f000 f902 	bl	8000dca <motor_set_speed>
 8000bc6:	2264      	movs	r2, #100	@ 0x64
 8000bc8:	e015      	b.n	8000bf6 <Command_Motors+0xd2>
 8000bca:	2213      	movs	r2, #19
 8000bcc:	f04f 33ff 	mov.w	r3, #4294967295
 8000bd0:	4922      	ldr	r1, [pc, #136]	@ (8000c5c <Command_Motors+0x138>)
 8000bd2:	481b      	ldr	r0, [pc, #108]	@ (8000c40 <Command_Motors+0x11c>)
 8000bd4:	f004 f8c7 	bl	8004d66 <HAL_UART_Transmit>
 8000bd8:	2264      	movs	r2, #100	@ 0x64
 8000bda:	e7f0      	b.n	8000bbe <Command_Motors+0x9a>
 8000bdc:	f04f 33ff 	mov.w	r3, #4294967295
 8000be0:	2213      	movs	r2, #19
 8000be2:	491f      	ldr	r1, [pc, #124]	@ (8000c60 <Command_Motors+0x13c>)
 8000be4:	4816      	ldr	r0, [pc, #88]	@ (8000c40 <Command_Motors+0x11c>)
 8000be6:	f004 f8be 	bl	8004d66 <HAL_UART_Transmit>
 8000bea:	2264      	movs	r2, #100	@ 0x64
 8000bec:	2102      	movs	r1, #2
 8000bee:	4815      	ldr	r0, [pc, #84]	@ (8000c44 <Command_Motors+0x120>)
 8000bf0:	f000 f8eb 	bl	8000dca <motor_set_speed>
 8000bf4:	2232      	movs	r2, #50	@ 0x32
 8000bf6:	2102      	movs	r1, #2
 8000bf8:	e7b2      	b.n	8000b60 <Command_Motors+0x3c>
 8000bfa:	2213      	movs	r2, #19
 8000bfc:	4919      	ldr	r1, [pc, #100]	@ (8000c64 <Command_Motors+0x140>)
 8000bfe:	f04f 33ff 	mov.w	r3, #4294967295
 8000c02:	480f      	ldr	r0, [pc, #60]	@ (8000c40 <Command_Motors+0x11c>)
 8000c04:	f004 f8af 	bl	8004d66 <HAL_UART_Transmit>
 8000c08:	2264      	movs	r2, #100	@ 0x64
 8000c0a:	2101      	movs	r1, #1
 8000c0c:	e7d8      	b.n	8000bc0 <Command_Motors+0x9c>
 8000c0e:	f04f 33ff 	mov.w	r3, #4294967295
 8000c12:	2213      	movs	r2, #19
 8000c14:	4914      	ldr	r1, [pc, #80]	@ (8000c68 <Command_Motors+0x144>)
 8000c16:	480a      	ldr	r0, [pc, #40]	@ (8000c40 <Command_Motors+0x11c>)
 8000c18:	f004 f8a5 	bl	8004d66 <HAL_UART_Transmit>
 8000c1c:	2264      	movs	r2, #100	@ 0x64
 8000c1e:	2101      	movs	r1, #1
 8000c20:	4808      	ldr	r0, [pc, #32]	@ (8000c44 <Command_Motors+0x120>)
 8000c22:	f000 f8d2 	bl	8000dca <motor_set_speed>
 8000c26:	2232      	movs	r2, #50	@ 0x32
 8000c28:	e7ac      	b.n	8000b84 <Command_Motors+0x60>
 8000c2a:	f04f 33ff 	mov.w	r3, #4294967295
 8000c2e:	2216      	movs	r2, #22
 8000c30:	490e      	ldr	r1, [pc, #56]	@ (8000c6c <Command_Motors+0x148>)
 8000c32:	4803      	ldr	r0, [pc, #12]	@ (8000c40 <Command_Motors+0x11c>)
 8000c34:	e8bd 4010 	ldmia.w	sp!, {r4, lr}
 8000c38:	f004 b895 	b.w	8004d66 <HAL_UART_Transmit>
 8000c3c:	08005ee0 	.word	0x08005ee0
 8000c40:	20000494 	.word	0x20000494
 8000c44:	200000d4 	.word	0x200000d4
 8000c48:	20000098 	.word	0x20000098
 8000c4c:	08005ef3 	.word	0x08005ef3
 8000c50:	08005f06 	.word	0x08005f06
 8000c54:	08005f19 	.word	0x08005f19
 8000c58:	08005f2c 	.word	0x08005f2c
 8000c5c:	08005f3f 	.word	0x08005f3f
 8000c60:	08005f52 	.word	0x08005f52
 8000c64:	08005f65 	.word	0x08005f65
 8000c68:	08005f78 	.word	0x08005f78
 8000c6c:	08005f8b 	.word	0x08005f8b

08000c70 <ProcessCommand>:
 8000c70:	b510      	push	{r4, lr}
 8000c72:	491f      	ldr	r1, [pc, #124]	@ (8000cf0 <ProcessCommand+0x80>)
 8000c74:	4604      	mov	r4, r0
 8000c76:	f7ff fae3 	bl	8000240 <strcmp>
 8000c7a:	b3b8      	cbz	r0, 8000cec <ProcessCommand+0x7c>
 8000c7c:	491d      	ldr	r1, [pc, #116]	@ (8000cf4 <ProcessCommand+0x84>)
 8000c7e:	4620      	mov	r0, r4
 8000c80:	f7ff fade 	bl	8000240 <strcmp>
 8000c84:	b918      	cbnz	r0, 8000c8e <ProcessCommand+0x1e>
 8000c86:	e8bd 4010 	ldmia.w	sp!, {r4, lr}
 8000c8a:	f7ff be87 	b.w	800099c <Command_Engine>
 8000c8e:	491a      	ldr	r1, [pc, #104]	@ (8000cf8 <ProcessCommand+0x88>)
 8000c90:	4620      	mov	r0, r4
 8000c92:	f7ff fad5 	bl	8000240 <strcmp>
 8000c96:	b918      	cbnz	r0, 8000ca0 <ProcessCommand+0x30>
 8000c98:	e8bd 4010 	ldmia.w	sp!, {r4, lr}
 8000c9c:	f7ff bef4 	b.w	8000a88 <Command_Lights>
 8000ca0:	4916      	ldr	r1, [pc, #88]	@ (8000cfc <ProcessCommand+0x8c>)
 8000ca2:	4620      	mov	r0, r4
 8000ca4:	f7ff facc 	bl	8000240 <strcmp>
 8000ca8:	b918      	cbnz	r0, 8000cb2 <ProcessCommand+0x42>
 8000caa:	e8bd 4010 	ldmia.w	sp!, {r4, lr}
 8000cae:	f7ff beff 	b.w	8000ab0 <Command_Horn>
 8000cb2:	4913      	ldr	r1, [pc, #76]	@ (8000d00 <ProcessCommand+0x90>)
 8000cb4:	4620      	mov	r0, r4
 8000cb6:	f7ff fac3 	bl	8000240 <strcmp>
 8000cba:	b918      	cbnz	r0, 8000cc4 <ProcessCommand+0x54>
 8000cbc:	e8bd 4010 	ldmia.w	sp!, {r4, lr}
 8000cc0:	f7ff bf18 	b.w	8000af4 <Command_ABS>
 8000cc4:	2203      	movs	r2, #3
 8000cc6:	490f      	ldr	r1, [pc, #60]	@ (8000d04 <ProcessCommand+0x94>)
 8000cc8:	4620      	mov	r0, r4
 8000cca:	f004 fcf2 	bl	80056b2 <strncmp>
 8000cce:	b920      	cbnz	r0, 8000cda <ProcessCommand+0x6a>
 8000cd0:	4620      	mov	r0, r4
 8000cd2:	e8bd 4010 	ldmia.w	sp!, {r4, lr}
 8000cd6:	f7ff bf25 	b.w	8000b24 <Command_Motors>
 8000cda:	f04f 33ff 	mov.w	r3, #4294967295
 8000cde:	2212      	movs	r2, #18
 8000ce0:	4909      	ldr	r1, [pc, #36]	@ (8000d08 <ProcessCommand+0x98>)
 8000ce2:	480a      	ldr	r0, [pc, #40]	@ (8000d0c <ProcessCommand+0x9c>)
 8000ce4:	e8bd 4010 	ldmia.w	sp!, {r4, lr}
 8000ce8:	f004 b83d 	b.w	8004d66 <HAL_UART_Transmit>
 8000cec:	bd10      	pop	{r4, pc}
 8000cee:	bf00      	nop
 8000cf0:	08005fa1 	.word	0x08005fa1
 8000cf4:	08005fa6 	.word	0x08005fa6
 8000cf8:	08005fab 	.word	0x08005fab
 8000cfc:	08005fb0 	.word	0x08005fb0
 8000d00:	08005fb5 	.word	0x08005fb5
 8000d04:	08005fba 	.word	0x08005fba
 8000d08:	08005fbe 	.word	0x08005fbe
 8000d0c:	20000494 	.word	0x20000494

08000d10 <HAL_GPIO_EXTI_Callback>:
 8000d10:	f5b0 5f00 	cmp.w	r0, #8192	@ 0x2000
 8000d14:	b538      	push	{r3, r4, r5, lr}
 8000d16:	d11c      	bne.n	8000d52 <HAL_GPIO_EXTI_Callback+0x42>
 8000d18:	4d0e      	ldr	r5, [pc, #56]	@ (8000d54 <HAL_GPIO_EXTI_Callback+0x44>)
 8000d1a:	f001 fc9f 	bl	800265c <HAL_GetTick>
 8000d1e:	4604      	mov	r4, r0
 8000d20:	682b      	ldr	r3, [r5, #0]
 8000d22:	1ac3      	subs	r3, r0, r3
 8000d24:	f5b3 7ffa 	cmp.w	r3, #500	@ 0x1f4
 8000d28:	d913      	bls.n	8000d52 <HAL_GPIO_EXTI_Callback+0x42>
 8000d2a:	4a0b      	ldr	r2, [pc, #44]	@ (8000d58 <HAL_GPIO_EXTI_Callback+0x48>)
 8000d2c:	2101      	movs	r1, #1
 8000d2e:	480b      	ldr	r0, [pc, #44]	@ (8000d5c <HAL_GPIO_EXTI_Callback+0x4c>)
 8000d30:	6813      	ldr	r3, [r2, #0]
 8000d32:	fab3 f383 	clz	r3, r3
 8000d36:	095b      	lsrs	r3, r3, #5
 8000d38:	6013      	str	r3, [r2, #0]
 8000d3a:	f001 ff9e 	bl	8002c7a <HAL_GPIO_TogglePin>
 8000d3e:	2180      	movs	r1, #128	@ 0x80
 8000d40:	4806      	ldr	r0, [pc, #24]	@ (8000d5c <HAL_GPIO_EXTI_Callback+0x4c>)
 8000d42:	f001 ff9a 	bl	8002c7a <HAL_GPIO_TogglePin>
 8000d46:	f44f 4180 	mov.w	r1, #16384	@ 0x4000
 8000d4a:	4804      	ldr	r0, [pc, #16]	@ (8000d5c <HAL_GPIO_EXTI_Callback+0x4c>)
 8000d4c:	f001 ff95 	bl	8002c7a <HAL_GPIO_TogglePin>
 8000d50:	602c      	str	r4, [r5, #0]
 8000d52:	bd38      	pop	{r3, r4, r5, pc}
 8000d54:	20000078 	.word	0x20000078
 8000d58:	20000080 	.word	0x20000080
 8000d5c:	40020400 	.word	0x40020400

08000d60 <ResetMotor>:
 8000d60:	6802      	ldr	r2, [r0, #0]
 8000d62:	2300      	movs	r3, #0
 8000d64:	6811      	ldr	r1, [r2, #0]
 8000d66:	6a4a      	ldr	r2, [r1, #36]	@ 0x24
 8000d68:	b212      	sxth	r2, r2
 8000d6a:	b510      	push	{r4, lr}
 8000d6c:	6142      	str	r2, [r0, #20]
 8000d6e:	61c3      	str	r3, [r0, #28]
 8000d70:	68c2      	ldr	r2, [r0, #12]
 8000d72:	624b      	str	r3, [r1, #36]	@ 0x24
 8000d74:	6841      	ldr	r1, [r0, #4]
 8000d76:	2a08      	cmp	r2, #8
 8000d78:	680c      	ldr	r4, [r1, #0]
 8000d7a:	6881      	ldr	r1, [r0, #8]
 8000d7c:	6809      	ldr	r1, [r1, #0]
 8000d7e:	d014      	beq.n	8000daa <ResetMotor+0x4a>
 8000d80:	d806      	bhi.n	8000d90 <ResetMotor+0x30>
 8000d82:	b162      	cbz	r2, 8000d9e <ResetMotor+0x3e>
 8000d84:	2a04      	cmp	r2, #4
 8000d86:	d00d      	beq.n	8000da4 <ResetMotor+0x44>
 8000d88:	2300      	movs	r3, #0
 8000d8a:	65e3      	str	r3, [r4, #92]	@ 0x5c
 8000d8c:	65cb      	str	r3, [r1, #92]	@ 0x5c
 8000d8e:	e008      	b.n	8000da2 <ResetMotor+0x42>
 8000d90:	2a0c      	cmp	r2, #12
 8000d92:	d00d      	beq.n	8000db0 <ResetMotor+0x50>
 8000d94:	2a10      	cmp	r2, #16
 8000d96:	d1f7      	bne.n	8000d88 <ResetMotor+0x28>
 8000d98:	65a3      	str	r3, [r4, #88]	@ 0x58
 8000d9a:	658b      	str	r3, [r1, #88]	@ 0x58
 8000d9c:	e001      	b.n	8000da2 <ResetMotor+0x42>
 8000d9e:	6362      	str	r2, [r4, #52]	@ 0x34
 8000da0:	634a      	str	r2, [r1, #52]	@ 0x34
 8000da2:	bd10      	pop	{r4, pc}
 8000da4:	63a3      	str	r3, [r4, #56]	@ 0x38
 8000da6:	638b      	str	r3, [r1, #56]	@ 0x38
 8000da8:	e7fb      	b.n	8000da2 <ResetMotor+0x42>
 8000daa:	63e3      	str	r3, [r4, #60]	@ 0x3c
 8000dac:	63cb      	str	r3, [r1, #60]	@ 0x3c
 8000dae:	e7f8      	b.n	8000da2 <ResetMotor+0x42>
 8000db0:	6423      	str	r3, [r4, #64]	@ 0x40
 8000db2:	640b      	str	r3, [r1, #64]	@ 0x40
 8000db4:	e7f5      	b.n	8000da2 <ResetMotor+0x42>

08000db6 <motor_update_count>:
 8000db6:	6803      	ldr	r3, [r0, #0]
 8000db8:	6941      	ldr	r1, [r0, #20]
 8000dba:	681a      	ldr	r2, [r3, #0]
 8000dbc:	6a53      	ldr	r3, [r2, #36]	@ 0x24
 8000dbe:	fa01 f383 	sxtah	r3, r1, r3
 8000dc2:	6143      	str	r3, [r0, #20]
 8000dc4:	2300      	movs	r3, #0
 8000dc6:	6253      	str	r3, [r2, #36]	@ 0x24
 8000dc8:	4770      	bx	lr

08000dca <motor_set_speed>:
 8000dca:	8201      	strh	r1, [r0, #16]
 8000dcc:	61c2      	str	r2, [r0, #28]
 8000dce:	4770      	bx	lr

08000dd0 <SetMotorSpeed>:
 8000dd0:	f9b0 3010 	ldrsh.w	r3, [r0, #16]
 8000dd4:	2b01      	cmp	r3, #1
 8000dd6:	b510      	push	{r4, lr}
 8000dd8:	d024      	beq.n	8000e24 <SetMotorSpeed+0x54>
 8000dda:	2b02      	cmp	r3, #2
 8000ddc:	d036      	beq.n	8000e4c <SetMotorSpeed+0x7c>
 8000dde:	b9bb      	cbnz	r3, 8000e10 <SetMotorSpeed+0x40>
 8000de0:	6841      	ldr	r1, [r0, #4]
 8000de2:	68c2      	ldr	r2, [r0, #12]
 8000de4:	680c      	ldr	r4, [r1, #0]
 8000de6:	2a08      	cmp	r2, #8
 8000de8:	6881      	ldr	r1, [r0, #8]
 8000dea:	6809      	ldr	r1, [r1, #0]
 8000dec:	d014      	beq.n	8000e18 <SetMotorSpeed+0x48>
 8000dee:	d806      	bhi.n	8000dfe <SetMotorSpeed+0x2e>
 8000df0:	b162      	cbz	r2, 8000e0c <SetMotorSpeed+0x3c>
 8000df2:	2a04      	cmp	r2, #4
 8000df4:	d00d      	beq.n	8000e12 <SetMotorSpeed+0x42>
 8000df6:	2300      	movs	r3, #0
 8000df8:	65e3      	str	r3, [r4, #92]	@ 0x5c
 8000dfa:	65cb      	str	r3, [r1, #92]	@ 0x5c
 8000dfc:	e008      	b.n	8000e10 <SetMotorSpeed+0x40>
 8000dfe:	2a0c      	cmp	r2, #12
 8000e00:	d00d      	beq.n	8000e1e <SetMotorSpeed+0x4e>
 8000e02:	2a10      	cmp	r2, #16
 8000e04:	d1f7      	bne.n	8000df6 <SetMotorSpeed+0x26>
 8000e06:	65a3      	str	r3, [r4, #88]	@ 0x58
 8000e08:	658b      	str	r3, [r1, #88]	@ 0x58
 8000e0a:	e001      	b.n	8000e10 <SetMotorSpeed+0x40>
 8000e0c:	6362      	str	r2, [r4, #52]	@ 0x34
 8000e0e:	634a      	str	r2, [r1, #52]	@ 0x34
 8000e10:	bd10      	pop	{r4, pc}
 8000e12:	63a3      	str	r3, [r4, #56]	@ 0x38
 8000e14:	638b      	str	r3, [r1, #56]	@ 0x38
 8000e16:	e7fb      	b.n	8000e10 <SetMotorSpeed+0x40>
 8000e18:	63e3      	str	r3, [r4, #60]	@ 0x3c
 8000e1a:	63cb      	str	r3, [r1, #60]	@ 0x3c
 8000e1c:	e7f8      	b.n	8000e10 <SetMotorSpeed+0x40>
 8000e1e:	6423      	str	r3, [r4, #64]	@ 0x40
 8000e20:	640b      	str	r3, [r1, #64]	@ 0x40
 8000e22:	e7f5      	b.n	8000e10 <SetMotorSpeed+0x40>
 8000e24:	6883      	ldr	r3, [r0, #8]
 8000e26:	681b      	ldr	r3, [r3, #0]
 8000e28:	6ada      	ldr	r2, [r3, #44]	@ 0x2c
 8000e2a:	4291      	cmp	r1, r2
 8000e2c:	d301      	bcc.n	8000e32 <SetMotorSpeed+0x62>
 8000e2e:	6ad9      	ldr	r1, [r3, #44]	@ 0x2c
 8000e30:	b289      	uxth	r1, r1
 8000e32:	68c4      	ldr	r4, [r0, #12]
 8000e34:	6842      	ldr	r2, [r0, #4]
 8000e36:	2c08      	cmp	r4, #8
 8000e38:	6812      	ldr	r2, [r2, #0]
 8000e3a:	d021      	beq.n	8000e80 <SetMotorSpeed+0xb0>
 8000e3c:	d810      	bhi.n	8000e60 <SetMotorSpeed+0x90>
 8000e3e:	b1c4      	cbz	r4, 8000e72 <SetMotorSpeed+0xa2>
 8000e40:	2c04      	cmp	r4, #4
 8000e42:	d019      	beq.n	8000e78 <SetMotorSpeed+0xa8>
 8000e44:	65d9      	str	r1, [r3, #92]	@ 0x5c
 8000e46:	2300      	movs	r3, #0
 8000e48:	65d3      	str	r3, [r2, #92]	@ 0x5c
 8000e4a:	e7e1      	b.n	8000e10 <SetMotorSpeed+0x40>
 8000e4c:	6843      	ldr	r3, [r0, #4]
 8000e4e:	681b      	ldr	r3, [r3, #0]
 8000e50:	6ada      	ldr	r2, [r3, #44]	@ 0x2c
 8000e52:	4291      	cmp	r1, r2
 8000e54:	d301      	bcc.n	8000e5a <SetMotorSpeed+0x8a>
 8000e56:	6ad9      	ldr	r1, [r3, #44]	@ 0x2c
 8000e58:	b289      	uxth	r1, r1
 8000e5a:	e9d0 2402 	ldrd	r2, r4, [r0, #8]
 8000e5e:	e7ea      	b.n	8000e36 <SetMotorSpeed+0x66>
 8000e60:	2c0c      	cmp	r4, #12
 8000e62:	f04f 0000 	mov.w	r0, #0
 8000e66:	d00f      	beq.n	8000e88 <SetMotorSpeed+0xb8>
 8000e68:	2c10      	cmp	r4, #16
 8000e6a:	d1eb      	bne.n	8000e44 <SetMotorSpeed+0x74>
 8000e6c:	6599      	str	r1, [r3, #88]	@ 0x58
 8000e6e:	6590      	str	r0, [r2, #88]	@ 0x58
 8000e70:	e7ce      	b.n	8000e10 <SetMotorSpeed+0x40>
 8000e72:	6359      	str	r1, [r3, #52]	@ 0x34
 8000e74:	6354      	str	r4, [r2, #52]	@ 0x34
 8000e76:	e7cb      	b.n	8000e10 <SetMotorSpeed+0x40>
 8000e78:	6399      	str	r1, [r3, #56]	@ 0x38
 8000e7a:	2300      	movs	r3, #0
 8000e7c:	6393      	str	r3, [r2, #56]	@ 0x38
 8000e7e:	e7c7      	b.n	8000e10 <SetMotorSpeed+0x40>
 8000e80:	63d9      	str	r1, [r3, #60]	@ 0x3c
 8000e82:	2300      	movs	r3, #0
 8000e84:	63d3      	str	r3, [r2, #60]	@ 0x3c
 8000e86:	e7c3      	b.n	8000e10 <SetMotorSpeed+0x40>
 8000e88:	6419      	str	r1, [r3, #64]	@ 0x40
 8000e8a:	6410      	str	r0, [r2, #64]	@ 0x40
 8000e8c:	e7c0      	b.n	8000e10 <SetMotorSpeed+0x40>
	...

08000e90 <motor_calculate_speed>:
 8000e90:	b510      	push	{r4, lr}
 8000e92:	f7ff ff90 	bl	8000db6 <motor_update_count>
 8000e96:	8a42      	ldrh	r2, [r0, #18]
 8000e98:	6943      	ldr	r3, [r0, #20]
 8000e9a:	eeb0 7a08 	vmov.f32	s14, #8	@ 0x40400000  3.0
 8000e9e:	4604      	mov	r4, r0
 8000ea0:	3024      	adds	r0, #36	@ 0x24
 8000ea2:	fb93 f3f2 	sdiv	r3, r3, r2
 8000ea6:	ee07 3a90 	vmov	s15, r3
 8000eaa:	eef8 7ae7 	vcvt.f32.s32	s15, s15
 8000eae:	ee67 7a87 	vmul.f32	s15, s15, s14
 8000eb2:	ed9f 7a0b 	vldr	s14, [pc, #44]	@ 8000ee0 <motor_calculate_speed+0x50>
 8000eb6:	eec7 0a87 	vdiv.f32	s1, s15, s14
 8000eba:	ed50 7a02 	vldr	s15, [r0, #-8]
 8000ebe:	eeb8 0ae7 	vcvt.f32.s32	s0, s15
 8000ec2:	eefd 0ae0 	vcvt.s32.f32	s1, s1
 8000ec6:	ed40 0a03 	vstr	s1, [r0, #-12]
 8000eca:	eef8 0ae0 	vcvt.f32.s32	s1, s1
 8000ece:	f000 f88b 	bl	8000fe8 <pid_update>
 8000ed2:	b281      	uxth	r1, r0
 8000ed4:	4620      	mov	r0, r4
 8000ed6:	f7ff ff7b 	bl	8000dd0 <SetMotorSpeed>
 8000eda:	2300      	movs	r3, #0
 8000edc:	6163      	str	r3, [r4, #20]
 8000ede:	bd10      	pop	{r4, pc}
 8000ee0:	42480000 	.word	0x42480000

08000ee4 <Init_MotorSystem>:
 8000ee4:	b538      	push	{r3, r4, r5, lr}
 8000ee6:	4d1d      	ldr	r5, [pc, #116]	@ (8000f5c <Init_MotorSystem+0x78>)
 8000ee8:	2000      	movs	r0, #0
 8000eea:	4b1d      	ldr	r3, [pc, #116]	@ (8000f60 <Init_MotorSystem+0x7c>)
 8000eec:	eef7 1a00 	vmov.f32	s3, #112	@ 0x3f800000  1.0
 8000ef0:	4c1c      	ldr	r4, [pc, #112]	@ (8000f64 <Init_MotorSystem+0x80>)
 8000ef2:	eeb0 0a08 	vmov.f32	s0, #8	@ 0x40400000  3.0
 8000ef6:	4a1c      	ldr	r2, [pc, #112]	@ (8000f68 <Init_MotorSystem+0x84>)
 8000ef8:	491c      	ldr	r1, [pc, #112]	@ (8000f6c <Init_MotorSystem+0x88>)
 8000efa:	ed2d 8b02 	vpush	{d8}
 8000efe:	602b      	str	r3, [r5, #0]
 8000f00:	f44f 3340 	mov.w	r3, #196608	@ 0x30000
 8000f04:	ed9f 8a1a 	vldr	s16, [pc, #104]	@ 8000f70 <Init_MotorSystem+0x8c>
 8000f08:	60aa      	str	r2, [r5, #8]
 8000f0a:	60a2      	str	r2, [r4, #8]
 8000f0c:	220c      	movs	r2, #12
 8000f0e:	eeb0 1a48 	vmov.f32	s2, s16
 8000f12:	6069      	str	r1, [r5, #4]
 8000f14:	eef0 0a48 	vmov.f32	s1, s16
 8000f18:	e9c5 0303 	strd	r0, r3, [r5, #12]
 8000f1c:	4815      	ldr	r0, [pc, #84]	@ (8000f74 <Init_MotorSystem+0x90>)
 8000f1e:	e9c4 0100 	strd	r0, r1, [r4]
 8000f22:	f105 0024 	add.w	r0, r5, #36	@ 0x24
 8000f26:	e9c4 2303 	strd	r2, r3, [r4, #12]
 8000f2a:	f000 f851 	bl	8000fd0 <pid_init>
 8000f2e:	f104 0024 	add.w	r0, r4, #36	@ 0x24
 8000f32:	eeb0 1a48 	vmov.f32	s2, s16
 8000f36:	eef0 0a48 	vmov.f32	s1, s16
 8000f3a:	eef7 1a00 	vmov.f32	s3, #112	@ 0x3f800000  1.0
 8000f3e:	eeb0 0a08 	vmov.f32	s0, #8	@ 0x40400000  3.0
 8000f42:	f000 f845 	bl	8000fd0 <pid_init>
 8000f46:	4628      	mov	r0, r5
 8000f48:	f7ff ff0a 	bl	8000d60 <ResetMotor>
 8000f4c:	4620      	mov	r0, r4
 8000f4e:	ecbd 8b02 	vpop	{d8}
 8000f52:	e8bd 4038 	ldmia.w	sp!, {r3, r4, r5, lr}
 8000f56:	f7ff bf03 	b.w	8000d60 <ResetMotor>
 8000f5a:	bf00      	nop
 8000f5c:	200000d4 	.word	0x200000d4
 8000f60:	200001c0 	.word	0x200001c0
 8000f64:	20000098 	.word	0x20000098
 8000f68:	2000033c 	.word	0x2000033c
 8000f6c:	20000258 	.word	0x20000258
 8000f70:	3d4ccccd 	.word	0x3d4ccccd
 8000f74:	200002f0 	.word	0x200002f0

08000f78 <HAL_TIM_PeriodElapsedCallback>:
 8000f78:	6802      	ldr	r2, [r0, #0]
 8000f7a:	4b11      	ldr	r3, [pc, #68]	@ (8000fc0 <HAL_TIM_PeriodElapsedCallback+0x48>)
 8000f7c:	429a      	cmp	r2, r3
 8000f7e:	b510      	push	{r4, lr}
 8000f80:	d11c      	bne.n	8000fbc <HAL_TIM_PeriodElapsedCallback+0x44>
 8000f82:	4810      	ldr	r0, [pc, #64]	@ (8000fc4 <HAL_TIM_PeriodElapsedCallback+0x4c>)
 8000f84:	f9b0 3010 	ldrsh.w	r3, [r0, #16]
 8000f88:	2b02      	cmp	r3, #2
 8000f8a:	d10f      	bne.n	8000fac <HAL_TIM_PeriodElapsedCallback+0x34>
 8000f8c:	4c0e      	ldr	r4, [pc, #56]	@ (8000fc8 <HAL_TIM_PeriodElapsedCallback+0x50>)
 8000f8e:	f9b4 3010 	ldrsh.w	r3, [r4, #16]
 8000f92:	2b02      	cmp	r3, #2
 8000f94:	d10a      	bne.n	8000fac <HAL_TIM_PeriodElapsedCallback+0x34>
 8000f96:	4b0d      	ldr	r3, [pc, #52]	@ (8000fcc <HAL_TIM_PeriodElapsedCallback+0x54>)
 8000f98:	681b      	ldr	r3, [r3, #0]
 8000f9a:	2b0a      	cmp	r3, #10
 8000f9c:	d806      	bhi.n	8000fac <HAL_TIM_PeriodElapsedCallback+0x34>
 8000f9e:	f7ff fedf 	bl	8000d60 <ResetMotor>
 8000fa2:	4620      	mov	r0, r4
 8000fa4:	e8bd 4010 	ldmia.w	sp!, {r4, lr}
 8000fa8:	f7ff beda 	b.w	8000d60 <ResetMotor>
 8000fac:	4805      	ldr	r0, [pc, #20]	@ (8000fc4 <HAL_TIM_PeriodElapsedCallback+0x4c>)
 8000fae:	f7ff ff6f 	bl	8000e90 <motor_calculate_speed>
 8000fb2:	4805      	ldr	r0, [pc, #20]	@ (8000fc8 <HAL_TIM_PeriodElapsedCallback+0x50>)
 8000fb4:	e8bd 4010 	ldmia.w	sp!, {r4, lr}
 8000fb8:	f7ff bf6a 	b.w	8000e90 <motor_calculate_speed>
 8000fbc:	bd10      	pop	{r4, pc}
 8000fbe:	bf00      	nop
 8000fc0:	40001000 	.word	0x40001000
 8000fc4:	200000d4 	.word	0x200000d4
 8000fc8:	20000098 	.word	0x20000098
 8000fcc:	20000088 	.word	0x20000088

08000fd0 <pid_init>:
 8000fd0:	2300      	movs	r3, #0
 8000fd2:	ed80 0a00 	vstr	s0, [r0]
 8000fd6:	edc0 0a01 	vstr	s1, [r0, #4]
 8000fda:	ed80 1a02 	vstr	s2, [r0, #8]
 8000fde:	edc0 1a03 	vstr	s3, [r0, #12]
 8000fe2:	6103      	str	r3, [r0, #16]
 8000fe4:	6143      	str	r3, [r0, #20]
 8000fe6:	4770      	bx	lr

08000fe8 <pid_update>:
 8000fe8:	ee30 0a60 	vsub.f32	s0, s0, s1
 8000fec:	edd0 7a04 	vldr	s15, [r0, #16]
 8000ff0:	ed90 7a03 	vldr	s14, [r0, #12]
 8000ff4:	edd0 6a01 	vldr	s13, [r0, #4]
 8000ff8:	ee70 7a27 	vadd.f32	s15, s0, s15
 8000ffc:	eef4 7a47 	vcmp.f32	s15, s14
 8001000:	eef1 fa10 	vmrs	APSR_nzcv, fpscr
 8001004:	fe77 7a27 	vselgt.f32	s15, s14, s15
 8001008:	eeb1 7a47 	vneg.f32	s14, s14
 800100c:	eeb4 7a67 	vcmp.f32	s14, s15
 8001010:	eef1 fa10 	vmrs	APSR_nzcv, fpscr
 8001014:	fe77 7a27 	vselgt.f32	s15, s14, s15
 8001018:	edc0 7a04 	vstr	s15, [r0, #16]
 800101c:	ee67 7aa6 	vmul.f32	s15, s15, s13
 8001020:	edd0 6a00 	vldr	s13, [r0]
 8001024:	ed90 7a05 	vldr	s14, [r0, #20]
 8001028:	ed80 0a05 	vstr	s0, [r0, #20]
 800102c:	eee6 7a80 	vfma.f32	s15, s13, s0
 8001030:	edd0 6a02 	vldr	s13, [r0, #8]
 8001034:	ee30 7a47 	vsub.f32	s14, s0, s14
 8001038:	eee6 7a87 	vfma.f32	s15, s13, s14
 800103c:	eef5 7ac0 	vcmpe.f32	s15, #0.0
 8001040:	eef1 fa10 	vmrs	APSR_nzcv, fpscr
 8001044:	bf48      	it	mi
 8001046:	eddf 7a03 	vldrmi	s15, [pc, #12]	@ 8001054 <pid_update+0x6c>
 800104a:	eefd 7ae7 	vcvt.s32.f32	s15, s15
 800104e:	ee17 0a90 	vmov	r0, s15
 8001052:	4770      	bx	lr
 8001054:	00000000 	.word	0x00000000

08001058 <HAL_MspInit>:
 8001058:	4b0a      	ldr	r3, [pc, #40]	@ (8001084 <HAL_MspInit+0x2c>)
 800105a:	b082      	sub	sp, #8
 800105c:	6c1a      	ldr	r2, [r3, #64]	@ 0x40
 800105e:	f042 5280 	orr.w	r2, r2, #268435456	@ 0x10000000
 8001062:	641a      	str	r2, [r3, #64]	@ 0x40
 8001064:	6c1a      	ldr	r2, [r3, #64]	@ 0x40
 8001066:	f002 5280 	and.w	r2, r2, #268435456	@ 0x10000000
 800106a:	9200      	str	r2, [sp, #0]
 800106c:	9a00      	ldr	r2, [sp, #0]
 800106e:	6c5a      	ldr	r2, [r3, #68]	@ 0x44
 8001070:	f442 4280 	orr.w	r2, r2, #16384	@ 0x4000
 8001074:	645a      	str	r2, [r3, #68]	@ 0x44
 8001076:	6c5b      	ldr	r3, [r3, #68]	@ 0x44
 8001078:	f403 4380 	and.w	r3, r3, #16384	@ 0x4000
 800107c:	9301      	str	r3, [sp, #4]
 800107e:	9b01      	ldr	r3, [sp, #4]
 8001080:	b002      	add	sp, #8
 8001082:	4770      	bx	lr
 8001084:	40023800 	.word	0x40023800

08001088 <NMI_Handler>:
 8001088:	e7fe      	b.n	8001088 <NMI_Handler>

0800108a <HardFault_Handler>:
 800108a:	e7fe      	b.n	800108a <HardFault_Handler>

0800108c <MemManage_Handler>:
 800108c:	e7fe      	b.n	800108c <MemManage_Handler>

0800108e <BusFault_Handler>:
 800108e:	e7fe      	b.n	800108e <BusFault_Handler>

08001090 <UsageFault_Handler>:
 8001090:	e7fe      	b.n	8001090 <UsageFault_Handler>

08001092 <SVC_Handler>:
 8001092:	4770      	bx	lr

08001094 <DebugMon_Handler>:
 8001094:	4770      	bx	lr

08001096 <PendSV_Handler>:
 8001096:	4770      	bx	lr

08001098 <SysTick_Handler>:
 8001098:	f001 bad4 	b.w	8002644 <HAL_IncTick>

0800109c <DMA1_Stream5_IRQHandler>:
 800109c:	4801      	ldr	r0, [pc, #4]	@ (80010a4 <DMA1_Stream5_IRQHandler+0x8>)
 800109e:	f001 bc3f 	b.w	8002920 <HAL_DMA_IRQHandler>
 80010a2:	bf00      	nop
 80010a4:	20000434 	.word	0x20000434

080010a8 <DMA1_Stream6_IRQHandler>:
 80010a8:	4801      	ldr	r0, [pc, #4]	@ (80010b0 <DMA1_Stream6_IRQHandler+0x8>)
 80010aa:	f001 bc39 	b.w	8002920 <HAL_DMA_IRQHandler>
 80010ae:	bf00      	nop
 80010b0:	200003d4 	.word	0x200003d4

080010b4 <TIM1_BRK_TIM9_IRQHandler>:
 80010b4:	4804      	ldr	r0, [pc, #16]	@ (80010c8 <TIM1_BRK_TIM9_IRQHandler+0x14>)
 80010b6:	b508      	push	{r3, lr}
 80010b8:	f002 fe17 	bl	8003cea <HAL_TIM_IRQHandler>
 80010bc:	4803      	ldr	r0, [pc, #12]	@ (80010cc <TIM1_BRK_TIM9_IRQHandler+0x18>)
 80010be:	e8bd 4008 	ldmia.w	sp!, {r3, lr}
 80010c2:	f002 be12 	b.w	8003cea <HAL_TIM_IRQHandler>
 80010c6:	bf00      	nop
 80010c8:	20000388 	.word	0x20000388
 80010cc:	20000174 	.word	0x20000174

080010d0 <TIM1_UP_TIM10_IRQHandler>:
 80010d0:	4801      	ldr	r0, [pc, #4]	@ (80010d8 <TIM1_UP_TIM10_IRQHandler+0x8>)
 80010d2:	f002 be0a 	b.w	8003cea <HAL_TIM_IRQHandler>
 80010d6:	bf00      	nop
 80010d8:	20000388 	.word	0x20000388

080010dc <TIM1_TRG_COM_TIM11_IRQHandler>:
 80010dc:	f7ff bff8 	b.w	80010d0 <TIM1_UP_TIM10_IRQHandler>

080010e0 <TIM1_CC_IRQHandler>:
 80010e0:	f7ff bff6 	b.w	80010d0 <TIM1_UP_TIM10_IRQHandler>

080010e4 <TIM2_IRQHandler>:
 80010e4:	4801      	ldr	r0, [pc, #4]	@ (80010ec <TIM2_IRQHandler+0x8>)
 80010e6:	f002 be00 	b.w	8003cea <HAL_TIM_IRQHandler>
 80010ea:	bf00      	nop
 80010ec:	2000033c 	.word	0x2000033c

080010f0 <TIM3_IRQHandler>:
 80010f0:	4801      	ldr	r0, [pc, #4]	@ (80010f8 <TIM3_IRQHandler+0x8>)
 80010f2:	f002 bdfa 	b.w	8003cea <HAL_TIM_IRQHandler>
 80010f6:	bf00      	nop
 80010f8:	200002f0 	.word	0x200002f0

080010fc <TIM4_IRQHandler>:
 80010fc:	4801      	ldr	r0, [pc, #4]	@ (8001104 <TIM4_IRQHandler+0x8>)
 80010fe:	f002 bdf4 	b.w	8003cea <HAL_TIM_IRQHandler>
 8001102:	bf00      	nop
 8001104:	200002a4 	.word	0x200002a4

08001108 <USART2_IRQHandler>:
 8001108:	4801      	ldr	r0, [pc, #4]	@ (8001110 <USART2_IRQHandler+0x8>)
 800110a:	f003 bb41 	b.w	8004790 <HAL_UART_IRQHandler>
 800110e:	bf00      	nop
 8001110:	2000051c 	.word	0x2000051c

08001114 <USART3_IRQHandler>:
 8001114:	4801      	ldr	r0, [pc, #4]	@ (800111c <USART3_IRQHandler+0x8>)
 8001116:	f003 bb3b 	b.w	8004790 <HAL_UART_IRQHandler>
 800111a:	bf00      	nop
 800111c:	20000494 	.word	0x20000494

08001120 <EXTI15_10_IRQHandler>:
 8001120:	f44f 5000 	mov.w	r0, #8192	@ 0x2000
 8001124:	f001 bdb2 	b.w	8002c8c <HAL_GPIO_EXTI_IRQHandler>

08001128 <TIM8_BRK_TIM12_IRQHandler>:
 8001128:	4804      	ldr	r0, [pc, #16]	@ (800113c <TIM8_BRK_TIM12_IRQHandler+0x14>)
 800112a:	b508      	push	{r3, lr}
 800112c:	f002 fddd 	bl	8003cea <HAL_TIM_IRQHandler>
 8001130:	4803      	ldr	r0, [pc, #12]	@ (8001140 <TIM8_BRK_TIM12_IRQHandler+0x18>)
 8001132:	e8bd 4008 	ldmia.w	sp!, {r3, lr}
 8001136:	f002 bdd8 	b.w	8003cea <HAL_TIM_IRQHandler>
 800113a:	bf00      	nop
 800113c:	200001c0 	.word	0x200001c0
 8001140:	20000128 	.word	0x20000128

08001144 <TIM8_UP_TIM13_IRQHandler>:
 8001144:	4801      	ldr	r0, [pc, #4]	@ (800114c <TIM8_UP_TIM13_IRQHandler+0x8>)
 8001146:	f002 bdd0 	b.w	8003cea <HAL_TIM_IRQHandler>
 800114a:	bf00      	nop
 800114c:	200001c0 	.word	0x200001c0

08001150 <TIM8_TRG_COM_TIM14_IRQHandler>:
 8001150:	f7ff bff8 	b.w	8001144 <TIM8_UP_TIM13_IRQHandler>

08001154 <TIM8_CC_IRQHandler>:
 8001154:	f7ff bff6 	b.w	8001144 <TIM8_UP_TIM13_IRQHandler>

08001158 <TIM5_IRQHandler>:
 8001158:	4801      	ldr	r0, [pc, #4]	@ (8001160 <TIM5_IRQHandler+0x8>)
 800115a:	f002 bdc6 	b.w	8003cea <HAL_TIM_IRQHandler>
 800115e:	bf00      	nop
 8001160:	20000258 	.word	0x20000258

08001164 <TIM6_DAC_IRQHandler>:
 8001164:	4801      	ldr	r0, [pc, #4]	@ (800116c <TIM6_DAC_IRQHandler+0x8>)
 8001166:	f002 bdc0 	b.w	8003cea <HAL_TIM_IRQHandler>
 800116a:	bf00      	nop
 800116c:	2000020c 	.word	0x2000020c

08001170 <_sbrk>:
 8001170:	4a0b      	ldr	r2, [pc, #44]	@ (80011a0 <_sbrk+0x30>)
 8001172:	4603      	mov	r3, r0
 8001174:	6811      	ldr	r1, [r2, #0]
 8001176:	b510      	push	{r4, lr}
 8001178:	b909      	cbnz	r1, 800117e <_sbrk+0xe>
 800117a:	490a      	ldr	r1, [pc, #40]	@ (80011a4 <_sbrk+0x34>)
 800117c:	6011      	str	r1, [r2, #0]
 800117e:	6810      	ldr	r0, [r2, #0]
 8001180:	4909      	ldr	r1, [pc, #36]	@ (80011a8 <_sbrk+0x38>)
 8001182:	4c0a      	ldr	r4, [pc, #40]	@ (80011ac <_sbrk+0x3c>)
 8001184:	4403      	add	r3, r0
 8001186:	1b09      	subs	r1, r1, r4
 8001188:	428b      	cmp	r3, r1
 800118a:	d906      	bls.n	800119a <_sbrk+0x2a>
 800118c:	f004 faca 	bl	8005724 <__errno>
 8001190:	230c      	movs	r3, #12
 8001192:	6003      	str	r3, [r0, #0]
 8001194:	f04f 30ff 	mov.w	r0, #4294967295
 8001198:	bd10      	pop	{r4, pc}
 800119a:	6013      	str	r3, [r2, #0]
 800119c:	e7fc      	b.n	8001198 <_sbrk+0x28>
 800119e:	bf00      	nop
 80011a0:	20000110 	.word	0x20000110
 80011a4:	20002b78 	.word	0x20002b78
 80011a8:	20080000 	.word	0x20080000
 80011ac:	00000400 	.word	0x00000400

080011b0 <SystemInit>:
 80011b0:	4a03      	ldr	r2, [pc, #12]	@ (80011c0 <SystemInit+0x10>)
 80011b2:	f8d2 3088 	ldr.w	r3, [r2, #136]	@ 0x88
 80011b6:	f443 0370 	orr.w	r3, r3, #15728640	@ 0xf00000
 80011ba:	f8c2 3088 	str.w	r3, [r2, #136]	@ 0x88
 80011be:	4770      	bx	lr
 80011c0:	e000ed00 	.word	0xe000ed00

080011c4 <StartMultiThreads>:
 80011c4:	b508      	push	{r3, lr}
 80011c6:	480b      	ldr	r0, [pc, #44]	@ (80011f4 <StartMultiThreads+0x30>)
 80011c8:	f002 fc68 	bl	8003a9c <HAL_TIM_Base_Start>
 80011cc:	2200      	movs	r2, #0
 80011ce:	2140      	movs	r1, #64	@ 0x40
 80011d0:	4809      	ldr	r0, [pc, #36]	@ (80011f8 <StartMultiThreads+0x34>)
 80011d2:	f001 fd4d 	bl	8002c70 <HAL_GPIO_WritePin>
 80011d6:	f001 fa41 	bl	800265c <HAL_GetTick>
 80011da:	4b08      	ldr	r3, [pc, #32]	@ (80011fc <StartMultiThreads+0x38>)
 80011dc:	4a08      	ldr	r2, [pc, #32]	@ (8001200 <StartMultiThreads+0x3c>)
 80011de:	6018      	str	r0, [r3, #0]
 80011e0:	2300      	movs	r3, #0
 80011e2:	7013      	strb	r3, [r2, #0]
 80011e4:	4a07      	ldr	r2, [pc, #28]	@ (8001204 <StartMultiThreads+0x40>)
 80011e6:	7013      	strb	r3, [r2, #0]
 80011e8:	f001 fa38 	bl	800265c <HAL_GetTick>
 80011ec:	4b06      	ldr	r3, [pc, #24]	@ (8001208 <StartMultiThreads+0x44>)
 80011ee:	6018      	str	r0, [r3, #0]
 80011f0:	bd08      	pop	{r3, pc}
 80011f2:	bf00      	nop
 80011f4:	20000174 	.word	0x20000174
 80011f8:	40021000 	.word	0x40021000
 80011fc:	20000124 	.word	0x20000124
 8001200:	20000121 	.word	0x20000121
 8001204:	20000120 	.word	0x20000120
 8001208:	2000011c 	.word	0x2000011c

0800120c <ProcessMultiThreads>:
 800120c:	b5f0      	push	{r4, r5, r6, r7, lr}
 800120e:	4d6a      	ldr	r5, [pc, #424]	@ (80013b8 <ProcessMultiThreads+0x1ac>)
 8001210:	b085      	sub	sp, #20
 8001212:	782c      	ldrb	r4, [r5, #0]
 8001214:	2c01      	cmp	r4, #1
 8001216:	d035      	beq.n	8001284 <ProcessMultiThreads+0x78>
 8001218:	2c02      	cmp	r4, #2
 800121a:	d049      	beq.n	80012b0 <ProcessMultiThreads+0xa4>
 800121c:	2c00      	cmp	r4, #0
 800121e:	d16d      	bne.n	80012fc <ProcessMultiThreads+0xf0>
 8001220:	2201      	movs	r2, #1
 8001222:	2140      	movs	r1, #64	@ 0x40
 8001224:	4865      	ldr	r0, [pc, #404]	@ (80013bc <ProcessMultiThreads+0x1b0>)
 8001226:	f001 fd23 	bl	8002c70 <HAL_GPIO_WritePin>
 800122a:	4b65      	ldr	r3, [pc, #404]	@ (80013c0 <ProcessMultiThreads+0x1b4>)
 800122c:	681b      	ldr	r3, [r3, #0]
 800122e:	625c      	str	r4, [r3, #36]	@ 0x24
 8001230:	6a5a      	ldr	r2, [r3, #36]	@ 0x24
 8001232:	2a09      	cmp	r2, #9
 8001234:	d9fc      	bls.n	8001230 <ProcessMultiThreads+0x24>
 8001236:	2200      	movs	r2, #0
 8001238:	2140      	movs	r1, #64	@ 0x40
 800123a:	4860      	ldr	r0, [pc, #384]	@ (80013bc <ProcessMultiThreads+0x1b0>)
 800123c:	f001 fd18 	bl	8002c70 <HAL_GPIO_WritePin>
 8001240:	f001 fa0c 	bl	800265c <HAL_GetTick>
 8001244:	4b5f      	ldr	r3, [pc, #380]	@ (80013c4 <ProcessMultiThreads+0x1b8>)
 8001246:	6018      	str	r0, [r3, #0]
 8001248:	2301      	movs	r3, #1
 800124a:	702b      	strb	r3, [r5, #0]
 800124c:	4d5e      	ldr	r5, [pc, #376]	@ (80013c8 <ProcessMultiThreads+0x1bc>)
 800124e:	f001 fa05 	bl	800265c <HAL_GetTick>
 8001252:	4604      	mov	r4, r0
 8001254:	782e      	ldrb	r6, [r5, #0]
 8001256:	2e00      	cmp	r6, #0
 8001258:	d054      	beq.n	8001304 <ProcessMultiThreads+0xf8>
 800125a:	4f5c      	ldr	r7, [pc, #368]	@ (80013cc <ProcessMultiThreads+0x1c0>)
 800125c:	683b      	ldr	r3, [r7, #0]
 800125e:	1ac3      	subs	r3, r0, r3
 8001260:	2b00      	cmp	r3, #0
 8001262:	db66      	blt.n	8001332 <ProcessMultiThreads+0x126>
 8001264:	2e01      	cmp	r6, #1
 8001266:	d14b      	bne.n	8001300 <ProcessMultiThreads+0xf4>
 8001268:	2000      	movs	r0, #0
 800126a:	f7ff fb7d 	bl	8000968 <Set_PWM_Frequency>
 800126e:	4631      	mov	r1, r6
 8001270:	4852      	ldr	r0, [pc, #328]	@ (80013bc <ProcessMultiThreads+0x1b0>)
 8001272:	f001 fd02 	bl	8002c7a <HAL_GPIO_TogglePin>
 8001276:	4b56      	ldr	r3, [pc, #344]	@ (80013d0 <ProcessMultiThreads+0x1c4>)
 8001278:	681b      	ldr	r3, [r3, #0]
 800127a:	4423      	add	r3, r4
 800127c:	603b      	str	r3, [r7, #0]
 800127e:	2302      	movs	r3, #2
 8001280:	702b      	strb	r3, [r5, #0]
 8001282:	e056      	b.n	8001332 <ProcessMultiThreads+0x126>
 8001284:	f001 f9ea 	bl	800265c <HAL_GetTick>
 8001288:	2120      	movs	r1, #32
 800128a:	4604      	mov	r4, r0
 800128c:	484b      	ldr	r0, [pc, #300]	@ (80013bc <ProcessMultiThreads+0x1b0>)
 800128e:	f001 fce9 	bl	8002c64 <HAL_GPIO_ReadPin>
 8001292:	2801      	cmp	r0, #1
 8001294:	4a4b      	ldr	r2, [pc, #300]	@ (80013c4 <ProcessMultiThreads+0x1b8>)
 8001296:	d003      	beq.n	80012a0 <ProcessMultiThreads+0x94>
 8001298:	6813      	ldr	r3, [r2, #0]
 800129a:	1ae3      	subs	r3, r4, r3
 800129c:	2b09      	cmp	r3, #9
 800129e:	d9d5      	bls.n	800124c <ProcessMultiThreads+0x40>
 80012a0:	4b47      	ldr	r3, [pc, #284]	@ (80013c0 <ProcessMultiThreads+0x1b4>)
 80012a2:	6014      	str	r4, [r2, #0]
 80012a4:	681b      	ldr	r3, [r3, #0]
 80012a6:	6a59      	ldr	r1, [r3, #36]	@ 0x24
 80012a8:	4b4a      	ldr	r3, [pc, #296]	@ (80013d4 <ProcessMultiThreads+0x1c8>)
 80012aa:	6019      	str	r1, [r3, #0]
 80012ac:	2302      	movs	r3, #2
 80012ae:	e7cc      	b.n	800124a <ProcessMultiThreads+0x3e>
 80012b0:	f001 f9d4 	bl	800265c <HAL_GetTick>
 80012b4:	2120      	movs	r1, #32
 80012b6:	4604      	mov	r4, r0
 80012b8:	4840      	ldr	r0, [pc, #256]	@ (80013bc <ProcessMultiThreads+0x1b0>)
 80012ba:	f001 fcd3 	bl	8002c64 <HAL_GPIO_ReadPin>
 80012be:	b120      	cbz	r0, 80012ca <ProcessMultiThreads+0xbe>
 80012c0:	4b40      	ldr	r3, [pc, #256]	@ (80013c4 <ProcessMultiThreads+0x1b8>)
 80012c2:	681b      	ldr	r3, [r3, #0]
 80012c4:	1ae4      	subs	r4, r4, r3
 80012c6:	2c31      	cmp	r4, #49	@ 0x31
 80012c8:	d9c0      	bls.n	800124c <ProcessMultiThreads+0x40>
 80012ca:	4b3d      	ldr	r3, [pc, #244]	@ (80013c0 <ProcessMultiThreads+0x1b4>)
 80012cc:	4a42      	ldr	r2, [pc, #264]	@ (80013d8 <ProcessMultiThreads+0x1cc>)
 80012ce:	681b      	ldr	r3, [r3, #0]
 80012d0:	ed9f 7a42 	vldr	s14, [pc, #264]	@ 80013dc <ProcessMultiThreads+0x1d0>
 80012d4:	6a5b      	ldr	r3, [r3, #36]	@ 0x24
 80012d6:	6013      	str	r3, [r2, #0]
 80012d8:	4a3e      	ldr	r2, [pc, #248]	@ (80013d4 <ProcessMultiThreads+0x1c8>)
 80012da:	6812      	ldr	r2, [r2, #0]
 80012dc:	1a9b      	subs	r3, r3, r2
 80012de:	ee07 3a90 	vmov	s15, r3
 80012e2:	4b3f      	ldr	r3, [pc, #252]	@ (80013e0 <ProcessMultiThreads+0x1d4>)
 80012e4:	eef8 7a67 	vcvt.f32.u32	s15, s15
 80012e8:	ee67 7a87 	vmul.f32	s15, s15, s14
 80012ec:	eeb6 7a00 	vmov.f32	s14, #96	@ 0x3f000000  0.5
 80012f0:	ee67 7a87 	vmul.f32	s15, s15, s14
 80012f4:	eefc 7ae7 	vcvt.u32.f32	s15, s15
 80012f8:	edc3 7a00 	vstr	s15, [r3]
 80012fc:	2300      	movs	r3, #0
 80012fe:	e7a4      	b.n	800124a <ProcessMultiThreads+0x3e>
 8001300:	2300      	movs	r3, #0
 8001302:	e7bd      	b.n	8001280 <ProcessMultiThreads+0x74>
 8001304:	4b37      	ldr	r3, [pc, #220]	@ (80013e4 <ProcessMultiThreads+0x1d8>)
 8001306:	681b      	ldr	r3, [r3, #0]
 8001308:	b19b      	cbz	r3, 8001332 <ProcessMultiThreads+0x126>
 800130a:	4b37      	ldr	r3, [pc, #220]	@ (80013e8 <ProcessMultiThreads+0x1dc>)
 800130c:	681e      	ldr	r6, [r3, #0]
 800130e:	b986      	cbnz	r6, 8001332 <ProcessMultiThreads+0x126>
 8001310:	4b33      	ldr	r3, [pc, #204]	@ (80013e0 <ProcessMultiThreads+0x1d4>)
 8001312:	681b      	ldr	r3, [r3, #0]
 8001314:	f1a3 020b 	sub.w	r2, r3, #11
 8001318:	2a13      	cmp	r2, #19
 800131a:	d913      	bls.n	8001344 <ProcessMultiThreads+0x138>
 800131c:	3b01      	subs	r3, #1
 800131e:	2b09      	cmp	r3, #9
 8001320:	d924      	bls.n	800136c <ProcessMultiThreads+0x160>
 8001322:	4826      	ldr	r0, [pc, #152]	@ (80013bc <ProcessMultiThreads+0x1b0>)
 8001324:	4632      	mov	r2, r6
 8001326:	2101      	movs	r1, #1
 8001328:	f001 fca2 	bl	8002c70 <HAL_GPIO_WritePin>
 800132c:	4630      	mov	r0, r6
 800132e:	f7ff fb1b 	bl	8000968 <Set_PWM_Frequency>
 8001332:	4b2e      	ldr	r3, [pc, #184]	@ (80013ec <ProcessMultiThreads+0x1e0>)
 8001334:	4d2e      	ldr	r5, [pc, #184]	@ (80013f0 <ProcessMultiThreads+0x1e4>)
 8001336:	681b      	ldr	r3, [r3, #0]
 8001338:	b9d3      	cbnz	r3, 8001370 <ProcessMultiThreads+0x164>
 800133a:	f001 f98f 	bl	800265c <HAL_GetTick>
 800133e:	6028      	str	r0, [r5, #0]
 8001340:	b005      	add	sp, #20
 8001342:	bdf0      	pop	{r4, r5, r6, r7, pc}
 8001344:	f44f 73fa 	mov.w	r3, #500	@ 0x1f4
 8001348:	4a21      	ldr	r2, [pc, #132]	@ (80013d0 <ProcessMultiThreads+0x1c4>)
 800134a:	f44f 707a 	mov.w	r0, #1000	@ 0x3e8
 800134e:	4e29      	ldr	r6, [pc, #164]	@ (80013f4 <ProcessMultiThreads+0x1e8>)
 8001350:	6013      	str	r3, [r2, #0]
 8001352:	6033      	str	r3, [r6, #0]
 8001354:	f7ff fb08 	bl	8000968 <Set_PWM_Frequency>
 8001358:	2101      	movs	r1, #1
 800135a:	4818      	ldr	r0, [pc, #96]	@ (80013bc <ProcessMultiThreads+0x1b0>)
 800135c:	f001 fc8d 	bl	8002c7a <HAL_GPIO_TogglePin>
 8001360:	6833      	ldr	r3, [r6, #0]
 8001362:	4a1a      	ldr	r2, [pc, #104]	@ (80013cc <ProcessMultiThreads+0x1c0>)
 8001364:	4423      	add	r3, r4
 8001366:	6013      	str	r3, [r2, #0]
 8001368:	2301      	movs	r3, #1
 800136a:	e789      	b.n	8001280 <ProcessMultiThreads+0x74>
 800136c:	2364      	movs	r3, #100	@ 0x64
 800136e:	e7eb      	b.n	8001348 <ProcessMultiThreads+0x13c>
 8001370:	f001 f974 	bl	800265c <HAL_GetTick>
 8001374:	682b      	ldr	r3, [r5, #0]
 8001376:	4604      	mov	r4, r0
 8001378:	1ac3      	subs	r3, r0, r3
 800137a:	2b00      	cmp	r3, #0
 800137c:	dbe0      	blt.n	8001340 <ProcessMultiThreads+0x134>
 800137e:	4a1e      	ldr	r2, [pc, #120]	@ (80013f8 <ProcessMultiThreads+0x1ec>)
 8001380:	3464      	adds	r4, #100	@ 0x64
 8001382:	481e      	ldr	r0, [pc, #120]	@ (80013fc <ProcessMultiThreads+0x1f0>)
 8001384:	6993      	ldr	r3, [r2, #24]
 8001386:	69d2      	ldr	r2, [r2, #28]
 8001388:	f8ad 3004 	strh.w	r3, [sp, #4]
 800138c:	4b1c      	ldr	r3, [pc, #112]	@ (8001400 <ProcessMultiThreads+0x1f4>)
 800138e:	f8ad 2008 	strh.w	r2, [sp, #8]
 8001392:	220a      	movs	r2, #10
 8001394:	6999      	ldr	r1, [r3, #24]
 8001396:	69db      	ldr	r3, [r3, #28]
 8001398:	f8ad 1006 	strh.w	r1, [sp, #6]
 800139c:	a901      	add	r1, sp, #4
 800139e:	f8ad 300a 	strh.w	r3, [sp, #10]
 80013a2:	4b0f      	ldr	r3, [pc, #60]	@ (80013e0 <ProcessMultiThreads+0x1d4>)
 80013a4:	681b      	ldr	r3, [r3, #0]
 80013a6:	f8ad 300c 	strh.w	r3, [sp, #12]
 80013aa:	f04f 33ff 	mov.w	r3, #4294967295
 80013ae:	f003 fcda 	bl	8004d66 <HAL_UART_Transmit>
 80013b2:	602c      	str	r4, [r5, #0]
 80013b4:	e7c4      	b.n	8001340 <ProcessMultiThreads+0x134>
 80013b6:	bf00      	nop
 80013b8:	20000121 	.word	0x20000121
 80013bc:	40021000 	.word	0x40021000
 80013c0:	20000174 	.word	0x20000174
 80013c4:	20000094 	.word	0x20000094
 80013c8:	20000120 	.word	0x20000120
 80013cc:	2000011c 	.word	0x2000011c
 80013d0:	20000114 	.word	0x20000114
 80013d4:	20000090 	.word	0x20000090
 80013d8:	2000008c 	.word	0x2000008c
 80013dc:	3d0b4396 	.word	0x3d0b4396
 80013e0:	20000088 	.word	0x20000088
 80013e4:	20000080 	.word	0x20000080
 80013e8:	20000084 	.word	0x20000084
 80013ec:	2000007c 	.word	0x2000007c
 80013f0:	20000124 	.word	0x20000124
 80013f4:	20000118 	.word	0x20000118
 80013f8:	200000d4 	.word	0x200000d4
 80013fc:	20000494 	.word	0x20000494
 8001400:	20000098 	.word	0x20000098

08001404 <MX_TIM1_Init>:
 8001404:	b510      	push	{r4, lr}
 8001406:	b08c      	sub	sp, #48	@ 0x30
 8001408:	221c      	movs	r2, #28
 800140a:	2100      	movs	r1, #0
 800140c:	2400      	movs	r4, #0
 800140e:	a804      	add	r0, sp, #16
 8001410:	f004 f93a 	bl	8005688 <memset>
 8001414:	4814      	ldr	r0, [pc, #80]	@ (8001468 <MX_TIM1_Init+0x64>)
 8001416:	4b15      	ldr	r3, [pc, #84]	@ (800146c <MX_TIM1_Init+0x68>)
 8001418:	2210      	movs	r2, #16
 800141a:	a903      	add	r1, sp, #12
 800141c:	9402      	str	r4, [sp, #8]
 800141e:	6184      	str	r4, [r0, #24]
 8001420:	e9c0 3400 	strd	r3, r4, [r0]
 8001424:	f64f 73ff 	movw	r3, #65535	@ 0xffff
 8001428:	e9c0 2302 	strd	r2, r3, [r0, #8]
 800142c:	2303      	movs	r3, #3
 800142e:	2201      	movs	r2, #1
 8001430:	9303      	str	r3, [sp, #12]
 8001432:	230f      	movs	r3, #15
 8001434:	9205      	str	r2, [sp, #20]
 8001436:	9307      	str	r3, [sp, #28]
 8001438:	9209      	str	r2, [sp, #36]	@ 0x24
 800143a:	930b      	str	r3, [sp, #44]	@ 0x2c
 800143c:	e9cd 4400 	strd	r4, r4, [sp]
 8001440:	e9c0 4404 	strd	r4, r4, [r0, #16]
 8001444:	f002 fdda 	bl	8003ffc <HAL_TIM_Encoder_Init>
 8001448:	b108      	cbz	r0, 800144e <MX_TIM1_Init+0x4a>
 800144a:	f7ff fa8b 	bl	8000964 <Error_Handler>
 800144e:	4669      	mov	r1, sp
 8001450:	4805      	ldr	r0, [pc, #20]	@ (8001468 <MX_TIM1_Init+0x64>)
 8001452:	9402      	str	r4, [sp, #8]
 8001454:	e9cd 4400 	strd	r4, r4, [sp]
 8001458:	f003 f916 	bl	8004688 <HAL_TIMEx_MasterConfigSynchronization>
 800145c:	b108      	cbz	r0, 8001462 <MX_TIM1_Init+0x5e>
 800145e:	f7ff fa81 	bl	8000964 <Error_Handler>
 8001462:	b00c      	add	sp, #48	@ 0x30
 8001464:	bd10      	pop	{r4, pc}
 8001466:	bf00      	nop
 8001468:	20000388 	.word	0x20000388
 800146c:	40010000 	.word	0x40010000

08001470 <MX_TIM3_Init>:
 8001470:	b510      	push	{r4, lr}
 8001472:	b08c      	sub	sp, #48	@ 0x30
 8001474:	221c      	movs	r2, #28
 8001476:	2100      	movs	r1, #0
 8001478:	2400      	movs	r4, #0
 800147a:	a804      	add	r0, sp, #16
 800147c:	f004 f904 	bl	8005688 <memset>
 8001480:	4813      	ldr	r0, [pc, #76]	@ (80014d0 <MX_TIM3_Init+0x60>)
 8001482:	4b14      	ldr	r3, [pc, #80]	@ (80014d4 <MX_TIM3_Init+0x64>)
 8001484:	2210      	movs	r2, #16
 8001486:	a903      	add	r1, sp, #12
 8001488:	9402      	str	r4, [sp, #8]
 800148a:	6104      	str	r4, [r0, #16]
 800148c:	6184      	str	r4, [r0, #24]
 800148e:	e9c0 3400 	strd	r3, r4, [r0]
 8001492:	f64f 73ff 	movw	r3, #65535	@ 0xffff
 8001496:	e9c0 2302 	strd	r2, r3, [r0, #8]
 800149a:	2303      	movs	r3, #3
 800149c:	2201      	movs	r2, #1
 800149e:	9303      	str	r3, [sp, #12]
 80014a0:	230f      	movs	r3, #15
 80014a2:	9205      	str	r2, [sp, #20]
 80014a4:	9307      	str	r3, [sp, #28]
 80014a6:	9209      	str	r2, [sp, #36]	@ 0x24
 80014a8:	930b      	str	r3, [sp, #44]	@ 0x2c
 80014aa:	e9cd 4400 	strd	r4, r4, [sp]
 80014ae:	f002 fda5 	bl	8003ffc <HAL_TIM_Encoder_Init>
 80014b2:	b108      	cbz	r0, 80014b8 <MX_TIM3_Init+0x48>
 80014b4:	f7ff fa56 	bl	8000964 <Error_Handler>
 80014b8:	4669      	mov	r1, sp
 80014ba:	4805      	ldr	r0, [pc, #20]	@ (80014d0 <MX_TIM3_Init+0x60>)
 80014bc:	9400      	str	r4, [sp, #0]
 80014be:	9402      	str	r4, [sp, #8]
 80014c0:	f003 f8e2 	bl	8004688 <HAL_TIMEx_MasterConfigSynchronization>
 80014c4:	b108      	cbz	r0, 80014ca <MX_TIM3_Init+0x5a>
 80014c6:	f7ff fa4d 	bl	8000964 <Error_Handler>
 80014ca:	b00c      	add	sp, #48	@ 0x30
 80014cc:	bd10      	pop	{r4, pc}
 80014ce:	bf00      	nop
 80014d0:	200002f0 	.word	0x200002f0
 80014d4:	40000400 	.word	0x40000400

080014d8 <MX_TIM4_Init>:
 80014d8:	b510      	push	{r4, lr}
 80014da:	b08c      	sub	sp, #48	@ 0x30
 80014dc:	221c      	movs	r2, #28
 80014de:	2100      	movs	r1, #0
 80014e0:	2400      	movs	r4, #0
 80014e2:	a804      	add	r0, sp, #16
 80014e4:	f004 f8d0 	bl	8005688 <memset>
 80014e8:	4813      	ldr	r0, [pc, #76]	@ (8001538 <MX_TIM4_Init+0x60>)
 80014ea:	4b14      	ldr	r3, [pc, #80]	@ (800153c <MX_TIM4_Init+0x64>)
 80014ec:	2210      	movs	r2, #16
 80014ee:	a903      	add	r1, sp, #12
 80014f0:	9402      	str	r4, [sp, #8]
 80014f2:	6104      	str	r4, [r0, #16]
 80014f4:	6184      	str	r4, [r0, #24]
 80014f6:	e9c0 3400 	strd	r3, r4, [r0]
 80014fa:	f64f 73ff 	movw	r3, #65535	@ 0xffff
 80014fe:	e9c0 2302 	strd	r2, r3, [r0, #8]
 8001502:	2303      	movs	r3, #3
 8001504:	2201      	movs	r2, #1
 8001506:	9303      	str	r3, [sp, #12]
 8001508:	230f      	movs	r3, #15
 800150a:	9205      	str	r2, [sp, #20]
 800150c:	9307      	str	r3, [sp, #28]
 800150e:	9209      	str	r2, [sp, #36]	@ 0x24
 8001510:	930b      	str	r3, [sp, #44]	@ 0x2c
 8001512:	e9cd 4400 	strd	r4, r4, [sp]
 8001516:	f002 fd71 	bl	8003ffc <HAL_TIM_Encoder_Init>
 800151a:	b108      	cbz	r0, 8001520 <MX_TIM4_Init+0x48>
 800151c:	f7ff fa22 	bl	8000964 <Error_Handler>
 8001520:	4669      	mov	r1, sp
 8001522:	4805      	ldr	r0, [pc, #20]	@ (8001538 <MX_TIM4_Init+0x60>)
 8001524:	9400      	str	r4, [sp, #0]
 8001526:	9402      	str	r4, [sp, #8]
 8001528:	f003 f8ae 	bl	8004688 <HAL_TIMEx_MasterConfigSynchronization>
 800152c:	b108      	cbz	r0, 8001532 <MX_TIM4_Init+0x5a>
 800152e:	f7ff fa19 	bl	8000964 <Error_Handler>
 8001532:	b00c      	add	sp, #48	@ 0x30
 8001534:	bd10      	pop	{r4, pc}
 8001536:	bf00      	nop
 8001538:	200002a4 	.word	0x200002a4
 800153c:	40000800 	.word	0x40000800

08001540 <MX_TIM6_Init>:
 8001540:	b51f      	push	{r0, r1, r2, r3, r4, lr}
 8001542:	480f      	ldr	r0, [pc, #60]	@ (8001580 <MX_TIM6_Init+0x40>)
 8001544:	f242 537f 	movw	r3, #9599	@ 0x257f
 8001548:	4a0e      	ldr	r2, [pc, #56]	@ (8001584 <MX_TIM6_Init+0x44>)
 800154a:	2400      	movs	r4, #0
 800154c:	e9c0 2300 	strd	r2, r3, [r0]
 8001550:	f240 33e7 	movw	r3, #999	@ 0x3e7
 8001554:	9403      	str	r4, [sp, #12]
 8001556:	6084      	str	r4, [r0, #8]
 8001558:	60c3      	str	r3, [r0, #12]
 800155a:	6184      	str	r4, [r0, #24]
 800155c:	e9cd 4401 	strd	r4, r4, [sp, #4]
 8001560:	f002 fcbc 	bl	8003edc <HAL_TIM_Base_Init>
 8001564:	b108      	cbz	r0, 800156a <MX_TIM6_Init+0x2a>
 8001566:	f7ff f9fd 	bl	8000964 <Error_Handler>
 800156a:	a901      	add	r1, sp, #4
 800156c:	4804      	ldr	r0, [pc, #16]	@ (8001580 <MX_TIM6_Init+0x40>)
 800156e:	9401      	str	r4, [sp, #4]
 8001570:	9403      	str	r4, [sp, #12]
 8001572:	f003 f889 	bl	8004688 <HAL_TIMEx_MasterConfigSynchronization>
 8001576:	b108      	cbz	r0, 800157c <MX_TIM6_Init+0x3c>
 8001578:	f7ff f9f4 	bl	8000964 <Error_Handler>
 800157c:	b004      	add	sp, #16
 800157e:	bd10      	pop	{r4, pc}
 8001580:	2000020c 	.word	0x2000020c
 8001584:	40001000 	.word	0x40001000

08001588 <MX_TIM8_Init>:
 8001588:	b510      	push	{r4, lr}
 800158a:	b08c      	sub	sp, #48	@ 0x30
 800158c:	221c      	movs	r2, #28
 800158e:	2100      	movs	r1, #0
 8001590:	2400      	movs	r4, #0
 8001592:	a804      	add	r0, sp, #16
 8001594:	f004 f878 	bl	8005688 <memset>
 8001598:	4814      	ldr	r0, [pc, #80]	@ (80015ec <MX_TIM8_Init+0x64>)
 800159a:	4b15      	ldr	r3, [pc, #84]	@ (80015f0 <MX_TIM8_Init+0x68>)
 800159c:	2210      	movs	r2, #16
 800159e:	a903      	add	r1, sp, #12
 80015a0:	9402      	str	r4, [sp, #8]
 80015a2:	6184      	str	r4, [r0, #24]
 80015a4:	e9c0 3400 	strd	r3, r4, [r0]
 80015a8:	f64f 73ff 	movw	r3, #65535	@ 0xffff
 80015ac:	e9c0 2302 	strd	r2, r3, [r0, #8]
 80015b0:	2303      	movs	r3, #3
 80015b2:	2201      	movs	r2, #1
 80015b4:	9303      	str	r3, [sp, #12]
 80015b6:	230f      	movs	r3, #15
 80015b8:	9205      	str	r2, [sp, #20]
 80015ba:	9307      	str	r3, [sp, #28]
 80015bc:	9209      	str	r2, [sp, #36]	@ 0x24
 80015be:	930b      	str	r3, [sp, #44]	@ 0x2c
 80015c0:	e9cd 4400 	strd	r4, r4, [sp]
 80015c4:	e9c0 4404 	strd	r4, r4, [r0, #16]
 80015c8:	f002 fd18 	bl	8003ffc <HAL_TIM_Encoder_Init>
 80015cc:	b108      	cbz	r0, 80015d2 <MX_TIM8_Init+0x4a>
 80015ce:	f7ff f9c9 	bl	8000964 <Error_Handler>
 80015d2:	4669      	mov	r1, sp
 80015d4:	4805      	ldr	r0, [pc, #20]	@ (80015ec <MX_TIM8_Init+0x64>)
 80015d6:	9402      	str	r4, [sp, #8]
 80015d8:	e9cd 4400 	strd	r4, r4, [sp]
 80015dc:	f003 f854 	bl	8004688 <HAL_TIMEx_MasterConfigSynchronization>
 80015e0:	b108      	cbz	r0, 80015e6 <MX_TIM8_Init+0x5e>
 80015e2:	f7ff f9bf 	bl	8000964 <Error_Handler>
 80015e6:	b00c      	add	sp, #48	@ 0x30
 80015e8:	bd10      	pop	{r4, pc}
 80015ea:	bf00      	nop
 80015ec:	200001c0 	.word	0x200001c0
 80015f0:	40010400 	.word	0x40010400

080015f4 <MX_TIM9_Init>:
 80015f4:	b500      	push	{lr}
 80015f6:	b089      	sub	sp, #36	@ 0x24
 80015f8:	2210      	movs	r2, #16
 80015fa:	2100      	movs	r1, #0
 80015fc:	4668      	mov	r0, sp
 80015fe:	f004 f843 	bl	8005688 <memset>
 8001602:	2210      	movs	r2, #16
 8001604:	2100      	movs	r1, #0
 8001606:	eb0d 0002 	add.w	r0, sp, r2
 800160a:	f004 f83d 	bl	8005688 <memset>
 800160e:	4818      	ldr	r0, [pc, #96]	@ (8001670 <MX_TIM9_Init+0x7c>)
 8001610:	4a18      	ldr	r2, [pc, #96]	@ (8001674 <MX_TIM9_Init+0x80>)
 8001612:	235f      	movs	r3, #95	@ 0x5f
 8001614:	e9c0 2300 	strd	r2, r3, [r0]
 8001618:	2300      	movs	r3, #0
 800161a:	f64f 72ff 	movw	r2, #65535	@ 0xffff
 800161e:	6103      	str	r3, [r0, #16]
 8001620:	6183      	str	r3, [r0, #24]
 8001622:	e9c0 3202 	strd	r3, r2, [r0, #8]
 8001626:	f002 fc59 	bl	8003edc <HAL_TIM_Base_Init>
 800162a:	b108      	cbz	r0, 8001630 <MX_TIM9_Init+0x3c>
 800162c:	f7ff f99a 	bl	8000964 <Error_Handler>
 8001630:	f44f 5380 	mov.w	r3, #4096	@ 0x1000
 8001634:	4669      	mov	r1, sp
 8001636:	480e      	ldr	r0, [pc, #56]	@ (8001670 <MX_TIM9_Init+0x7c>)
 8001638:	9300      	str	r3, [sp, #0]
 800163a:	f002 feaf 	bl	800439c <HAL_TIM_ConfigClockSource>
 800163e:	b108      	cbz	r0, 8001644 <MX_TIM9_Init+0x50>
 8001640:	f7ff f990 	bl	8000964 <Error_Handler>
 8001644:	480a      	ldr	r0, [pc, #40]	@ (8001670 <MX_TIM9_Init+0x7c>)
 8001646:	f002 fca9 	bl	8003f9c <HAL_TIM_IC_Init>
 800164a:	b108      	cbz	r0, 8001650 <MX_TIM9_Init+0x5c>
 800164c:	f7ff f98a 	bl	8000964 <Error_Handler>
 8001650:	2200      	movs	r2, #0
 8001652:	2301      	movs	r3, #1
 8001654:	a904      	add	r1, sp, #16
 8001656:	4806      	ldr	r0, [pc, #24]	@ (8001670 <MX_TIM9_Init+0x7c>)
 8001658:	e9cd 2304 	strd	r2, r3, [sp, #16]
 800165c:	e9cd 2206 	strd	r2, r2, [sp, #24]
 8001660:	f002 fe06 	bl	8004270 <HAL_TIM_IC_ConfigChannel>
 8001664:	b108      	cbz	r0, 800166a <MX_TIM9_Init+0x76>
 8001666:	f7ff f97d 	bl	8000964 <Error_Handler>
 800166a:	b009      	add	sp, #36	@ 0x24
 800166c:	f85d fb04 	ldr.w	pc, [sp], #4
 8001670:	20000174 	.word	0x20000174
 8001674:	40014000 	.word	0x40014000

08001678 <HAL_TIM_Encoder_MspInit>:
 8001678:	b530      	push	{r4, r5, lr}
 800167a:	b08f      	sub	sp, #60	@ 0x3c
 800167c:	4604      	mov	r4, r0
 800167e:	2214      	movs	r2, #20
 8001680:	2100      	movs	r1, #0
 8001682:	a809      	add	r0, sp, #36	@ 0x24
 8001684:	f004 f800 	bl	8005688 <memset>
 8001688:	6823      	ldr	r3, [r4, #0]
 800168a:	4a71      	ldr	r2, [pc, #452]	@ (8001850 <HAL_TIM_Encoder_MspInit+0x1d8>)
 800168c:	4293      	cmp	r3, r2
 800168e:	d13f      	bne.n	8001710 <HAL_TIM_Encoder_MspInit+0x98>
 8001690:	4b70      	ldr	r3, [pc, #448]	@ (8001854 <HAL_TIM_Encoder_MspInit+0x1dc>)
 8001692:	f44f 6020 	mov.w	r0, #2560	@ 0xa00
 8001696:	a909      	add	r1, sp, #36	@ 0x24
 8001698:	6c5a      	ldr	r2, [r3, #68]	@ 0x44
 800169a:	f042 0201 	orr.w	r2, r2, #1
 800169e:	645a      	str	r2, [r3, #68]	@ 0x44
 80016a0:	6c5a      	ldr	r2, [r3, #68]	@ 0x44
 80016a2:	f002 0201 	and.w	r2, r2, #1
 80016a6:	9200      	str	r2, [sp, #0]
 80016a8:	9a00      	ldr	r2, [sp, #0]
 80016aa:	6b1a      	ldr	r2, [r3, #48]	@ 0x30
 80016ac:	f042 0210 	orr.w	r2, r2, #16
 80016b0:	631a      	str	r2, [r3, #48]	@ 0x30
 80016b2:	6b1b      	ldr	r3, [r3, #48]	@ 0x30
 80016b4:	f003 0310 	and.w	r3, r3, #16
 80016b8:	9301      	str	r3, [sp, #4]
 80016ba:	9b01      	ldr	r3, [sp, #4]
 80016bc:	2302      	movs	r3, #2
 80016be:	e9cd 0309 	strd	r0, r3, [sp, #36]	@ 0x24
 80016c2:	2301      	movs	r3, #1
 80016c4:	4864      	ldr	r0, [pc, #400]	@ (8001858 <HAL_TIM_Encoder_MspInit+0x1e0>)
 80016c6:	930d      	str	r3, [sp, #52]	@ 0x34
 80016c8:	f001 f9e8 	bl	8002a9c <HAL_GPIO_Init>
 80016cc:	2200      	movs	r2, #0
 80016ce:	2018      	movs	r0, #24
 80016d0:	4611      	mov	r1, r2
 80016d2:	f000 ffed 	bl	80026b0 <HAL_NVIC_SetPriority>
 80016d6:	2018      	movs	r0, #24
 80016d8:	f001 f81c 	bl	8002714 <HAL_NVIC_EnableIRQ>
 80016dc:	2200      	movs	r2, #0
 80016de:	2019      	movs	r0, #25
 80016e0:	4611      	mov	r1, r2
 80016e2:	f000 ffe5 	bl	80026b0 <HAL_NVIC_SetPriority>
 80016e6:	2019      	movs	r0, #25
 80016e8:	f001 f814 	bl	8002714 <HAL_NVIC_EnableIRQ>
 80016ec:	2200      	movs	r2, #0
 80016ee:	201a      	movs	r0, #26
 80016f0:	4611      	mov	r1, r2
 80016f2:	f000 ffdd 	bl	80026b0 <HAL_NVIC_SetPriority>
 80016f6:	201a      	movs	r0, #26
 80016f8:	f001 f80c 	bl	8002714 <HAL_NVIC_EnableIRQ>
 80016fc:	2200      	movs	r2, #0
 80016fe:	201b      	movs	r0, #27
 8001700:	4611      	mov	r1, r2
 8001702:	f000 ffd5 	bl	80026b0 <HAL_NVIC_SetPriority>
 8001706:	201b      	movs	r0, #27
 8001708:	f001 f804 	bl	8002714 <HAL_NVIC_EnableIRQ>
 800170c:	b00f      	add	sp, #60	@ 0x3c
 800170e:	bd30      	pop	{r4, r5, pc}
 8001710:	4a52      	ldr	r2, [pc, #328]	@ (800185c <HAL_TIM_Encoder_MspInit+0x1e4>)
 8001712:	4293      	cmp	r3, r2
 8001714:	d136      	bne.n	8001784 <HAL_TIM_Encoder_MspInit+0x10c>
 8001716:	4b4f      	ldr	r3, [pc, #316]	@ (8001854 <HAL_TIM_Encoder_MspInit+0x1dc>)
 8001718:	2402      	movs	r4, #2
 800171a:	a909      	add	r1, sp, #36	@ 0x24
 800171c:	4850      	ldr	r0, [pc, #320]	@ (8001860 <HAL_TIM_Encoder_MspInit+0x1e8>)
 800171e:	6c1a      	ldr	r2, [r3, #64]	@ 0x40
 8001720:	2500      	movs	r5, #0
 8001722:	f042 0202 	orr.w	r2, r2, #2
 8001726:	641a      	str	r2, [r3, #64]	@ 0x40
 8001728:	6c1a      	ldr	r2, [r3, #64]	@ 0x40
 800172a:	f002 0202 	and.w	r2, r2, #2
 800172e:	9202      	str	r2, [sp, #8]
 8001730:	9a02      	ldr	r2, [sp, #8]
 8001732:	6b1a      	ldr	r2, [r3, #48]	@ 0x30
 8001734:	f042 0201 	orr.w	r2, r2, #1
 8001738:	631a      	str	r2, [r3, #48]	@ 0x30
 800173a:	6b1a      	ldr	r2, [r3, #48]	@ 0x30
 800173c:	f002 0201 	and.w	r2, r2, #1
 8001740:	9203      	str	r2, [sp, #12]
 8001742:	9a03      	ldr	r2, [sp, #12]
 8001744:	6b1a      	ldr	r2, [r3, #48]	@ 0x30
 8001746:	f042 0202 	orr.w	r2, r2, #2
 800174a:	631a      	str	r2, [r3, #48]	@ 0x30
 800174c:	6b1b      	ldr	r3, [r3, #48]	@ 0x30
 800174e:	940d      	str	r4, [sp, #52]	@ 0x34
 8001750:	f003 0302 	and.w	r3, r3, #2
 8001754:	9304      	str	r3, [sp, #16]
 8001756:	9b04      	ldr	r3, [sp, #16]
 8001758:	2340      	movs	r3, #64	@ 0x40
 800175a:	e9cd 3409 	strd	r3, r4, [sp, #36]	@ 0x24
 800175e:	f001 f99d 	bl	8002a9c <HAL_GPIO_Init>
 8001762:	2320      	movs	r3, #32
 8001764:	a909      	add	r1, sp, #36	@ 0x24
 8001766:	483f      	ldr	r0, [pc, #252]	@ (8001864 <HAL_TIM_Encoder_MspInit+0x1ec>)
 8001768:	940d      	str	r4, [sp, #52]	@ 0x34
 800176a:	e9cd 3409 	strd	r3, r4, [sp, #36]	@ 0x24
 800176e:	e9cd 550b 	strd	r5, r5, [sp, #44]	@ 0x2c
 8001772:	f001 f993 	bl	8002a9c <HAL_GPIO_Init>
 8001776:	201d      	movs	r0, #29
 8001778:	462a      	mov	r2, r5
 800177a:	4629      	mov	r1, r5
 800177c:	f000 ff98 	bl	80026b0 <HAL_NVIC_SetPriority>
 8001780:	201d      	movs	r0, #29
 8001782:	e7c1      	b.n	8001708 <HAL_TIM_Encoder_MspInit+0x90>
 8001784:	4a38      	ldr	r2, [pc, #224]	@ (8001868 <HAL_TIM_Encoder_MspInit+0x1f0>)
 8001786:	4293      	cmp	r3, r2
 8001788:	d123      	bne.n	80017d2 <HAL_TIM_Encoder_MspInit+0x15a>
 800178a:	4b32      	ldr	r3, [pc, #200]	@ (8001854 <HAL_TIM_Encoder_MspInit+0x1dc>)
 800178c:	f44f 5140 	mov.w	r1, #12288	@ 0x3000
 8001790:	4836      	ldr	r0, [pc, #216]	@ (800186c <HAL_TIM_Encoder_MspInit+0x1f4>)
 8001792:	6c1a      	ldr	r2, [r3, #64]	@ 0x40
 8001794:	f042 0204 	orr.w	r2, r2, #4
 8001798:	641a      	str	r2, [r3, #64]	@ 0x40
 800179a:	6c1a      	ldr	r2, [r3, #64]	@ 0x40
 800179c:	f002 0204 	and.w	r2, r2, #4
 80017a0:	9205      	str	r2, [sp, #20]
 80017a2:	9a05      	ldr	r2, [sp, #20]
 80017a4:	6b1a      	ldr	r2, [r3, #48]	@ 0x30
 80017a6:	f042 0208 	orr.w	r2, r2, #8
 80017aa:	631a      	str	r2, [r3, #48]	@ 0x30
 80017ac:	6b1b      	ldr	r3, [r3, #48]	@ 0x30
 80017ae:	f003 0308 	and.w	r3, r3, #8
 80017b2:	9306      	str	r3, [sp, #24]
 80017b4:	9b06      	ldr	r3, [sp, #24]
 80017b6:	2302      	movs	r3, #2
 80017b8:	e9cd 1309 	strd	r1, r3, [sp, #36]	@ 0x24
 80017bc:	a909      	add	r1, sp, #36	@ 0x24
 80017be:	930d      	str	r3, [sp, #52]	@ 0x34
 80017c0:	f001 f96c 	bl	8002a9c <HAL_GPIO_Init>
 80017c4:	2200      	movs	r2, #0
 80017c6:	201e      	movs	r0, #30
 80017c8:	4611      	mov	r1, r2
 80017ca:	f000 ff71 	bl	80026b0 <HAL_NVIC_SetPriority>
 80017ce:	201e      	movs	r0, #30
 80017d0:	e79a      	b.n	8001708 <HAL_TIM_Encoder_MspInit+0x90>
 80017d2:	4a27      	ldr	r2, [pc, #156]	@ (8001870 <HAL_TIM_Encoder_MspInit+0x1f8>)
 80017d4:	4293      	cmp	r3, r2
 80017d6:	d199      	bne.n	800170c <HAL_TIM_Encoder_MspInit+0x94>
 80017d8:	4b1e      	ldr	r3, [pc, #120]	@ (8001854 <HAL_TIM_Encoder_MspInit+0x1dc>)
 80017da:	a909      	add	r1, sp, #36	@ 0x24
 80017dc:	4825      	ldr	r0, [pc, #148]	@ (8001874 <HAL_TIM_Encoder_MspInit+0x1fc>)
 80017de:	6c5a      	ldr	r2, [r3, #68]	@ 0x44
 80017e0:	f042 0202 	orr.w	r2, r2, #2
 80017e4:	645a      	str	r2, [r3, #68]	@ 0x44
 80017e6:	6c5a      	ldr	r2, [r3, #68]	@ 0x44
 80017e8:	f002 0202 	and.w	r2, r2, #2
 80017ec:	9207      	str	r2, [sp, #28]
 80017ee:	9a07      	ldr	r2, [sp, #28]
 80017f0:	6b1a      	ldr	r2, [r3, #48]	@ 0x30
 80017f2:	f042 0204 	orr.w	r2, r2, #4
 80017f6:	631a      	str	r2, [r3, #48]	@ 0x30
 80017f8:	22c0      	movs	r2, #192	@ 0xc0
 80017fa:	6b1b      	ldr	r3, [r3, #48]	@ 0x30
 80017fc:	f003 0304 	and.w	r3, r3, #4
 8001800:	9308      	str	r3, [sp, #32]
 8001802:	9b08      	ldr	r3, [sp, #32]
 8001804:	2302      	movs	r3, #2
 8001806:	e9cd 2309 	strd	r2, r3, [sp, #36]	@ 0x24
 800180a:	2303      	movs	r3, #3
 800180c:	930d      	str	r3, [sp, #52]	@ 0x34
 800180e:	f001 f945 	bl	8002a9c <HAL_GPIO_Init>
 8001812:	2200      	movs	r2, #0
 8001814:	202b      	movs	r0, #43	@ 0x2b
 8001816:	4611      	mov	r1, r2
 8001818:	f000 ff4a 	bl	80026b0 <HAL_NVIC_SetPriority>
 800181c:	202b      	movs	r0, #43	@ 0x2b
 800181e:	f000 ff79 	bl	8002714 <HAL_NVIC_EnableIRQ>
 8001822:	2200      	movs	r2, #0
 8001824:	202c      	movs	r0, #44	@ 0x2c
 8001826:	4611      	mov	r1, r2
 8001828:	f000 ff42 	bl	80026b0 <HAL_NVIC_SetPriority>
 800182c:	202c      	movs	r0, #44	@ 0x2c
 800182e:	f000 ff71 	bl	8002714 <HAL_NVIC_EnableIRQ>
 8001832:	2200      	movs	r2, #0
 8001834:	202d      	movs	r0, #45	@ 0x2d
 8001836:	4611      	mov	r1, r2
 8001838:	f000 ff3a 	bl	80026b0 <HAL_NVIC_SetPriority>
 800183c:	202d      	movs	r0, #45	@ 0x2d
 800183e:	f000 ff69 	bl	8002714 <HAL_NVIC_EnableIRQ>
 8001842:	2200      	movs	r2, #0
 8001844:	202e      	movs	r0, #46	@ 0x2e
 8001846:	4611      	mov	r1, r2
 8001848:	f000 ff32 	bl	80026b0 <HAL_NVIC_SetPriority>
 800184c:	202e      	movs	r0, #46	@ 0x2e
 800184e:	e75b      	b.n	8001708 <HAL_TIM_Encoder_MspInit+0x90>
 8001850:	40010000 	.word	0x40010000
 8001854:	40023800 	.word	0x40023800
 8001858:	40021000 	.word	0x40021000
 800185c:	40000400 	.word	0x40000400
 8001860:	40020000 	.word	0x40020000
 8001864:	40020400 	.word	0x40020400
 8001868:	40000800 	.word	0x40000800
 800186c:	40020c00 	.word	0x40020c00
 8001870:	40010400 	.word	0x40010400
 8001874:	40020800 	.word	0x40020800

08001878 <HAL_TIM_PWM_MspInit>:
 8001878:	b51f      	push	{r0, r1, r2, r3, r4, lr}
 800187a:	6803      	ldr	r3, [r0, #0]
 800187c:	f1b3 4f80 	cmp.w	r3, #1073741824	@ 0x40000000
 8001880:	d115      	bne.n	80018ae <HAL_TIM_PWM_MspInit+0x36>
 8001882:	f503 330e 	add.w	r3, r3, #145408	@ 0x23800
 8001886:	201c      	movs	r0, #28
 8001888:	6c1a      	ldr	r2, [r3, #64]	@ 0x40
 800188a:	f042 0201 	orr.w	r2, r2, #1
 800188e:	641a      	str	r2, [r3, #64]	@ 0x40
 8001890:	2200      	movs	r2, #0
 8001892:	6c1b      	ldr	r3, [r3, #64]	@ 0x40
 8001894:	4611      	mov	r1, r2
 8001896:	f003 0301 	and.w	r3, r3, #1
 800189a:	9301      	str	r3, [sp, #4]
 800189c:	9b01      	ldr	r3, [sp, #4]
 800189e:	f000 ff07 	bl	80026b0 <HAL_NVIC_SetPriority>
 80018a2:	201c      	movs	r0, #28
 80018a4:	b005      	add	sp, #20
 80018a6:	f85d eb04 	ldr.w	lr, [sp], #4
 80018aa:	f000 bf33 	b.w	8002714 <HAL_NVIC_EnableIRQ>
 80018ae:	4a15      	ldr	r2, [pc, #84]	@ (8001904 <HAL_TIM_PWM_MspInit+0x8c>)
 80018b0:	4293      	cmp	r3, r2
 80018b2:	d110      	bne.n	80018d6 <HAL_TIM_PWM_MspInit+0x5e>
 80018b4:	4b14      	ldr	r3, [pc, #80]	@ (8001908 <HAL_TIM_PWM_MspInit+0x90>)
 80018b6:	2032      	movs	r0, #50	@ 0x32
 80018b8:	6c1a      	ldr	r2, [r3, #64]	@ 0x40
 80018ba:	f042 0208 	orr.w	r2, r2, #8
 80018be:	641a      	str	r2, [r3, #64]	@ 0x40
 80018c0:	2200      	movs	r2, #0
 80018c2:	6c1b      	ldr	r3, [r3, #64]	@ 0x40
 80018c4:	4611      	mov	r1, r2
 80018c6:	f003 0308 	and.w	r3, r3, #8
 80018ca:	9302      	str	r3, [sp, #8]
 80018cc:	9b02      	ldr	r3, [sp, #8]
 80018ce:	f000 feef 	bl	80026b0 <HAL_NVIC_SetPriority>
 80018d2:	2032      	movs	r0, #50	@ 0x32
 80018d4:	e7e6      	b.n	80018a4 <HAL_TIM_PWM_MspInit+0x2c>
 80018d6:	4a0d      	ldr	r2, [pc, #52]	@ (800190c <HAL_TIM_PWM_MspInit+0x94>)
 80018d8:	4293      	cmp	r3, r2
 80018da:	d110      	bne.n	80018fe <HAL_TIM_PWM_MspInit+0x86>
 80018dc:	4b0a      	ldr	r3, [pc, #40]	@ (8001908 <HAL_TIM_PWM_MspInit+0x90>)
 80018de:	202b      	movs	r0, #43	@ 0x2b
 80018e0:	6c1a      	ldr	r2, [r3, #64]	@ 0x40
 80018e2:	f042 0240 	orr.w	r2, r2, #64	@ 0x40
 80018e6:	641a      	str	r2, [r3, #64]	@ 0x40
 80018e8:	2200      	movs	r2, #0
 80018ea:	6c1b      	ldr	r3, [r3, #64]	@ 0x40
 80018ec:	4611      	mov	r1, r2
 80018ee:	f003 0340 	and.w	r3, r3, #64	@ 0x40
 80018f2:	9303      	str	r3, [sp, #12]
 80018f4:	9b03      	ldr	r3, [sp, #12]
 80018f6:	f000 fedb 	bl	80026b0 <HAL_NVIC_SetPriority>
 80018fa:	202b      	movs	r0, #43	@ 0x2b
 80018fc:	e7d2      	b.n	80018a4 <HAL_TIM_PWM_MspInit+0x2c>
 80018fe:	b005      	add	sp, #20
 8001900:	f85d fb04 	ldr.w	pc, [sp], #4
 8001904:	40000c00 	.word	0x40000c00
 8001908:	40023800 	.word	0x40023800
 800190c:	40001800 	.word	0x40001800

08001910 <HAL_TIM_Base_MspInit>:
 8001910:	b510      	push	{r4, lr}
 8001912:	b088      	sub	sp, #32
 8001914:	4604      	mov	r4, r0
 8001916:	2214      	movs	r2, #20
 8001918:	2100      	movs	r1, #0
 800191a:	a803      	add	r0, sp, #12
 800191c:	f003 feb4 	bl	8005688 <memset>
 8001920:	6823      	ldr	r3, [r4, #0]
 8001922:	4a1f      	ldr	r2, [pc, #124]	@ (80019a0 <HAL_TIM_Base_MspInit+0x90>)
 8001924:	4293      	cmp	r3, r2
 8001926:	d113      	bne.n	8001950 <HAL_TIM_Base_MspInit+0x40>
 8001928:	4b1e      	ldr	r3, [pc, #120]	@ (80019a4 <HAL_TIM_Base_MspInit+0x94>)
 800192a:	2036      	movs	r0, #54	@ 0x36
 800192c:	6c1a      	ldr	r2, [r3, #64]	@ 0x40
 800192e:	f042 0210 	orr.w	r2, r2, #16
 8001932:	641a      	str	r2, [r3, #64]	@ 0x40
 8001934:	2200      	movs	r2, #0
 8001936:	6c1b      	ldr	r3, [r3, #64]	@ 0x40
 8001938:	4611      	mov	r1, r2
 800193a:	f003 0310 	and.w	r3, r3, #16
 800193e:	9300      	str	r3, [sp, #0]
 8001940:	9b00      	ldr	r3, [sp, #0]
 8001942:	f000 feb5 	bl	80026b0 <HAL_NVIC_SetPriority>
 8001946:	2036      	movs	r0, #54	@ 0x36
 8001948:	f000 fee4 	bl	8002714 <HAL_NVIC_EnableIRQ>
 800194c:	b008      	add	sp, #32
 800194e:	bd10      	pop	{r4, pc}
 8001950:	4a15      	ldr	r2, [pc, #84]	@ (80019a8 <HAL_TIM_Base_MspInit+0x98>)
 8001952:	4293      	cmp	r3, r2
 8001954:	d1fa      	bne.n	800194c <HAL_TIM_Base_MspInit+0x3c>
 8001956:	4b13      	ldr	r3, [pc, #76]	@ (80019a4 <HAL_TIM_Base_MspInit+0x94>)
 8001958:	a903      	add	r1, sp, #12
 800195a:	4814      	ldr	r0, [pc, #80]	@ (80019ac <HAL_TIM_Base_MspInit+0x9c>)
 800195c:	6c5a      	ldr	r2, [r3, #68]	@ 0x44
 800195e:	f442 3280 	orr.w	r2, r2, #65536	@ 0x10000
 8001962:	645a      	str	r2, [r3, #68]	@ 0x44
 8001964:	6c5a      	ldr	r2, [r3, #68]	@ 0x44
 8001966:	f402 3280 	and.w	r2, r2, #65536	@ 0x10000
 800196a:	9201      	str	r2, [sp, #4]
 800196c:	9a01      	ldr	r2, [sp, #4]
 800196e:	6b1a      	ldr	r2, [r3, #48]	@ 0x30
 8001970:	f042 0210 	orr.w	r2, r2, #16
 8001974:	631a      	str	r2, [r3, #48]	@ 0x30
 8001976:	2220      	movs	r2, #32
 8001978:	6b1b      	ldr	r3, [r3, #48]	@ 0x30
 800197a:	f003 0310 	and.w	r3, r3, #16
 800197e:	9302      	str	r3, [sp, #8]
 8001980:	9b02      	ldr	r3, [sp, #8]
 8001982:	2302      	movs	r3, #2
 8001984:	e9cd 2303 	strd	r2, r3, [sp, #12]
 8001988:	2303      	movs	r3, #3
 800198a:	9307      	str	r3, [sp, #28]
 800198c:	f001 f886 	bl	8002a9c <HAL_GPIO_Init>
 8001990:	2200      	movs	r2, #0
 8001992:	2018      	movs	r0, #24
 8001994:	4611      	mov	r1, r2
 8001996:	f000 fe8b 	bl	80026b0 <HAL_NVIC_SetPriority>
 800199a:	2018      	movs	r0, #24
 800199c:	e7d4      	b.n	8001948 <HAL_TIM_Base_MspInit+0x38>
 800199e:	bf00      	nop
 80019a0:	40001000 	.word	0x40001000
 80019a4:	40023800 	.word	0x40023800
 80019a8:	40014000 	.word	0x40014000
 80019ac:	40021000 	.word	0x40021000

080019b0 <HAL_TIM_MspPostInit>:
 80019b0:	b530      	push	{r4, r5, lr}
 80019b2:	2214      	movs	r2, #20
 80019b4:	b08b      	sub	sp, #44	@ 0x2c
 80019b6:	4604      	mov	r4, r0
 80019b8:	2100      	movs	r1, #0
 80019ba:	eb0d 0002 	add.w	r0, sp, r2
 80019be:	f003 fe63 	bl	8005688 <memset>
 80019c2:	6823      	ldr	r3, [r4, #0]
 80019c4:	f1b3 4f80 	cmp.w	r3, #1073741824	@ 0x40000000
 80019c8:	d128      	bne.n	8001a1c <HAL_TIM_MspPostInit+0x6c>
 80019ca:	f503 330e 	add.w	r3, r3, #145408	@ 0x23800
 80019ce:	2502      	movs	r5, #2
 80019d0:	2401      	movs	r4, #1
 80019d2:	a905      	add	r1, sp, #20
 80019d4:	6b1a      	ldr	r2, [r3, #48]	@ 0x30
 80019d6:	4828      	ldr	r0, [pc, #160]	@ (8001a78 <HAL_TIM_MspPostInit+0xc8>)
 80019d8:	f042 0201 	orr.w	r2, r2, #1
 80019dc:	631a      	str	r2, [r3, #48]	@ 0x30
 80019de:	6b1a      	ldr	r2, [r3, #48]	@ 0x30
 80019e0:	f002 0201 	and.w	r2, r2, #1
 80019e4:	9201      	str	r2, [sp, #4]
 80019e6:	9a01      	ldr	r2, [sp, #4]
 80019e8:	6b1a      	ldr	r2, [r3, #48]	@ 0x30
 80019ea:	f042 0202 	orr.w	r2, r2, #2
 80019ee:	631a      	str	r2, [r3, #48]	@ 0x30
 80019f0:	6b1b      	ldr	r3, [r3, #48]	@ 0x30
 80019f2:	9409      	str	r4, [sp, #36]	@ 0x24
 80019f4:	f003 0302 	and.w	r3, r3, #2
 80019f8:	9302      	str	r3, [sp, #8]
 80019fa:	9b02      	ldr	r3, [sp, #8]
 80019fc:	2320      	movs	r3, #32
 80019fe:	e9cd 3505 	strd	r3, r5, [sp, #20]
 8001a02:	f001 f84b 	bl	8002a9c <HAL_GPIO_Init>
 8001a06:	f44f 6300 	mov.w	r3, #2048	@ 0x800
 8001a0a:	9409      	str	r4, [sp, #36]	@ 0x24
 8001a0c:	e9cd 3505 	strd	r3, r5, [sp, #20]
 8001a10:	2300      	movs	r3, #0
 8001a12:	e9cd 3307 	strd	r3, r3, [sp, #28]
 8001a16:	a905      	add	r1, sp, #20
 8001a18:	4818      	ldr	r0, [pc, #96]	@ (8001a7c <HAL_TIM_MspPostInit+0xcc>)
 8001a1a:	e013      	b.n	8001a44 <HAL_TIM_MspPostInit+0x94>
 8001a1c:	4a18      	ldr	r2, [pc, #96]	@ (8001a80 <HAL_TIM_MspPostInit+0xd0>)
 8001a1e:	4293      	cmp	r3, r2
 8001a20:	d114      	bne.n	8001a4c <HAL_TIM_MspPostInit+0x9c>
 8001a22:	4b18      	ldr	r3, [pc, #96]	@ (8001a84 <HAL_TIM_MspPostInit+0xd4>)
 8001a24:	2109      	movs	r1, #9
 8001a26:	4814      	ldr	r0, [pc, #80]	@ (8001a78 <HAL_TIM_MspPostInit+0xc8>)
 8001a28:	6b1a      	ldr	r2, [r3, #48]	@ 0x30
 8001a2a:	f042 0201 	orr.w	r2, r2, #1
 8001a2e:	631a      	str	r2, [r3, #48]	@ 0x30
 8001a30:	6b1b      	ldr	r3, [r3, #48]	@ 0x30
 8001a32:	f003 0301 	and.w	r3, r3, #1
 8001a36:	9303      	str	r3, [sp, #12]
 8001a38:	9b03      	ldr	r3, [sp, #12]
 8001a3a:	2302      	movs	r3, #2
 8001a3c:	e9cd 1305 	strd	r1, r3, [sp, #20]
 8001a40:	a905      	add	r1, sp, #20
 8001a42:	9309      	str	r3, [sp, #36]	@ 0x24
 8001a44:	f001 f82a 	bl	8002a9c <HAL_GPIO_Init>
 8001a48:	b00b      	add	sp, #44	@ 0x2c
 8001a4a:	bd30      	pop	{r4, r5, pc}
 8001a4c:	4a0e      	ldr	r2, [pc, #56]	@ (8001a88 <HAL_TIM_MspPostInit+0xd8>)
 8001a4e:	4293      	cmp	r3, r2
 8001a50:	d1fa      	bne.n	8001a48 <HAL_TIM_MspPostInit+0x98>
 8001a52:	4b0c      	ldr	r3, [pc, #48]	@ (8001a84 <HAL_TIM_MspPostInit+0xd4>)
 8001a54:	6b1a      	ldr	r2, [r3, #48]	@ 0x30
 8001a56:	f042 0202 	orr.w	r2, r2, #2
 8001a5a:	631a      	str	r2, [r3, #48]	@ 0x30
 8001a5c:	f44f 4200 	mov.w	r2, #32768	@ 0x8000
 8001a60:	6b1b      	ldr	r3, [r3, #48]	@ 0x30
 8001a62:	f003 0302 	and.w	r3, r3, #2
 8001a66:	9304      	str	r3, [sp, #16]
 8001a68:	9b04      	ldr	r3, [sp, #16]
 8001a6a:	2302      	movs	r3, #2
 8001a6c:	e9cd 2305 	strd	r2, r3, [sp, #20]
 8001a70:	2309      	movs	r3, #9
 8001a72:	9309      	str	r3, [sp, #36]	@ 0x24
 8001a74:	e7cf      	b.n	8001a16 <HAL_TIM_MspPostInit+0x66>
 8001a76:	bf00      	nop
 8001a78:	40020000 	.word	0x40020000
 8001a7c:	40020400 	.word	0x40020400
 8001a80:	40000c00 	.word	0x40000c00
 8001a84:	40023800 	.word	0x40023800
 8001a88:	40001800 	.word	0x40001800

08001a8c <MX_TIM2_Init>:
 8001a8c:	b510      	push	{r4, lr}
 8001a8e:	2400      	movs	r4, #0
 8001a90:	b08a      	sub	sp, #40	@ 0x28
 8001a92:	221c      	movs	r2, #28
 8001a94:	4621      	mov	r1, r4
 8001a96:	a803      	add	r0, sp, #12
 8001a98:	9402      	str	r4, [sp, #8]
 8001a9a:	e9cd 4400 	strd	r4, r4, [sp]
 8001a9e:	f003 fdf3 	bl	8005688 <memset>
 8001aa2:	481a      	ldr	r0, [pc, #104]	@ (8001b0c <MX_TIM2_Init+0x80>)
 8001aa4:	232f      	movs	r3, #47	@ 0x2f
 8001aa6:	f04f 4280 	mov.w	r2, #1073741824	@ 0x40000000
 8001aaa:	6084      	str	r4, [r0, #8]
 8001aac:	6184      	str	r4, [r0, #24]
 8001aae:	e9c0 2300 	strd	r2, r3, [r0]
 8001ab2:	f240 33e7 	movw	r3, #999	@ 0x3e7
 8001ab6:	e9c0 3403 	strd	r3, r4, [r0, #12]
 8001aba:	f002 fa3f 	bl	8003f3c <HAL_TIM_PWM_Init>
 8001abe:	b108      	cbz	r0, 8001ac4 <MX_TIM2_Init+0x38>
 8001ac0:	f7fe ff50 	bl	8000964 <Error_Handler>
 8001ac4:	4669      	mov	r1, sp
 8001ac6:	4811      	ldr	r0, [pc, #68]	@ (8001b0c <MX_TIM2_Init+0x80>)
 8001ac8:	9400      	str	r4, [sp, #0]
 8001aca:	9402      	str	r4, [sp, #8]
 8001acc:	f002 fddc 	bl	8004688 <HAL_TIMEx_MasterConfigSynchronization>
 8001ad0:	b108      	cbz	r0, 8001ad6 <MX_TIM2_Init+0x4a>
 8001ad2:	f7fe ff47 	bl	8000964 <Error_Handler>
 8001ad6:	2200      	movs	r2, #0
 8001ad8:	2360      	movs	r3, #96	@ 0x60
 8001ada:	a903      	add	r1, sp, #12
 8001adc:	480b      	ldr	r0, [pc, #44]	@ (8001b0c <MX_TIM2_Init+0x80>)
 8001ade:	9205      	str	r2, [sp, #20]
 8001ae0:	9207      	str	r2, [sp, #28]
 8001ae2:	e9cd 3203 	strd	r3, r2, [sp, #12]
 8001ae6:	f002 fb0f 	bl	8004108 <HAL_TIM_PWM_ConfigChannel>
 8001aea:	b108      	cbz	r0, 8001af0 <MX_TIM2_Init+0x64>
 8001aec:	f7fe ff3a 	bl	8000964 <Error_Handler>
 8001af0:	220c      	movs	r2, #12
 8001af2:	4806      	ldr	r0, [pc, #24]	@ (8001b0c <MX_TIM2_Init+0x80>)
 8001af4:	eb0d 0102 	add.w	r1, sp, r2
 8001af8:	f002 fb06 	bl	8004108 <HAL_TIM_PWM_ConfigChannel>
 8001afc:	b108      	cbz	r0, 8001b02 <MX_TIM2_Init+0x76>
 8001afe:	f7fe ff31 	bl	8000964 <Error_Handler>
 8001b02:	4802      	ldr	r0, [pc, #8]	@ (8001b0c <MX_TIM2_Init+0x80>)
 8001b04:	f7ff ff54 	bl	80019b0 <HAL_TIM_MspPostInit>
 8001b08:	b00a      	add	sp, #40	@ 0x28
 8001b0a:	bd10      	pop	{r4, pc}
 8001b0c:	2000033c 	.word	0x2000033c

08001b10 <MX_TIM5_Init>:
 8001b10:	b510      	push	{r4, lr}
 8001b12:	2400      	movs	r4, #0
 8001b14:	b08a      	sub	sp, #40	@ 0x28
 8001b16:	221c      	movs	r2, #28
 8001b18:	4621      	mov	r1, r4
 8001b1a:	a803      	add	r0, sp, #12
 8001b1c:	9402      	str	r4, [sp, #8]
 8001b1e:	e9cd 4400 	strd	r4, r4, [sp]
 8001b22:	f003 fdb1 	bl	8005688 <memset>
 8001b26:	481a      	ldr	r0, [pc, #104]	@ (8001b90 <MX_TIM5_Init+0x80>)
 8001b28:	232f      	movs	r3, #47	@ 0x2f
 8001b2a:	4a1a      	ldr	r2, [pc, #104]	@ (8001b94 <MX_TIM5_Init+0x84>)
 8001b2c:	6084      	str	r4, [r0, #8]
 8001b2e:	6184      	str	r4, [r0, #24]
 8001b30:	e9c0 2300 	strd	r2, r3, [r0]
 8001b34:	f240 33e7 	movw	r3, #999	@ 0x3e7
 8001b38:	e9c0 3403 	strd	r3, r4, [r0, #12]
 8001b3c:	f002 f9fe 	bl	8003f3c <HAL_TIM_PWM_Init>
 8001b40:	b108      	cbz	r0, 8001b46 <MX_TIM5_Init+0x36>
 8001b42:	f7fe ff0f 	bl	8000964 <Error_Handler>
 8001b46:	4669      	mov	r1, sp
 8001b48:	4811      	ldr	r0, [pc, #68]	@ (8001b90 <MX_TIM5_Init+0x80>)
 8001b4a:	9400      	str	r4, [sp, #0]
 8001b4c:	9402      	str	r4, [sp, #8]
 8001b4e:	f002 fd9b 	bl	8004688 <HAL_TIMEx_MasterConfigSynchronization>
 8001b52:	b108      	cbz	r0, 8001b58 <MX_TIM5_Init+0x48>
 8001b54:	f7fe ff06 	bl	8000964 <Error_Handler>
 8001b58:	2200      	movs	r2, #0
 8001b5a:	2360      	movs	r3, #96	@ 0x60
 8001b5c:	a903      	add	r1, sp, #12
 8001b5e:	480c      	ldr	r0, [pc, #48]	@ (8001b90 <MX_TIM5_Init+0x80>)
 8001b60:	9205      	str	r2, [sp, #20]
 8001b62:	9207      	str	r2, [sp, #28]
 8001b64:	e9cd 3203 	strd	r3, r2, [sp, #12]
 8001b68:	f002 face 	bl	8004108 <HAL_TIM_PWM_ConfigChannel>
 8001b6c:	b108      	cbz	r0, 8001b72 <MX_TIM5_Init+0x62>
 8001b6e:	f7fe fef9 	bl	8000964 <Error_Handler>
 8001b72:	220c      	movs	r2, #12
 8001b74:	4806      	ldr	r0, [pc, #24]	@ (8001b90 <MX_TIM5_Init+0x80>)
 8001b76:	eb0d 0102 	add.w	r1, sp, r2
 8001b7a:	f002 fac5 	bl	8004108 <HAL_TIM_PWM_ConfigChannel>
 8001b7e:	b108      	cbz	r0, 8001b84 <MX_TIM5_Init+0x74>
 8001b80:	f7fe fef0 	bl	8000964 <Error_Handler>
 8001b84:	4802      	ldr	r0, [pc, #8]	@ (8001b90 <MX_TIM5_Init+0x80>)
 8001b86:	f7ff ff13 	bl	80019b0 <HAL_TIM_MspPostInit>
 8001b8a:	b00a      	add	sp, #40	@ 0x28
 8001b8c:	bd10      	pop	{r4, pc}
 8001b8e:	bf00      	nop
 8001b90:	20000258 	.word	0x20000258
 8001b94:	40000c00 	.word	0x40000c00

08001b98 <MX_TIM12_Init>:
 8001b98:	b510      	push	{r4, lr}
 8001b9a:	b088      	sub	sp, #32
 8001b9c:	221c      	movs	r2, #28
 8001b9e:	2100      	movs	r1, #0
 8001ba0:	2400      	movs	r4, #0
 8001ba2:	a801      	add	r0, sp, #4
 8001ba4:	f003 fd70 	bl	8005688 <memset>
 8001ba8:	4811      	ldr	r0, [pc, #68]	@ (8001bf0 <MX_TIM12_Init+0x58>)
 8001baa:	235f      	movs	r3, #95	@ 0x5f
 8001bac:	4a11      	ldr	r2, [pc, #68]	@ (8001bf4 <MX_TIM12_Init+0x5c>)
 8001bae:	6104      	str	r4, [r0, #16]
 8001bb0:	6184      	str	r4, [r0, #24]
 8001bb2:	e9c0 2300 	strd	r2, r3, [r0]
 8001bb6:	f240 33e7 	movw	r3, #999	@ 0x3e7
 8001bba:	e9c0 4302 	strd	r4, r3, [r0, #8]
 8001bbe:	f002 f9bd 	bl	8003f3c <HAL_TIM_PWM_Init>
 8001bc2:	b108      	cbz	r0, 8001bc8 <MX_TIM12_Init+0x30>
 8001bc4:	f7fe fece 	bl	8000964 <Error_Handler>
 8001bc8:	2204      	movs	r2, #4
 8001bca:	2360      	movs	r3, #96	@ 0x60
 8001bcc:	4808      	ldr	r0, [pc, #32]	@ (8001bf0 <MX_TIM12_Init+0x58>)
 8001bce:	eb0d 0102 	add.w	r1, sp, r2
 8001bd2:	9403      	str	r4, [sp, #12]
 8001bd4:	9405      	str	r4, [sp, #20]
 8001bd6:	e9cd 3401 	strd	r3, r4, [sp, #4]
 8001bda:	f002 fa95 	bl	8004108 <HAL_TIM_PWM_ConfigChannel>
 8001bde:	b108      	cbz	r0, 8001be4 <MX_TIM12_Init+0x4c>
 8001be0:	f7fe fec0 	bl	8000964 <Error_Handler>
 8001be4:	4802      	ldr	r0, [pc, #8]	@ (8001bf0 <MX_TIM12_Init+0x58>)
 8001be6:	f7ff fee3 	bl	80019b0 <HAL_TIM_MspPostInit>
 8001bea:	b008      	add	sp, #32
 8001bec:	bd10      	pop	{r4, pc}
 8001bee:	bf00      	nop
 8001bf0:	20000128 	.word	0x20000128
 8001bf4:	40001800 	.word	0x40001800

08001bf8 <MX_USART2_UART_Init>:
 8001bf8:	b508      	push	{r3, lr}
 8001bfa:	480c      	ldr	r0, [pc, #48]	@ (8001c2c <MX_USART2_UART_Init+0x34>)
 8001bfc:	f44f 33e1 	mov.w	r3, #115200	@ 0x1c200
 8001c00:	4a0b      	ldr	r2, [pc, #44]	@ (8001c30 <MX_USART2_UART_Init+0x38>)
 8001c02:	e9c0 2300 	strd	r2, r3, [r0]
 8001c06:	2300      	movs	r3, #0
 8001c08:	220c      	movs	r2, #12
 8001c0a:	e9c0 3302 	strd	r3, r3, [r0, #8]
 8001c0e:	6103      	str	r3, [r0, #16]
 8001c10:	6243      	str	r3, [r0, #36]	@ 0x24
 8001c12:	e9c0 2305 	strd	r2, r3, [r0, #20]
 8001c16:	e9c0 3307 	strd	r3, r3, [r0, #28]
 8001c1a:	f003 f9b9 	bl	8004f90 <HAL_UART_Init>
 8001c1e:	b118      	cbz	r0, 8001c28 <MX_USART2_UART_Init+0x30>
 8001c20:	e8bd 4008 	ldmia.w	sp!, {r3, lr}
 8001c24:	f7fe be9e 	b.w	8000964 <Error_Handler>
 8001c28:	bd08      	pop	{r3, pc}
 8001c2a:	bf00      	nop
 8001c2c:	2000051c 	.word	0x2000051c
 8001c30:	40004400 	.word	0x40004400

08001c34 <MX_USART3_UART_Init>:
 8001c34:	b508      	push	{r3, lr}
 8001c36:	480c      	ldr	r0, [pc, #48]	@ (8001c68 <MX_USART3_UART_Init+0x34>)
 8001c38:	f44f 33e1 	mov.w	r3, #115200	@ 0x1c200
 8001c3c:	4a0b      	ldr	r2, [pc, #44]	@ (8001c6c <MX_USART3_UART_Init+0x38>)
 8001c3e:	e9c0 2300 	strd	r2, r3, [r0]
 8001c42:	2300      	movs	r3, #0
 8001c44:	220c      	movs	r2, #12
 8001c46:	e9c0 3302 	strd	r3, r3, [r0, #8]
 8001c4a:	6103      	str	r3, [r0, #16]
 8001c4c:	6243      	str	r3, [r0, #36]	@ 0x24
 8001c4e:	e9c0 2305 	strd	r2, r3, [r0, #20]
 8001c52:	e9c0 3307 	strd	r3, r3, [r0, #28]
 8001c56:	f003 f99b 	bl	8004f90 <HAL_UART_Init>
 8001c5a:	b118      	cbz	r0, 8001c64 <MX_USART3_UART_Init+0x30>
 8001c5c:	e8bd 4008 	ldmia.w	sp!, {r3, lr}
 8001c60:	f7fe be80 	b.w	8000964 <Error_Handler>
 8001c64:	bd08      	pop	{r3, pc}
 8001c66:	bf00      	nop
 8001c68:	20000494 	.word	0x20000494
 8001c6c:	40004800 	.word	0x40004800

08001c70 <HAL_UART_MspInit>:
 8001c70:	b570      	push	{r4, r5, r6, lr}
 8001c72:	2214      	movs	r2, #20
 8001c74:	b0ae      	sub	sp, #184	@ 0xb8
 8001c76:	4606      	mov	r6, r0
 8001c78:	2100      	movs	r1, #0
 8001c7a:	eb0d 0002 	add.w	r0, sp, r2
 8001c7e:	f003 fd03 	bl	8005688 <memset>
 8001c82:	2290      	movs	r2, #144	@ 0x90
 8001c84:	2100      	movs	r1, #0
 8001c86:	a80a      	add	r0, sp, #40	@ 0x28
 8001c88:	f003 fcfe 	bl	8005688 <memset>
 8001c8c:	6833      	ldr	r3, [r6, #0]
 8001c8e:	4a4f      	ldr	r2, [pc, #316]	@ (8001dcc <HAL_UART_MspInit+0x15c>)
 8001c90:	4293      	cmp	r3, r2
 8001c92:	d165      	bne.n	8001d60 <HAL_UART_MspInit+0xf0>
 8001c94:	2380      	movs	r3, #128	@ 0x80
 8001c96:	a80a      	add	r0, sp, #40	@ 0x28
 8001c98:	930a      	str	r3, [sp, #40]	@ 0x28
 8001c9a:	f001 fb7b 	bl	8003394 <HAL_RCCEx_PeriphCLKConfig>
 8001c9e:	b108      	cbz	r0, 8001ca4 <HAL_UART_MspInit+0x34>
 8001ca0:	f7fe fe60 	bl	8000964 <Error_Handler>
 8001ca4:	4b4a      	ldr	r3, [pc, #296]	@ (8001dd0 <HAL_UART_MspInit+0x160>)
 8001ca6:	2460      	movs	r4, #96	@ 0x60
 8001ca8:	2500      	movs	r5, #0
 8001caa:	484a      	ldr	r0, [pc, #296]	@ (8001dd4 <HAL_UART_MspInit+0x164>)
 8001cac:	6c1a      	ldr	r2, [r3, #64]	@ 0x40
 8001cae:	a905      	add	r1, sp, #20
 8001cb0:	f442 3200 	orr.w	r2, r2, #131072	@ 0x20000
 8001cb4:	641a      	str	r2, [r3, #64]	@ 0x40
 8001cb6:	6c1a      	ldr	r2, [r3, #64]	@ 0x40
 8001cb8:	f402 3200 	and.w	r2, r2, #131072	@ 0x20000
 8001cbc:	9201      	str	r2, [sp, #4]
 8001cbe:	9a01      	ldr	r2, [sp, #4]
 8001cc0:	6b1a      	ldr	r2, [r3, #48]	@ 0x30
 8001cc2:	f042 0208 	orr.w	r2, r2, #8
 8001cc6:	631a      	str	r2, [r3, #48]	@ 0x30
 8001cc8:	6b1b      	ldr	r3, [r3, #48]	@ 0x30
 8001cca:	f003 0308 	and.w	r3, r3, #8
 8001cce:	9302      	str	r3, [sp, #8]
 8001cd0:	9b02      	ldr	r3, [sp, #8]
 8001cd2:	2302      	movs	r3, #2
 8001cd4:	e9cd 4305 	strd	r4, r3, [sp, #20]
 8001cd8:	2303      	movs	r3, #3
 8001cda:	4c3f      	ldr	r4, [pc, #252]	@ (8001dd8 <HAL_UART_MspInit+0x168>)
 8001cdc:	e9cd 5307 	strd	r5, r3, [sp, #28]
 8001ce0:	2307      	movs	r3, #7
 8001ce2:	9309      	str	r3, [sp, #36]	@ 0x24
 8001ce4:	f000 feda 	bl	8002a9c <HAL_GPIO_Init>
 8001ce8:	f04f 6300 	mov.w	r3, #134217728	@ 0x8000000
 8001cec:	f8df c0f8 	ldr.w	ip, [pc, #248]	@ 8001de8 <HAL_UART_MspInit+0x178>
 8001cf0:	4620      	mov	r0, r4
 8001cf2:	e9c4 c300 	strd	ip, r3, [r4]
 8001cf6:	f44f 6380 	mov.w	r3, #1024	@ 0x400
 8001cfa:	e9c4 5502 	strd	r5, r5, [r4, #8]
 8001cfe:	e9c4 3504 	strd	r3, r5, [r4, #16]
 8001d02:	e9c4 5506 	strd	r5, r5, [r4, #24]
 8001d06:	e9c4 5508 	strd	r5, r5, [r4, #32]
 8001d0a:	f000 fd3b 	bl	8002784 <HAL_DMA_Init>
 8001d0e:	b108      	cbz	r0, 8001d14 <HAL_UART_MspInit+0xa4>
 8001d10:	f7fe fe28 	bl	8000964 <Error_Handler>
 8001d14:	f04f 6300 	mov.w	r3, #134217728	@ 0x8000000
 8001d18:	4930      	ldr	r1, [pc, #192]	@ (8001ddc <HAL_UART_MspInit+0x16c>)
 8001d1a:	6774      	str	r4, [r6, #116]	@ 0x74
 8001d1c:	2040      	movs	r0, #64	@ 0x40
 8001d1e:	63a6      	str	r6, [r4, #56]	@ 0x38
 8001d20:	f44f 6280 	mov.w	r2, #1024	@ 0x400
 8001d24:	4c2e      	ldr	r4, [pc, #184]	@ (8001de0 <HAL_UART_MspInit+0x170>)
 8001d26:	e9c4 1300 	strd	r1, r3, [r4]
 8001d2a:	2300      	movs	r3, #0
 8001d2c:	e9c4 0302 	strd	r0, r3, [r4, #8]
 8001d30:	4620      	mov	r0, r4
 8001d32:	e9c4 2304 	strd	r2, r3, [r4, #16]
 8001d36:	e9c4 3306 	strd	r3, r3, [r4, #24]
 8001d3a:	e9c4 3308 	strd	r3, r3, [r4, #32]
 8001d3e:	f000 fd21 	bl	8002784 <HAL_DMA_Init>
 8001d42:	b108      	cbz	r0, 8001d48 <HAL_UART_MspInit+0xd8>
 8001d44:	f7fe fe0e 	bl	8000964 <Error_Handler>
 8001d48:	2200      	movs	r2, #0
 8001d4a:	2026      	movs	r0, #38	@ 0x26
 8001d4c:	6734      	str	r4, [r6, #112]	@ 0x70
 8001d4e:	4611      	mov	r1, r2
 8001d50:	63a6      	str	r6, [r4, #56]	@ 0x38
 8001d52:	f000 fcad 	bl	80026b0 <HAL_NVIC_SetPriority>
 8001d56:	2026      	movs	r0, #38	@ 0x26
 8001d58:	f000 fcdc 	bl	8002714 <HAL_NVIC_EnableIRQ>
 8001d5c:	b02e      	add	sp, #184	@ 0xb8
 8001d5e:	bd70      	pop	{r4, r5, r6, pc}
 8001d60:	4a20      	ldr	r2, [pc, #128]	@ (8001de4 <HAL_UART_MspInit+0x174>)
 8001d62:	4293      	cmp	r3, r2
 8001d64:	d1fa      	bne.n	8001d5c <HAL_UART_MspInit+0xec>
 8001d66:	f44f 7380 	mov.w	r3, #256	@ 0x100
 8001d6a:	a80a      	add	r0, sp, #40	@ 0x28
 8001d6c:	930a      	str	r3, [sp, #40]	@ 0x28
 8001d6e:	f001 fb11 	bl	8003394 <HAL_RCCEx_PeriphCLKConfig>
 8001d72:	b108      	cbz	r0, 8001d78 <HAL_UART_MspInit+0x108>
 8001d74:	f7fe fdf6 	bl	8000964 <Error_Handler>
 8001d78:	4b15      	ldr	r3, [pc, #84]	@ (8001dd0 <HAL_UART_MspInit+0x160>)
 8001d7a:	2400      	movs	r4, #0
 8001d7c:	a905      	add	r1, sp, #20
 8001d7e:	4815      	ldr	r0, [pc, #84]	@ (8001dd4 <HAL_UART_MspInit+0x164>)
 8001d80:	6c1a      	ldr	r2, [r3, #64]	@ 0x40
 8001d82:	f442 2280 	orr.w	r2, r2, #262144	@ 0x40000
 8001d86:	641a      	str	r2, [r3, #64]	@ 0x40
 8001d88:	6c1a      	ldr	r2, [r3, #64]	@ 0x40
 8001d8a:	f402 2280 	and.w	r2, r2, #262144	@ 0x40000
 8001d8e:	9203      	str	r2, [sp, #12]
 8001d90:	9a03      	ldr	r2, [sp, #12]
 8001d92:	6b1a      	ldr	r2, [r3, #48]	@ 0x30
 8001d94:	f042 0208 	orr.w	r2, r2, #8
 8001d98:	631a      	str	r2, [r3, #48]	@ 0x30
 8001d9a:	f44f 7240 	mov.w	r2, #768	@ 0x300
 8001d9e:	6b1b      	ldr	r3, [r3, #48]	@ 0x30
 8001da0:	f003 0308 	and.w	r3, r3, #8
 8001da4:	9304      	str	r3, [sp, #16]
 8001da6:	9b04      	ldr	r3, [sp, #16]
 8001da8:	2302      	movs	r3, #2
 8001daa:	e9cd 2305 	strd	r2, r3, [sp, #20]
 8001dae:	2303      	movs	r3, #3
 8001db0:	e9cd 4307 	strd	r4, r3, [sp, #28]
 8001db4:	2307      	movs	r3, #7
 8001db6:	9309      	str	r3, [sp, #36]	@ 0x24
 8001db8:	f000 fe70 	bl	8002a9c <HAL_GPIO_Init>
 8001dbc:	2027      	movs	r0, #39	@ 0x27
 8001dbe:	4622      	mov	r2, r4
 8001dc0:	4621      	mov	r1, r4
 8001dc2:	f000 fc75 	bl	80026b0 <HAL_NVIC_SetPriority>
 8001dc6:	2027      	movs	r0, #39	@ 0x27
 8001dc8:	e7c6      	b.n	8001d58 <HAL_UART_MspInit+0xe8>
 8001dca:	bf00      	nop
 8001dcc:	40004400 	.word	0x40004400
 8001dd0:	40023800 	.word	0x40023800
 8001dd4:	40020c00 	.word	0x40020c00
 8001dd8:	20000434 	.word	0x20000434
 8001ddc:	400260a0 	.word	0x400260a0
 8001de0:	200003d4 	.word	0x200003d4
 8001de4:	40004800 	.word	0x40004800
 8001de8:	40026088 	.word	0x40026088

08001dec <MX_USB_OTG_FS_PCD_Init>:
 8001dec:	b508      	push	{r3, lr}
 8001dee:	480c      	ldr	r0, [pc, #48]	@ (8001e20 <MX_USB_OTG_FS_PCD_Init+0x34>)
 8001df0:	f04f 43a0 	mov.w	r3, #1342177280	@ 0x50000000
 8001df4:	2200      	movs	r2, #0
 8001df6:	6003      	str	r3, [r0, #0]
 8001df8:	2306      	movs	r3, #6
 8001dfa:	7302      	strb	r2, [r0, #12]
 8001dfc:	7103      	strb	r3, [r0, #4]
 8001dfe:	f44f 7300 	mov.w	r3, #512	@ 0x200
 8001e02:	80c3      	strh	r3, [r0, #6]
 8001e04:	2302      	movs	r3, #2
 8001e06:	7243      	strb	r3, [r0, #9]
 8001e08:	2301      	movs	r3, #1
 8001e0a:	8143      	strh	r3, [r0, #10]
 8001e0c:	81c3      	strh	r3, [r0, #14]
 8001e0e:	f000 ff49 	bl	8002ca4 <HAL_PCD_Init>
 8001e12:	b118      	cbz	r0, 8001e1c <MX_USB_OTG_FS_PCD_Init+0x30>
 8001e14:	e8bd 4008 	ldmia.w	sp!, {r3, lr}
 8001e18:	f7fe bda4 	b.w	8000964 <Error_Handler>
 8001e1c:	bd08      	pop	{r3, pc}
 8001e1e:	bf00      	nop
 8001e20:	200005a4 	.word	0x200005a4

08001e24 <HAL_PCD_MspInit>:
 8001e24:	b530      	push	{r4, r5, lr}
 8001e26:	b0ad      	sub	sp, #180	@ 0xb4
 8001e28:	4604      	mov	r4, r0
 8001e2a:	2214      	movs	r2, #20
 8001e2c:	2100      	movs	r1, #0
 8001e2e:	a803      	add	r0, sp, #12
 8001e30:	f003 fc2a 	bl	8005688 <memset>
 8001e34:	2290      	movs	r2, #144	@ 0x90
 8001e36:	2100      	movs	r1, #0
 8001e38:	a808      	add	r0, sp, #32
 8001e3a:	f003 fc25 	bl	8005688 <memset>
 8001e3e:	6823      	ldr	r3, [r4, #0]
 8001e40:	f1b3 4fa0 	cmp.w	r3, #1342177280	@ 0x50000000
 8001e44:	d13c      	bne.n	8001ec0 <HAL_PCD_MspInit+0x9c>
 8001e46:	f44f 1300 	mov.w	r3, #2097152	@ 0x200000
 8001e4a:	a808      	add	r0, sp, #32
 8001e4c:	9308      	str	r3, [sp, #32]
 8001e4e:	f001 faa1 	bl	8003394 <HAL_RCCEx_PeriphCLKConfig>
 8001e52:	b108      	cbz	r0, 8001e58 <HAL_PCD_MspInit+0x34>
 8001e54:	f7fe fd86 	bl	8000964 <Error_Handler>
 8001e58:	4c1a      	ldr	r4, [pc, #104]	@ (8001ec4 <HAL_PCD_MspInit+0xa0>)
 8001e5a:	f44f 52e8 	mov.w	r2, #7424	@ 0x1d00
 8001e5e:	2500      	movs	r5, #0
 8001e60:	a903      	add	r1, sp, #12
 8001e62:	6b23      	ldr	r3, [r4, #48]	@ 0x30
 8001e64:	4818      	ldr	r0, [pc, #96]	@ (8001ec8 <HAL_PCD_MspInit+0xa4>)
 8001e66:	f043 0301 	orr.w	r3, r3, #1
 8001e6a:	6323      	str	r3, [r4, #48]	@ 0x30
 8001e6c:	6b23      	ldr	r3, [r4, #48]	@ 0x30
 8001e6e:	f003 0301 	and.w	r3, r3, #1
 8001e72:	9300      	str	r3, [sp, #0]
 8001e74:	9b00      	ldr	r3, [sp, #0]
 8001e76:	2302      	movs	r3, #2
 8001e78:	e9cd 2303 	strd	r2, r3, [sp, #12]
 8001e7c:	2303      	movs	r3, #3
 8001e7e:	e9cd 5305 	strd	r5, r3, [sp, #20]
 8001e82:	230a      	movs	r3, #10
 8001e84:	9307      	str	r3, [sp, #28]
 8001e86:	f000 fe09 	bl	8002a9c <HAL_GPIO_Init>
 8001e8a:	f44f 7300 	mov.w	r3, #512	@ 0x200
 8001e8e:	a903      	add	r1, sp, #12
 8001e90:	480d      	ldr	r0, [pc, #52]	@ (8001ec8 <HAL_PCD_MspInit+0xa4>)
 8001e92:	9505      	str	r5, [sp, #20]
 8001e94:	e9cd 3503 	strd	r3, r5, [sp, #12]
 8001e98:	f000 fe00 	bl	8002a9c <HAL_GPIO_Init>
 8001e9c:	6b63      	ldr	r3, [r4, #52]	@ 0x34
 8001e9e:	f043 0380 	orr.w	r3, r3, #128	@ 0x80
 8001ea2:	6363      	str	r3, [r4, #52]	@ 0x34
 8001ea4:	6b63      	ldr	r3, [r4, #52]	@ 0x34
 8001ea6:	f003 0380 	and.w	r3, r3, #128	@ 0x80
 8001eaa:	9301      	str	r3, [sp, #4]
 8001eac:	9b01      	ldr	r3, [sp, #4]
 8001eae:	6c63      	ldr	r3, [r4, #68]	@ 0x44
 8001eb0:	f443 4380 	orr.w	r3, r3, #16384	@ 0x4000
 8001eb4:	6463      	str	r3, [r4, #68]	@ 0x44
 8001eb6:	6c63      	ldr	r3, [r4, #68]	@ 0x44
 8001eb8:	f403 4380 	and.w	r3, r3, #16384	@ 0x4000
 8001ebc:	9302      	str	r3, [sp, #8]
 8001ebe:	9b02      	ldr	r3, [sp, #8]
 8001ec0:	b02d      	add	sp, #180	@ 0xb4
 8001ec2:	bd30      	pop	{r4, r5, pc}
 8001ec4:	40023800 	.word	0x40023800
 8001ec8:	40020000 	.word	0x40020000

08001ecc <esp_send>:
 8001ecc:	b510      	push	{r4, lr}
 8001ece:	4604      	mov	r4, r0
 8001ed0:	f7fe f9c0 	bl	8000254 <strlen>
 8001ed4:	f04f 33ff 	mov.w	r3, #4294967295
 8001ed8:	b282      	uxth	r2, r0
 8001eda:	4621      	mov	r1, r4
 8001edc:	4803      	ldr	r0, [pc, #12]	@ (8001eec <esp_send+0x20>)
 8001ede:	f002 ff42 	bl	8004d66 <HAL_UART_Transmit>
 8001ee2:	20c8      	movs	r0, #200	@ 0xc8
 8001ee4:	e8bd 4010 	ldmia.w	sp!, {r4, lr}
 8001ee8:	f000 bbbe 	b.w	8002668 <HAL_Delay>
 8001eec:	2000051c 	.word	0x2000051c

08001ef0 <rx_trim_to_tail>:
 8001ef0:	b538      	push	{r3, r4, r5, lr}
 8001ef2:	4d08      	ldr	r5, [pc, #32]	@ (8001f14 <rx_trim_to_tail+0x24>)
 8001ef4:	4604      	mov	r4, r0
 8001ef6:	8829      	ldrh	r1, [r5, #0]
 8001ef8:	4281      	cmp	r1, r0
 8001efa:	d90a      	bls.n	8001f12 <rx_trim_to_tail+0x22>
 8001efc:	4b06      	ldr	r3, [pc, #24]	@ (8001f18 <rx_trim_to_tail+0x28>)
 8001efe:	1a09      	subs	r1, r1, r0
 8001f00:	4602      	mov	r2, r0
 8001f02:	fa13 f181 	uxtah	r1, r3, r1
 8001f06:	4618      	mov	r0, r3
 8001f08:	f003 fba4 	bl	8005654 <memmove>
 8001f0c:	2200      	movs	r2, #0
 8001f0e:	802c      	strh	r4, [r5, #0]
 8001f10:	5502      	strb	r2, [r0, r4]
 8001f12:	bd38      	pop	{r3, r4, r5, pc}
 8001f14:	20001a26 	.word	0x20001a26
 8001f18:	20001a28 	.word	0x20001a28

08001f1c <rx_push_byte>:
 8001f1c:	b538      	push	{r3, r4, r5, lr}
 8001f1e:	4d0a      	ldr	r5, [pc, #40]	@ (8001f48 <rx_push_byte+0x2c>)
 8001f20:	f640 73fe 	movw	r3, #4094	@ 0xffe
 8001f24:	4604      	mov	r4, r0
 8001f26:	882a      	ldrh	r2, [r5, #0]
 8001f28:	429a      	cmp	r2, r3
 8001f2a:	d903      	bls.n	8001f34 <rx_push_byte+0x18>
 8001f2c:	f44f 7000 	mov.w	r0, #512	@ 0x200
 8001f30:	f7ff ffde 	bl	8001ef0 <rx_trim_to_tail>
 8001f34:	8829      	ldrh	r1, [r5, #0]
 8001f36:	4a05      	ldr	r2, [pc, #20]	@ (8001f4c <rx_push_byte+0x30>)
 8001f38:	1c4b      	adds	r3, r1, #1
 8001f3a:	5454      	strb	r4, [r2, r1]
 8001f3c:	2100      	movs	r1, #0
 8001f3e:	b29b      	uxth	r3, r3
 8001f40:	802b      	strh	r3, [r5, #0]
 8001f42:	54d1      	strb	r1, [r2, r3]
 8001f44:	bd38      	pop	{r3, r4, r5, pc}
 8001f46:	bf00      	nop
 8001f48:	20001a26 	.word	0x20001a26
 8001f4c:	20001a28 	.word	0x20001a28

08001f50 <wait_for_string>:
 8001f50:	e92d 41f3 	stmdb	sp!, {r0, r1, r4, r5, r6, r7, r8, lr}
 8001f54:	4605      	mov	r5, r0
 8001f56:	460e      	mov	r6, r1
 8001f58:	2400      	movs	r4, #0
 8001f5a:	f000 fb7f 	bl	800265c <HAL_GetTick>
 8001f5e:	f8df 8050 	ldr.w	r8, [pc, #80]	@ 8001fb0 <wait_for_string+0x60>
 8001f62:	4607      	mov	r7, r0
 8001f64:	f000 fb7a 	bl	800265c <HAL_GetTick>
 8001f68:	1bc3      	subs	r3, r0, r7
 8001f6a:	42b3      	cmp	r3, r6
 8001f6c:	d303      	bcc.n	8001f76 <wait_for_string+0x26>
 8001f6e:	2000      	movs	r0, #0
 8001f70:	b002      	add	sp, #8
 8001f72:	e8bd 81f0 	ldmia.w	sp!, {r4, r5, r6, r7, r8, pc}
 8001f76:	230a      	movs	r3, #10
 8001f78:	2201      	movs	r2, #1
 8001f7a:	f10d 0107 	add.w	r1, sp, #7
 8001f7e:	4640      	mov	r0, r8
 8001f80:	f002 ff42 	bl	8004e08 <HAL_UART_Receive>
 8001f84:	2800      	cmp	r0, #0
 8001f86:	d1ed      	bne.n	8001f64 <wait_for_string+0x14>
 8001f88:	f89d 0007 	ldrb.w	r0, [sp, #7]
 8001f8c:	f7ff ffc6 	bl	8001f1c <rx_push_byte>
 8001f90:	f89d 3007 	ldrb.w	r3, [sp, #7]
 8001f94:	5d2a      	ldrb	r2, [r5, r4]
 8001f96:	429a      	cmp	r2, r3
 8001f98:	d105      	bne.n	8001fa6 <wait_for_string+0x56>
 8001f9a:	3401      	adds	r4, #1
 8001f9c:	5d2b      	ldrb	r3, [r5, r4]
 8001f9e:	2b00      	cmp	r3, #0
 8001fa0:	d1e0      	bne.n	8001f64 <wait_for_string+0x14>
 8001fa2:	2001      	movs	r0, #1
 8001fa4:	e7e4      	b.n	8001f70 <wait_for_string+0x20>
 8001fa6:	782c      	ldrb	r4, [r5, #0]
 8001fa8:	1ae3      	subs	r3, r4, r3
 8001faa:	425c      	negs	r4, r3
 8001fac:	415c      	adcs	r4, r3
 8001fae:	e7d9      	b.n	8001f64 <wait_for_string+0x14>
 8001fb0:	2000051c 	.word	0x2000051c

08001fb4 <send_http>:
 8001fb4:	b570      	push	{r4, r5, r6, lr}
 8001fb6:	2301      	movs	r3, #1
 8001fb8:	b090      	sub	sp, #64	@ 0x40
 8001fba:	4605      	mov	r5, r0
 8001fbc:	4e1e      	ldr	r6, [pc, #120]	@ (8002038 <send_http+0x84>)
 8001fbe:	4608      	mov	r0, r1
 8001fc0:	460c      	mov	r4, r1
 8001fc2:	7033      	strb	r3, [r6, #0]
 8001fc4:	f7fe f946 	bl	8000254 <strlen>
 8001fc8:	462a      	mov	r2, r5
 8001fca:	4603      	mov	r3, r0
 8001fcc:	491b      	ldr	r1, [pc, #108]	@ (800203c <send_http+0x88>)
 8001fce:	4668      	mov	r0, sp
 8001fd0:	f003 fb1e 	bl	8005610 <siprintf>
 8001fd4:	4668      	mov	r0, sp
 8001fd6:	f7fe f93d 	bl	8000254 <strlen>
 8001fda:	4669      	mov	r1, sp
 8001fdc:	b282      	uxth	r2, r0
 8001fde:	f04f 33ff 	mov.w	r3, #4294967295
 8001fe2:	4817      	ldr	r0, [pc, #92]	@ (8002040 <send_http+0x8c>)
 8001fe4:	f002 febf 	bl	8004d66 <HAL_UART_Transmit>
 8001fe8:	f44f 61fa 	mov.w	r1, #2000	@ 0x7d0
 8001fec:	4815      	ldr	r0, [pc, #84]	@ (8002044 <send_http+0x90>)
 8001fee:	f7ff ffaf 	bl	8001f50 <wait_for_string>
 8001ff2:	b1e8      	cbz	r0, 8002030 <send_http+0x7c>
 8001ff4:	4620      	mov	r0, r4
 8001ff6:	f7fe f92d 	bl	8000254 <strlen>
 8001ffa:	f04f 33ff 	mov.w	r3, #4294967295
 8001ffe:	b282      	uxth	r2, r0
 8002000:	4621      	mov	r1, r4
 8002002:	480f      	ldr	r0, [pc, #60]	@ (8002040 <send_http+0x8c>)
 8002004:	f002 feaf 	bl	8004d66 <HAL_UART_Transmit>
 8002008:	f640 31b8 	movw	r1, #3000	@ 0xbb8
 800200c:	480e      	ldr	r0, [pc, #56]	@ (8002048 <send_http+0x94>)
 800200e:	f7ff ff9f 	bl	8001f50 <wait_for_string>
 8002012:	462a      	mov	r2, r5
 8002014:	490d      	ldr	r1, [pc, #52]	@ (800204c <send_http+0x98>)
 8002016:	4668      	mov	r0, sp
 8002018:	f003 fafa 	bl	8005610 <siprintf>
 800201c:	4668      	mov	r0, sp
 800201e:	f7fe f919 	bl	8000254 <strlen>
 8002022:	f04f 33ff 	mov.w	r3, #4294967295
 8002026:	b282      	uxth	r2, r0
 8002028:	4669      	mov	r1, sp
 800202a:	4805      	ldr	r0, [pc, #20]	@ (8002040 <send_http+0x8c>)
 800202c:	f002 fe9b 	bl	8004d66 <HAL_UART_Transmit>
 8002030:	2300      	movs	r3, #0
 8002032:	7033      	strb	r3, [r6, #0]
 8002034:	b010      	add	sp, #64	@ 0x40
 8002036:	bd70      	pop	{r4, r5, r6, pc}
 8002038:	20001a24 	.word	0x20001a24
 800203c:	08005fd1 	.word	0x08005fd1
 8002040:	2000051c 	.word	0x2000051c
 8002044:	08005fe4 	.word	0x08005fe4
 8002048:	08005fe6 	.word	0x08005fe6
 800204c:	08005fee 	.word	0x08005fee

08002050 <send_json_state>:
 8002050:	b570      	push	{r4, r5, r6, lr}
 8002052:	4604      	mov	r4, r0
 8002054:	f5ad 7d4a 	sub.w	sp, sp, #808	@ 0x328
 8002058:	4818      	ldr	r0, [pc, #96]	@ (80020bc <send_json_state+0x6c>)
 800205a:	9309      	str	r3, [sp, #36]	@ 0x24
 800205c:	ad0a      	add	r5, sp, #40	@ 0x28
 800205e:	6983      	ldr	r3, [r0, #24]
 8002060:	9308      	str	r3, [sp, #32]
 8002062:	4b17      	ldr	r3, [pc, #92]	@ (80020c0 <send_json_state+0x70>)
 8002064:	699e      	ldr	r6, [r3, #24]
 8002066:	9607      	str	r6, [sp, #28]
 8002068:	69c0      	ldr	r0, [r0, #28]
 800206a:	9006      	str	r0, [sp, #24]
 800206c:	4628      	mov	r0, r5
 800206e:	69db      	ldr	r3, [r3, #28]
 8002070:	9305      	str	r3, [sp, #20]
 8002072:	4b14      	ldr	r3, [pc, #80]	@ (80020c4 <send_json_state+0x74>)
 8002074:	681b      	ldr	r3, [r3, #0]
 8002076:	9304      	str	r3, [sp, #16]
 8002078:	4b13      	ldr	r3, [pc, #76]	@ (80020c8 <send_json_state+0x78>)
 800207a:	681b      	ldr	r3, [r3, #0]
 800207c:	9303      	str	r3, [sp, #12]
 800207e:	4b13      	ldr	r3, [pc, #76]	@ (80020cc <send_json_state+0x7c>)
 8002080:	681b      	ldr	r3, [r3, #0]
 8002082:	9302      	str	r3, [sp, #8]
 8002084:	4b12      	ldr	r3, [pc, #72]	@ (80020d0 <send_json_state+0x80>)
 8002086:	681b      	ldr	r3, [r3, #0]
 8002088:	e9cd 1300 	strd	r1, r3, [sp]
 800208c:	4613      	mov	r3, r2
 800208e:	f44f 7180 	mov.w	r1, #256	@ 0x100
 8002092:	4a10      	ldr	r2, [pc, #64]	@ (80020d4 <send_json_state+0x84>)
 8002094:	f003 fa86 	bl	80055a4 <sniprintf>
 8002098:	4628      	mov	r0, r5
 800209a:	f7fe f8db 	bl	8000254 <strlen>
 800209e:	4a0e      	ldr	r2, [pc, #56]	@ (80020d8 <send_json_state+0x88>)
 80020a0:	4603      	mov	r3, r0
 80020a2:	f44f 7100 	mov.w	r1, #512	@ 0x200
 80020a6:	a84a      	add	r0, sp, #296	@ 0x128
 80020a8:	9500      	str	r5, [sp, #0]
 80020aa:	f003 fa7b 	bl	80055a4 <sniprintf>
 80020ae:	a94a      	add	r1, sp, #296	@ 0x128
 80020b0:	4620      	mov	r0, r4
 80020b2:	f7ff ff7f 	bl	8001fb4 <send_http>
 80020b6:	f50d 7d4a 	add.w	sp, sp, #808	@ 0x328
 80020ba:	bd70      	pop	{r4, r5, r6, pc}
 80020bc:	20000098 	.word	0x20000098
 80020c0:	200000d4 	.word	0x200000d4
 80020c4:	20000088 	.word	0x20000088
 80020c8:	20000080 	.word	0x20000080
 80020cc:	20000084 	.word	0x20000084
 80020d0:	2000007c 	.word	0x2000007c
 80020d4:	08005fff 	.word	0x08005fff
 80020d8:	08006077 	.word	0x08006077

080020dc <handle_request.constprop.0>:
 80020dc:	e92d 41f0 	stmdb	sp!, {r4, r5, r6, r7, r8, lr}
 80020e0:	2209      	movs	r2, #9
 80020e2:	f5ad 7d6c 	sub.w	sp, sp, #944	@ 0x3b0
 80020e6:	4605      	mov	r5, r0
 80020e8:	497d      	ldr	r1, [pc, #500]	@ (80022e0 <handle_request.constprop.0+0x204>)
 80020ea:	487e      	ldr	r0, [pc, #504]	@ (80022e4 <handle_request.constprop.0+0x208>)
 80020ec:	f003 fae1 	bl	80056b2 <strncmp>
 80020f0:	b938      	cbnz	r0, 8002102 <handle_request.constprop.0+0x26>
 80020f2:	497d      	ldr	r1, [pc, #500]	@ (80022e8 <handle_request.constprop.0+0x20c>)
 80020f4:	4628      	mov	r0, r5
 80020f6:	f50d 7d6c 	add.w	sp, sp, #944	@ 0x3b0
 80020fa:	e8bd 41f0 	ldmia.w	sp!, {r4, r5, r6, r7, r8, lr}
 80020fe:	f7ff bf59 	b.w	8001fb4 <send_http>
 8002102:	2210      	movs	r2, #16
 8002104:	4979      	ldr	r1, [pc, #484]	@ (80022ec <handle_request.constprop.0+0x210>)
 8002106:	4877      	ldr	r0, [pc, #476]	@ (80022e4 <handle_request.constprop.0+0x208>)
 8002108:	f003 fad3 	bl	80056b2 <strncmp>
 800210c:	b908      	cbnz	r0, 8002112 <handle_request.constprop.0+0x36>
 800210e:	4978      	ldr	r1, [pc, #480]	@ (80022f0 <handle_request.constprop.0+0x214>)
 8002110:	e7f0      	b.n	80020f4 <handle_request.constprop.0+0x18>
 8002112:	2206      	movs	r2, #6
 8002114:	4977      	ldr	r1, [pc, #476]	@ (80022f4 <handle_request.constprop.0+0x218>)
 8002116:	4873      	ldr	r0, [pc, #460]	@ (80022e4 <handle_request.constprop.0+0x208>)
 8002118:	f003 facb 	bl	80056b2 <strncmp>
 800211c:	b958      	cbnz	r0, 8002136 <handle_request.constprop.0+0x5a>
 800211e:	4b76      	ldr	r3, [pc, #472]	@ (80022f8 <handle_request.constprop.0+0x21c>)
 8002120:	f44f 6116 	mov.w	r1, #2400	@ 0x960
 8002124:	4a75      	ldr	r2, [pc, #468]	@ (80022fc <handle_request.constprop.0+0x220>)
 8002126:	9300      	str	r3, [sp, #0]
 8002128:	f44f 63cd 	mov.w	r3, #1640	@ 0x668
 800212c:	4874      	ldr	r0, [pc, #464]	@ (8002300 <handle_request.constprop.0+0x224>)
 800212e:	f003 fa39 	bl	80055a4 <sniprintf>
 8002132:	4973      	ldr	r1, [pc, #460]	@ (8002300 <handle_request.constprop.0+0x224>)
 8002134:	e7de      	b.n	80020f4 <handle_request.constprop.0+0x18>
 8002136:	2204      	movs	r2, #4
 8002138:	4972      	ldr	r1, [pc, #456]	@ (8002304 <handle_request.constprop.0+0x228>)
 800213a:	486a      	ldr	r0, [pc, #424]	@ (80022e4 <handle_request.constprop.0+0x208>)
 800213c:	f003 fab9 	bl	80056b2 <strncmp>
 8002140:	4607      	mov	r7, r0
 8002142:	2800      	cmp	r0, #0
 8002144:	d13a      	bne.n	80021bc <handle_request.constprop.0+0xe0>
 8002146:	f8df 821c 	ldr.w	r8, [pc, #540]	@ 8002364 <handle_request.constprop.0+0x288>
 800214a:	2120      	movs	r1, #32
 800214c:	4640      	mov	r0, r8
 800214e:	f003 faa3 	bl	8005698 <strchr>
 8002152:	2800      	cmp	r0, #0
 8002154:	d032      	beq.n	80021bc <handle_request.constprop.0+0xe0>
 8002156:	ebb0 0608 	subs.w	r6, r0, r8
 800215a:	d02f      	beq.n	80021bc <handle_request.constprop.0+0xe0>
 800215c:	2e9f      	cmp	r6, #159	@ 0x9f
 800215e:	ac04      	add	r4, sp, #16
 8002160:	4641      	mov	r1, r8
 8002162:	bf28      	it	cs
 8002164:	269f      	movcs	r6, #159	@ 0x9f
 8002166:	4620      	mov	r0, r4
 8002168:	4632      	mov	r2, r6
 800216a:	f003 fb07 	bl	800577c <memcpy>
 800216e:	220a      	movs	r2, #10
 8002170:	4965      	ldr	r1, [pc, #404]	@ (8002308 <handle_request.constprop.0+0x22c>)
 8002172:	4620      	mov	r0, r4
 8002174:	55a7      	strb	r7, [r4, r6]
 8002176:	f003 fa9c 	bl	80056b2 <strncmp>
 800217a:	bb48      	cbnz	r0, 80021d0 <handle_request.constprop.0+0xf4>
 800217c:	4a63      	ldr	r2, [pc, #396]	@ (800230c <handle_request.constprop.0+0x230>)
 800217e:	ac2c      	add	r4, sp, #176	@ 0xb0
 8002180:	4b63      	ldr	r3, [pc, #396]	@ (8002310 <handle_request.constprop.0+0x234>)
 8002182:	6991      	ldr	r1, [r2, #24]
 8002184:	4620      	mov	r0, r4
 8002186:	9102      	str	r1, [sp, #8]
 8002188:	6999      	ldr	r1, [r3, #24]
 800218a:	9101      	str	r1, [sp, #4]
 800218c:	f44f 7180 	mov.w	r1, #256	@ 0x100
 8002190:	69d2      	ldr	r2, [r2, #28]
 8002192:	9200      	str	r2, [sp, #0]
 8002194:	4a5f      	ldr	r2, [pc, #380]	@ (8002314 <handle_request.constprop.0+0x238>)
 8002196:	69db      	ldr	r3, [r3, #28]
 8002198:	f003 fa04 	bl	80055a4 <sniprintf>
 800219c:	4620      	mov	r0, r4
 800219e:	f7fe f859 	bl	8000254 <strlen>
 80021a2:	f44f 7100 	mov.w	r1, #512	@ 0x200
 80021a6:	4603      	mov	r3, r0
 80021a8:	4a5b      	ldr	r2, [pc, #364]	@ (8002318 <handle_request.constprop.0+0x23c>)
 80021aa:	a86c      	add	r0, sp, #432	@ 0x1b0
 80021ac:	9400      	str	r4, [sp, #0]
 80021ae:	f003 f9f9 	bl	80055a4 <sniprintf>
 80021b2:	a96c      	add	r1, sp, #432	@ 0x1b0
 80021b4:	4628      	mov	r0, r5
 80021b6:	f7ff fefd 	bl	8001fb4 <send_http>
 80021ba:	e02f      	b.n	800221c <handle_request.constprop.0+0x140>
 80021bc:	4b57      	ldr	r3, [pc, #348]	@ (800231c <handle_request.constprop.0+0x240>)
 80021be:	2200      	movs	r2, #0
 80021c0:	4957      	ldr	r1, [pc, #348]	@ (8002320 <handle_request.constprop.0+0x244>)
 80021c2:	4628      	mov	r0, r5
 80021c4:	f50d 7d6c 	add.w	sp, sp, #944	@ 0x3b0
 80021c8:	e8bd 41f0 	ldmia.w	sp!, {r4, r5, r6, r7, r8, lr}
 80021cc:	f7ff bf40 	b.w	8002050 <send_json_state>
 80021d0:	2207      	movs	r2, #7
 80021d2:	4954      	ldr	r1, [pc, #336]	@ (8002324 <handle_request.constprop.0+0x248>)
 80021d4:	4620      	mov	r0, r4
 80021d6:	f88d 71b0 	strb.w	r7, [sp, #432]	@ 0x1b0
 80021da:	f003 fa6a 	bl	80056b2 <strncmp>
 80021de:	4606      	mov	r6, r0
 80021e0:	bb00      	cbnz	r0, 8002224 <handle_request.constprop.0+0x148>
 80021e2:	f10d 0017 	add.w	r0, sp, #23
 80021e6:	f7fe f835 	bl	8000254 <strlen>
 80021ea:	2803      	cmp	r0, #3
 80021ec:	d976      	bls.n	80022dc <handle_request.constprop.0+0x200>
 80021ee:	79e3      	ldrb	r3, [r4, #7]
 80021f0:	f88d 61b4 	strb.w	r6, [sp, #436]	@ 0x1b4
 80021f4:	f88d 31b0 	strb.w	r3, [sp, #432]	@ 0x1b0
 80021f8:	7a23      	ldrb	r3, [r4, #8]
 80021fa:	f88d 31b1 	strb.w	r3, [sp, #433]	@ 0x1b1
 80021fe:	7a63      	ldrb	r3, [r4, #9]
 8002200:	f88d 31b2 	strb.w	r3, [sp, #434]	@ 0x1b2
 8002204:	7aa3      	ldrb	r3, [r4, #10]
 8002206:	f88d 31b3 	strb.w	r3, [sp, #435]	@ 0x1b3
 800220a:	a86c      	add	r0, sp, #432	@ 0x1b0
 800220c:	f7fe fd30 	bl	8000c70 <ProcessCommand>
 8002210:	4b43      	ldr	r3, [pc, #268]	@ (8002320 <handle_request.constprop.0+0x244>)
 8002212:	2201      	movs	r2, #1
 8002214:	a96c      	add	r1, sp, #432	@ 0x1b0
 8002216:	4628      	mov	r0, r5
 8002218:	f7ff ff1a 	bl	8002050 <send_json_state>
 800221c:	f50d 7d6c 	add.w	sp, sp, #944	@ 0x3b0
 8002220:	e8bd 81f0 	ldmia.w	sp!, {r4, r5, r6, r7, r8, pc}
 8002224:	4940      	ldr	r1, [pc, #256]	@ (8002328 <handle_request.constprop.0+0x24c>)
 8002226:	4620      	mov	r0, r4
 8002228:	f7fe f80a 	bl	8000240 <strcmp>
 800222c:	b920      	cbnz	r0, 8002238 <handle_request.constprop.0+0x15c>
 800222e:	4b3f      	ldr	r3, [pc, #252]	@ (800232c <handle_request.constprop.0+0x250>)
 8002230:	936c      	str	r3, [sp, #432]	@ 0x1b0
 8002232:	f88d 01b4 	strb.w	r0, [sp, #436]	@ 0x1b4
 8002236:	e7e8      	b.n	800220a <handle_request.constprop.0+0x12e>
 8002238:	493d      	ldr	r1, [pc, #244]	@ (8002330 <handle_request.constprop.0+0x254>)
 800223a:	4620      	mov	r0, r4
 800223c:	f7fe f800 	bl	8000240 <strcmp>
 8002240:	b928      	cbnz	r0, 800224e <handle_request.constprop.0+0x172>
 8002242:	4b3c      	ldr	r3, [pc, #240]	@ (8002334 <handle_request.constprop.0+0x258>)
 8002244:	936c      	str	r3, [sp, #432]	@ 0x1b0
 8002246:	2300      	movs	r3, #0
 8002248:	f88d 31b4 	strb.w	r3, [sp, #436]	@ 0x1b4
 800224c:	e7dd      	b.n	800220a <handle_request.constprop.0+0x12e>
 800224e:	493a      	ldr	r1, [pc, #232]	@ (8002338 <handle_request.constprop.0+0x25c>)
 8002250:	4620      	mov	r0, r4
 8002252:	f7fd fff5 	bl	8000240 <strcmp>
 8002256:	b908      	cbnz	r0, 800225c <handle_request.constprop.0+0x180>
 8002258:	4b38      	ldr	r3, [pc, #224]	@ (800233c <handle_request.constprop.0+0x260>)
 800225a:	e7e9      	b.n	8002230 <handle_request.constprop.0+0x154>
 800225c:	4938      	ldr	r1, [pc, #224]	@ (8002340 <handle_request.constprop.0+0x264>)
 800225e:	4620      	mov	r0, r4
 8002260:	f7fd ffee 	bl	8000240 <strcmp>
 8002264:	b908      	cbnz	r0, 800226a <handle_request.constprop.0+0x18e>
 8002266:	4b37      	ldr	r3, [pc, #220]	@ (8002344 <handle_request.constprop.0+0x268>)
 8002268:	e7e2      	b.n	8002230 <handle_request.constprop.0+0x154>
 800226a:	4937      	ldr	r1, [pc, #220]	@ (8002348 <handle_request.constprop.0+0x26c>)
 800226c:	4620      	mov	r0, r4
 800226e:	f7fd ffe7 	bl	8000240 <strcmp>
 8002272:	b908      	cbnz	r0, 8002278 <handle_request.constprop.0+0x19c>
 8002274:	4b35      	ldr	r3, [pc, #212]	@ (800234c <handle_request.constprop.0+0x270>)
 8002276:	e7db      	b.n	8002230 <handle_request.constprop.0+0x154>
 8002278:	2206      	movs	r2, #6
 800227a:	4935      	ldr	r1, [pc, #212]	@ (8002350 <handle_request.constprop.0+0x274>)
 800227c:	4620      	mov	r0, r4
 800227e:	f003 fa18 	bl	80056b2 <strncmp>
 8002282:	bb58      	cbnz	r0, 80022dc <handle_request.constprop.0+0x200>
 8002284:	2207      	movs	r2, #7
 8002286:	4933      	ldr	r1, [pc, #204]	@ (8002354 <handle_request.constprop.0+0x278>)
 8002288:	4620      	mov	r0, r4
 800228a:	f003 fa12 	bl	80056b2 <strncmp>
 800228e:	b990      	cbnz	r0, 80022b6 <handle_request.constprop.0+0x1da>
 8002290:	f10d 0017 	add.w	r0, sp, #23
 8002294:	f003 f850 	bl	8005338 <atoi>
 8002298:	1e43      	subs	r3, r0, #1
 800229a:	2b08      	cmp	r3, #8
 800229c:	d81e      	bhi.n	80022dc <handle_request.constprop.0+0x200>
 800229e:	f644 5343 	movw	r3, #19779	@ 0x4d43
 80022a2:	f8ad 31b0 	strh.w	r3, [sp, #432]	@ 0x1b0
 80022a6:	2344      	movs	r3, #68	@ 0x44
 80022a8:	f88d 31b2 	strb.w	r3, [sp, #434]	@ 0x1b2
 80022ac:	f100 0330 	add.w	r3, r0, #48	@ 0x30
 80022b0:	f88d 31b3 	strb.w	r3, [sp, #435]	@ 0x1b3
 80022b4:	e7c7      	b.n	8002246 <handle_request.constprop.0+0x16a>
 80022b6:	4620      	mov	r0, r4
 80022b8:	213f      	movs	r1, #63	@ 0x3f
 80022ba:	f003 f9ed 	bl	8005698 <strchr>
 80022be:	4604      	mov	r4, r0
 80022c0:	b160      	cbz	r0, 80022dc <handle_request.constprop.0+0x200>
 80022c2:	4925      	ldr	r1, [pc, #148]	@ (8002358 <handle_request.constprop.0+0x27c>)
 80022c4:	f003 fa07 	bl	80056d6 <strstr>
 80022c8:	b108      	cbz	r0, 80022ce <handle_request.constprop.0+0x1f2>
 80022ca:	3005      	adds	r0, #5
 80022cc:	e7e2      	b.n	8002294 <handle_request.constprop.0+0x1b8>
 80022ce:	4923      	ldr	r1, [pc, #140]	@ (800235c <handle_request.constprop.0+0x280>)
 80022d0:	4620      	mov	r0, r4
 80022d2:	f003 fa00 	bl	80056d6 <strstr>
 80022d6:	b108      	cbz	r0, 80022dc <handle_request.constprop.0+0x200>
 80022d8:	3002      	adds	r0, #2
 80022da:	e7db      	b.n	8002294 <handle_request.constprop.0+0x1b8>
 80022dc:	4920      	ldr	r1, [pc, #128]	@ (8002360 <handle_request.constprop.0+0x284>)
 80022de:	e769      	b.n	80021b4 <handle_request.constprop.0+0xd8>
 80022e0:	080060ed 	.word	0x080060ed
 80022e4:	20000a84 	.word	0x20000a84
 80022e8:	080060f7 	.word	0x080060f7
 80022ec:	08006172 	.word	0x08006172
 80022f0:	08006183 	.word	0x08006183
 80022f4:	080061d0 	.word	0x080061d0
 80022f8:	08006463 	.word	0x08006463
 80022fc:	080061d7 	.word	0x080061d7
 8002300:	200010c4 	.word	0x200010c4
 8002304:	08006255 	.word	0x08006255
 8002308:	0800625a 	.word	0x0800625a
 800230c:	20000098 	.word	0x20000098
 8002310:	200000d4 	.word	0x200000d4
 8002314:	08006271 	.word	0x08006271
 8002318:	08006077 	.word	0x08006077
 800231c:	08006265 	.word	0x08006265
 8002320:	080061cf 	.word	0x080061cf
 8002324:	080062a8 	.word	0x080062a8
 8002328:	080062b0 	.word	0x080062b0
 800232c:	30444d43 	.word	0x30444d43
 8002330:	080062b8 	.word	0x080062b8
 8002334:	41444d43 	.word	0x41444d43
 8002338:	080062c0 	.word	0x080062c0
 800233c:	42444d43 	.word	0x42444d43
 8002340:	080062c6 	.word	0x080062c6
 8002344:	43444d43 	.word	0x43444d43
 8002348:	080062cb 	.word	0x080062cb
 800234c:	54494e49 	.word	0x54494e49
 8002350:	080062d1 	.word	0x080062d1
 8002354:	080062d8 	.word	0x080062d8
 8002358:	080062e0 	.word	0x080062e0
 800235c:	080062e6 	.word	0x080062e6
 8002360:	080062e9 	.word	0x080062e9
 8002364:	20000a88 	.word	0x20000a88

08002368 <process_rx_buffer>:
 8002368:	e92d 47f0 	stmdb	sp!, {r4, r5, r6, r7, r8, r9, sl, lr}
 800236c:	4c43      	ldr	r4, [pc, #268]	@ (800247c <process_rx_buffer+0x114>)
 800236e:	4f44      	ldr	r7, [pc, #272]	@ (8002480 <process_rx_buffer+0x118>)
 8002370:	4e44      	ldr	r6, [pc, #272]	@ (8002484 <process_rx_buffer+0x11c>)
 8002372:	4639      	mov	r1, r7
 8002374:	4841      	ldr	r0, [pc, #260]	@ (800247c <process_rx_buffer+0x114>)
 8002376:	f003 f9ae 	bl	80056d6 <strstr>
 800237a:	b950      	cbnz	r0, 8002392 <process_rx_buffer+0x2a>
 800237c:	4b41      	ldr	r3, [pc, #260]	@ (8002484 <process_rx_buffer+0x11c>)
 800237e:	881b      	ldrh	r3, [r3, #0]
 8002380:	f5b3 6f80 	cmp.w	r3, #1024	@ 0x400
 8002384:	d94e      	bls.n	8002424 <process_rx_buffer+0xbc>
 8002386:	f44f 7080 	mov.w	r0, #256	@ 0x100
 800238a:	e8bd 47f0 	ldmia.w	sp!, {r4, r5, r6, r7, r8, r9, sl, lr}
 800238e:	f7ff bdaf 	b.w	8001ef0 <rx_trim_to_tail>
 8002392:	42a0      	cmp	r0, r4
 8002394:	d013      	beq.n	80023be <process_rx_buffer+0x56>
 8002396:	1b05      	subs	r5, r0, r4
 8002398:	f8b6 8000 	ldrh.w	r8, [r6]
 800239c:	4620      	mov	r0, r4
 800239e:	b2aa      	uxth	r2, r5
 80023a0:	fa14 f185 	uxtah	r1, r4, r5
 80023a4:	eba8 0202 	sub.w	r2, r8, r2
 80023a8:	eba8 0805 	sub.w	r8, r8, r5
 80023ac:	f003 f952 	bl	8005654 <memmove>
 80023b0:	2300      	movs	r3, #0
 80023b2:	fa1f f888 	uxth.w	r8, r8
 80023b6:	f8a6 8000 	strh.w	r8, [r6]
 80023ba:	f804 3008 	strb.w	r3, [r4, r8]
 80023be:	4a32      	ldr	r2, [pc, #200]	@ (8002488 <process_rx_buffer+0x120>)
 80023c0:	f04f 0900 	mov.w	r9, #0
 80023c4:	f04f 0c0a 	mov.w	ip, #10
 80023c8:	f812 1b01 	ldrb.w	r1, [r2], #1
 80023cc:	f1a1 0030 	sub.w	r0, r1, #48	@ 0x30
 80023d0:	b2c5      	uxtb	r5, r0
 80023d2:	2d09      	cmp	r5, #9
 80023d4:	d928      	bls.n	8002428 <process_rx_buffer+0xc0>
 80023d6:	292c      	cmp	r1, #44	@ 0x2c
 80023d8:	d124      	bne.n	8002424 <process_rx_buffer+0xbc>
 80023da:	4613      	mov	r3, r2
 80023dc:	f04f 0e0a 	mov.w	lr, #10
 80023e0:	2200      	movs	r2, #0
 80023e2:	f813 0b01 	ldrb.w	r0, [r3], #1
 80023e6:	f1a0 0530 	sub.w	r5, r0, #48	@ 0x30
 80023ea:	fa5f fc85 	uxtb.w	ip, r5
 80023ee:	f1bc 0f09 	cmp.w	ip, #9
 80023f2:	d91c      	bls.n	800242e <process_rx_buffer+0xc6>
 80023f4:	283a      	cmp	r0, #58	@ 0x3a
 80023f6:	d115      	bne.n	8002424 <process_rx_buffer+0xbc>
 80023f8:	1b1d      	subs	r5, r3, r4
 80023fa:	4619      	mov	r1, r3
 80023fc:	f8b6 a000 	ldrh.w	sl, [r6]
 8002400:	fa12 f885 	uxtah	r8, r2, r5
 8002404:	b2ab      	uxth	r3, r5
 8002406:	f5b8 5f80 	cmp.w	r8, #4096	@ 0x1000
 800240a:	d313      	bcc.n	8002434 <process_rx_buffer+0xcc>
 800240c:	ebaa 0505 	sub.w	r5, sl, r5
 8002410:	ebaa 0203 	sub.w	r2, sl, r3
 8002414:	18e1      	adds	r1, r4, r3
 8002416:	4819      	ldr	r0, [pc, #100]	@ (800247c <process_rx_buffer+0x114>)
 8002418:	f003 f91c 	bl	8005654 <memmove>
 800241c:	2300      	movs	r3, #0
 800241e:	b2ad      	uxth	r5, r5
 8002420:	8035      	strh	r5, [r6, #0]
 8002422:	5563      	strb	r3, [r4, r5]
 8002424:	e8bd 87f0 	ldmia.w	sp!, {r4, r5, r6, r7, r8, r9, sl, pc}
 8002428:	fb0c 0909 	mla	r9, ip, r9, r0
 800242c:	e7cc      	b.n	80023c8 <process_rx_buffer+0x60>
 800242e:	fb0e 5202 	mla	r2, lr, r2, r5
 8002432:	e7d6      	b.n	80023e2 <process_rx_buffer+0x7a>
 8002434:	45c2      	cmp	sl, r8
 8002436:	d3f5      	bcc.n	8002424 <process_rx_buffer+0xbc>
 8002438:	b295      	uxth	r5, r2
 800243a:	f240 633f 	movw	r3, #1599	@ 0x63f
 800243e:	f04f 0a00 	mov.w	sl, #0
 8002442:	429d      	cmp	r5, r3
 8002444:	bf28      	it	cs
 8002446:	461d      	movcs	r5, r3
 8002448:	4b10      	ldr	r3, [pc, #64]	@ (800248c <process_rx_buffer+0x124>)
 800244a:	462a      	mov	r2, r5
 800244c:	4618      	mov	r0, r3
 800244e:	f003 f995 	bl	800577c <memcpy>
 8002452:	f800 a005 	strb.w	sl, [r0, r5]
 8002456:	fa5f f089 	uxtb.w	r0, r9
 800245a:	f7ff fe3f 	bl	80020dc <handle_request.constprop.0>
 800245e:	8835      	ldrh	r5, [r6, #0]
 8002460:	eb04 0108 	add.w	r1, r4, r8
 8002464:	4620      	mov	r0, r4
 8002466:	eba5 0508 	sub.w	r5, r5, r8
 800246a:	462a      	mov	r2, r5
 800246c:	b2ad      	uxth	r5, r5
 800246e:	f003 f8f1 	bl	8005654 <memmove>
 8002472:	8035      	strh	r5, [r6, #0]
 8002474:	f804 a005 	strb.w	sl, [r4, r5]
 8002478:	e77b      	b.n	8002372 <process_rx_buffer+0xa>
 800247a:	bf00      	nop
 800247c:	20001a28 	.word	0x20001a28
 8002480:	08006360 	.word	0x08006360
 8002484:	20001a26 	.word	0x20001a26
 8002488:	20001a2d 	.word	0x20001a2d
 800248c:	20000a84 	.word	0x20000a84

08002490 <WifiApi_Init>:
 8002490:	2300      	movs	r3, #0
 8002492:	4a1b      	ldr	r2, [pc, #108]	@ (8002500 <WifiApi_Init+0x70>)
 8002494:	481b      	ldr	r0, [pc, #108]	@ (8002504 <WifiApi_Init+0x74>)
 8002496:	b500      	push	{lr}
 8002498:	b0a3      	sub	sp, #140	@ 0x8c
 800249a:	8013      	strh	r3, [r2, #0]
 800249c:	4a1a      	ldr	r2, [pc, #104]	@ (8002508 <WifiApi_Init+0x78>)
 800249e:	7013      	strb	r3, [r2, #0]
 80024a0:	4a1a      	ldr	r2, [pc, #104]	@ (800250c <WifiApi_Init+0x7c>)
 80024a2:	7013      	strb	r3, [r2, #0]
 80024a4:	f7ff fd12 	bl	8001ecc <esp_send>
 80024a8:	f240 50dc 	movw	r0, #1500	@ 0x5dc
 80024ac:	f000 f8dc 	bl	8002668 <HAL_Delay>
 80024b0:	4817      	ldr	r0, [pc, #92]	@ (8002510 <WifiApi_Init+0x80>)
 80024b2:	f7ff fd0b 	bl	8001ecc <esp_send>
 80024b6:	4817      	ldr	r0, [pc, #92]	@ (8002514 <WifiApi_Init+0x84>)
 80024b8:	f7ff fd08 	bl	8001ecc <esp_send>
 80024bc:	4b16      	ldr	r3, [pc, #88]	@ (8002518 <WifiApi_Init+0x88>)
 80024be:	4a17      	ldr	r2, [pc, #92]	@ (800251c <WifiApi_Init+0x8c>)
 80024c0:	a802      	add	r0, sp, #8
 80024c2:	4917      	ldr	r1, [pc, #92]	@ (8002520 <WifiApi_Init+0x90>)
 80024c4:	9300      	str	r3, [sp, #0]
 80024c6:	4b17      	ldr	r3, [pc, #92]	@ (8002524 <WifiApi_Init+0x94>)
 80024c8:	f003 f8a2 	bl	8005610 <siprintf>
 80024cc:	a802      	add	r0, sp, #8
 80024ce:	f7ff fcfd 	bl	8001ecc <esp_send>
 80024d2:	4b15      	ldr	r3, [pc, #84]	@ (8002528 <WifiApi_Init+0x98>)
 80024d4:	4a15      	ldr	r2, [pc, #84]	@ (800252c <WifiApi_Init+0x9c>)
 80024d6:	a802      	add	r0, sp, #8
 80024d8:	4915      	ldr	r1, [pc, #84]	@ (8002530 <WifiApi_Init+0xa0>)
 80024da:	f003 f899 	bl	8005610 <siprintf>
 80024de:	a802      	add	r0, sp, #8
 80024e0:	f7ff fcf4 	bl	8001ecc <esp_send>
 80024e4:	f241 3088 	movw	r0, #5000	@ 0x1388
 80024e8:	f000 f8be 	bl	8002668 <HAL_Delay>
 80024ec:	4811      	ldr	r0, [pc, #68]	@ (8002534 <WifiApi_Init+0xa4>)
 80024ee:	f7ff fced 	bl	8001ecc <esp_send>
 80024f2:	4811      	ldr	r0, [pc, #68]	@ (8002538 <WifiApi_Init+0xa8>)
 80024f4:	f7ff fcea 	bl	8001ecc <esp_send>
 80024f8:	b023      	add	sp, #140	@ 0x8c
 80024fa:	f85d fb04 	ldr.w	pc, [sp], #4
 80024fe:	bf00      	nop
 8002500:	20001a26 	.word	0x20001a26
 8002504:	08006366 	.word	0x08006366
 8002508:	20001a28 	.word	0x20001a28
 800250c:	20001a24 	.word	0x20001a24
 8002510:	0800636f 	.word	0x0800636f
 8002514:	08006376 	.word	0x08006376
 8002518:	080063b9 	.word	0x080063b9
 800251c:	08006390 	.word	0x08006390
 8002520:	0800639e 	.word	0x0800639e
 8002524:	08006384 	.word	0x08006384
 8002528:	080063c7 	.word	0x080063c7
 800252c:	080063d0 	.word	0x080063d0
 8002530:	080063dc 	.word	0x080063dc
 8002534:	080063f1 	.word	0x080063f1
 8002538:	080063ff 	.word	0x080063ff

0800253c <WifiApi_Process>:
 800253c:	4b0f      	ldr	r3, [pc, #60]	@ (800257c <WifiApi_Process+0x40>)
 800253e:	b507      	push	{r0, r1, r2, lr}
 8002540:	781b      	ldrb	r3, [r3, #0]
 8002542:	b9bb      	cbnz	r3, 8002574 <WifiApi_Process+0x38>
 8002544:	230a      	movs	r3, #10
 8002546:	2201      	movs	r2, #1
 8002548:	f10d 0107 	add.w	r1, sp, #7
 800254c:	480c      	ldr	r0, [pc, #48]	@ (8002580 <WifiApi_Process+0x44>)
 800254e:	f002 fc5b 	bl	8004e08 <HAL_UART_Receive>
 8002552:	b968      	cbnz	r0, 8002570 <WifiApi_Process+0x34>
 8002554:	f89d 0007 	ldrb.w	r0, [sp, #7]
 8002558:	f7ff fce0 	bl	8001f1c <rx_push_byte>
 800255c:	4909      	ldr	r1, [pc, #36]	@ (8002584 <WifiApi_Process+0x48>)
 800255e:	480a      	ldr	r0, [pc, #40]	@ (8002588 <WifiApi_Process+0x4c>)
 8002560:	f003 f8b9 	bl	80056d6 <strstr>
 8002564:	b120      	cbz	r0, 8002570 <WifiApi_Process+0x34>
 8002566:	2201      	movs	r2, #1
 8002568:	4808      	ldr	r0, [pc, #32]	@ (800258c <WifiApi_Process+0x50>)
 800256a:	4611      	mov	r1, r2
 800256c:	f000 fb80 	bl	8002c70 <HAL_GPIO_WritePin>
 8002570:	f7ff fefa 	bl	8002368 <process_rx_buffer>
 8002574:	b003      	add	sp, #12
 8002576:	f85d fb04 	ldr.w	pc, [sp], #4
 800257a:	bf00      	nop
 800257c:	20001a24 	.word	0x20001a24
 8002580:	2000051c 	.word	0x2000051c
 8002584:	08006413 	.word	0x08006413
 8002588:	20001a28 	.word	0x20001a28
 800258c:	40020400 	.word	0x40020400

08002590 <Reset_Handler>:
 8002590:	f8df d034 	ldr.w	sp, [pc, #52]	@ 80025c8 <LoopFillZerobss+0xe>
 8002594:	f7fe fe0c 	bl	80011b0 <SystemInit>
 8002598:	480c      	ldr	r0, [pc, #48]	@ (80025cc <LoopFillZerobss+0x12>)
 800259a:	490d      	ldr	r1, [pc, #52]	@ (80025d0 <LoopFillZerobss+0x16>)
 800259c:	4a0d      	ldr	r2, [pc, #52]	@ (80025d4 <LoopFillZerobss+0x1a>)
 800259e:	2300      	movs	r3, #0
 80025a0:	e002      	b.n	80025a8 <LoopCopyDataInit>

080025a2 <CopyDataInit>:
 80025a2:	58d4      	ldr	r4, [r2, r3]
 80025a4:	50c4      	str	r4, [r0, r3]
 80025a6:	3304      	adds	r3, #4

080025a8 <LoopCopyDataInit>:
 80025a8:	18c4      	adds	r4, r0, r3
 80025aa:	428c      	cmp	r4, r1
 80025ac:	d3f9      	bcc.n	80025a2 <CopyDataInit>
 80025ae:	4a0a      	ldr	r2, [pc, #40]	@ (80025d8 <LoopFillZerobss+0x1e>)
 80025b0:	4c0a      	ldr	r4, [pc, #40]	@ (80025dc <LoopFillZerobss+0x22>)
 80025b2:	2300      	movs	r3, #0
 80025b4:	e001      	b.n	80025ba <LoopFillZerobss>

080025b6 <FillZerobss>:
 80025b6:	6013      	str	r3, [r2, #0]
 80025b8:	3204      	adds	r2, #4

080025ba <LoopFillZerobss>:
 80025ba:	42a2      	cmp	r2, r4
 80025bc:	d3fb      	bcc.n	80025b6 <FillZerobss>
 80025be:	f003 f8b7 	bl	8005730 <__libc_init_array>
 80025c2:	f7fe f997 	bl	80008f4 <main>
 80025c6:	4770      	bx	lr
 80025c8:	20080000 	.word	0x20080000
 80025cc:	20000000 	.word	0x20000000
 80025d0:	2000005c 	.word	0x2000005c
 80025d4:	08006be8 	.word	0x08006be8
 80025d8:	2000005c 	.word	0x2000005c
 80025dc:	20002b74 	.word	0x20002b74

080025e0 <ADC_IRQHandler>:
 80025e0:	e7fe      	b.n	80025e0 <ADC_IRQHandler>
	...

080025e4 <HAL_InitTick>:
 80025e4:	b538      	push	{r3, r4, r5, lr}
 80025e6:	4b0e      	ldr	r3, [pc, #56]	@ (8002620 <HAL_InitTick+0x3c>)
 80025e8:	4605      	mov	r5, r0
 80025ea:	781a      	ldrb	r2, [r3, #0]
 80025ec:	f44f 737a 	mov.w	r3, #1000	@ 0x3e8
 80025f0:	fbb3 f3f2 	udiv	r3, r3, r2
 80025f4:	4a0b      	ldr	r2, [pc, #44]	@ (8002624 <HAL_InitTick+0x40>)
 80025f6:	6810      	ldr	r0, [r2, #0]
 80025f8:	fbb0 f0f3 	udiv	r0, r0, r3
 80025fc:	f000 f898 	bl	8002730 <HAL_SYSTICK_Config>
 8002600:	4604      	mov	r4, r0
 8002602:	b958      	cbnz	r0, 800261c <HAL_InitTick+0x38>
 8002604:	2d0f      	cmp	r5, #15
 8002606:	d809      	bhi.n	800261c <HAL_InitTick+0x38>
 8002608:	4602      	mov	r2, r0
 800260a:	4629      	mov	r1, r5
 800260c:	f04f 30ff 	mov.w	r0, #4294967295
 8002610:	f000 f84e 	bl	80026b0 <HAL_NVIC_SetPriority>
 8002614:	4b04      	ldr	r3, [pc, #16]	@ (8002628 <HAL_InitTick+0x44>)
 8002616:	4620      	mov	r0, r4
 8002618:	601d      	str	r5, [r3, #0]
 800261a:	bd38      	pop	{r3, r4, r5, pc}
 800261c:	2001      	movs	r0, #1
 800261e:	e7fc      	b.n	800261a <HAL_InitTick+0x36>
 8002620:	20000004 	.word	0x20000004
 8002624:	20000000 	.word	0x20000000
 8002628:	20000008 	.word	0x20000008

0800262c <HAL_Init>:
 800262c:	b508      	push	{r3, lr}
 800262e:	2003      	movs	r0, #3
 8002630:	f000 f82c 	bl	800268c <HAL_NVIC_SetPriorityGrouping>
 8002634:	200f      	movs	r0, #15
 8002636:	f7ff ffd5 	bl	80025e4 <HAL_InitTick>
 800263a:	f7fe fd0d 	bl	8001058 <HAL_MspInit>
 800263e:	2000      	movs	r0, #0
 8002640:	bd08      	pop	{r3, pc}
	...

08002644 <HAL_IncTick>:
 8002644:	4a03      	ldr	r2, [pc, #12]	@ (8002654 <HAL_IncTick+0x10>)
 8002646:	4b04      	ldr	r3, [pc, #16]	@ (8002658 <HAL_IncTick+0x14>)
 8002648:	6811      	ldr	r1, [r2, #0]
 800264a:	781b      	ldrb	r3, [r3, #0]
 800264c:	440b      	add	r3, r1
 800264e:	6013      	str	r3, [r2, #0]
 8002650:	4770      	bx	lr
 8002652:	bf00      	nop
 8002654:	20002a28 	.word	0x20002a28
 8002658:	20000004 	.word	0x20000004

0800265c <HAL_GetTick>:
 800265c:	4b01      	ldr	r3, [pc, #4]	@ (8002664 <HAL_GetTick+0x8>)
 800265e:	6818      	ldr	r0, [r3, #0]
 8002660:	4770      	bx	lr
 8002662:	bf00      	nop
 8002664:	20002a28 	.word	0x20002a28

08002668 <HAL_Delay>:
 8002668:	b538      	push	{r3, r4, r5, lr}
 800266a:	4604      	mov	r4, r0
 800266c:	f7ff fff6 	bl	800265c <HAL_GetTick>
 8002670:	4605      	mov	r5, r0
 8002672:	1c63      	adds	r3, r4, #1
 8002674:	bf1e      	ittt	ne
 8002676:	4b04      	ldrne	r3, [pc, #16]	@ (8002688 <HAL_Delay+0x20>)
 8002678:	781b      	ldrbne	r3, [r3, #0]
 800267a:	18e4      	addne	r4, r4, r3
 800267c:	f7ff ffee 	bl	800265c <HAL_GetTick>
 8002680:	1b43      	subs	r3, r0, r5
 8002682:	42a3      	cmp	r3, r4
 8002684:	d3fa      	bcc.n	800267c <HAL_Delay+0x14>
 8002686:	bd38      	pop	{r3, r4, r5, pc}
 8002688:	20000004 	.word	0x20000004

0800268c <HAL_NVIC_SetPriorityGrouping>:
 800268c:	4907      	ldr	r1, [pc, #28]	@ (80026ac <HAL_NVIC_SetPriorityGrouping+0x20>)
 800268e:	0203      	lsls	r3, r0, #8
 8002690:	68ca      	ldr	r2, [r1, #12]
 8002692:	f403 63e0 	and.w	r3, r3, #1792	@ 0x700
 8002696:	f422 62e0 	bic.w	r2, r2, #1792	@ 0x700
 800269a:	0412      	lsls	r2, r2, #16
 800269c:	0c12      	lsrs	r2, r2, #16
 800269e:	4313      	orrs	r3, r2
 80026a0:	f043 63bf 	orr.w	r3, r3, #100139008	@ 0x5f80000
 80026a4:	f443 3300 	orr.w	r3, r3, #131072	@ 0x20000
 80026a8:	60cb      	str	r3, [r1, #12]
 80026aa:	4770      	bx	lr
 80026ac:	e000ed00 	.word	0xe000ed00

080026b0 <HAL_NVIC_SetPriority>:
 80026b0:	4b16      	ldr	r3, [pc, #88]	@ (800270c <HAL_NVIC_SetPriority+0x5c>)
 80026b2:	b530      	push	{r4, r5, lr}
 80026b4:	68dc      	ldr	r4, [r3, #12]
 80026b6:	f3c4 2402 	ubfx	r4, r4, #8, #3
 80026ba:	f1c4 0307 	rsb	r3, r4, #7
 80026be:	1d25      	adds	r5, r4, #4
 80026c0:	2b04      	cmp	r3, #4
 80026c2:	bf28      	it	cs
 80026c4:	2304      	movcs	r3, #4
 80026c6:	2d06      	cmp	r5, #6
 80026c8:	f04f 35ff 	mov.w	r5, #4294967295
 80026cc:	bf8c      	ite	hi
 80026ce:	3c03      	subhi	r4, #3
 80026d0:	2400      	movls	r4, #0
 80026d2:	fa05 f303 	lsl.w	r3, r5, r3
 80026d6:	2800      	cmp	r0, #0
 80026d8:	fa05 f504 	lsl.w	r5, r5, r4
 80026dc:	ea21 0303 	bic.w	r3, r1, r3
 80026e0:	ea22 0205 	bic.w	r2, r2, r5
 80026e4:	fa03 f304 	lsl.w	r3, r3, r4
 80026e8:	ea43 0302 	orr.w	r3, r3, r2
 80026ec:	ea4f 1303 	mov.w	r3, r3, lsl #4
 80026f0:	b2db      	uxtb	r3, r3
 80026f2:	db06      	blt.n	8002702 <HAL_NVIC_SetPriority+0x52>
 80026f4:	f100 4060 	add.w	r0, r0, #3758096384	@ 0xe0000000
 80026f8:	f500 4061 	add.w	r0, r0, #57600	@ 0xe100
 80026fc:	f880 3300 	strb.w	r3, [r0, #768]	@ 0x300
 8002700:	bd30      	pop	{r4, r5, pc}
 8002702:	f000 000f 	and.w	r0, r0, #15
 8002706:	4a02      	ldr	r2, [pc, #8]	@ (8002710 <HAL_NVIC_SetPriority+0x60>)
 8002708:	5413      	strb	r3, [r2, r0]
 800270a:	e7f9      	b.n	8002700 <HAL_NVIC_SetPriority+0x50>
 800270c:	e000ed00 	.word	0xe000ed00
 8002710:	e000ed14 	.word	0xe000ed14

08002714 <HAL_NVIC_EnableIRQ>:
 8002714:	2800      	cmp	r0, #0
 8002716:	db07      	blt.n	8002728 <HAL_NVIC_EnableIRQ+0x14>
 8002718:	0941      	lsrs	r1, r0, #5
 800271a:	2301      	movs	r3, #1
 800271c:	f000 001f 	and.w	r0, r0, #31
 8002720:	4a02      	ldr	r2, [pc, #8]	@ (800272c <HAL_NVIC_EnableIRQ+0x18>)
 8002722:	4083      	lsls	r3, r0
 8002724:	f842 3021 	str.w	r3, [r2, r1, lsl #2]
 8002728:	4770      	bx	lr
 800272a:	bf00      	nop
 800272c:	e000e100 	.word	0xe000e100

08002730 <HAL_SYSTICK_Config>:
 8002730:	3801      	subs	r0, #1
 8002732:	f1b0 7f80 	cmp.w	r0, #16777216	@ 0x1000000
 8002736:	d20b      	bcs.n	8002750 <HAL_SYSTICK_Config+0x20>
 8002738:	f04f 23e0 	mov.w	r3, #3758153728	@ 0xe000e000
 800273c:	4a05      	ldr	r2, [pc, #20]	@ (8002754 <HAL_SYSTICK_Config+0x24>)
 800273e:	21f0      	movs	r1, #240	@ 0xf0
 8002740:	6158      	str	r0, [r3, #20]
 8002742:	2000      	movs	r0, #0
 8002744:	f882 1023 	strb.w	r1, [r2, #35]	@ 0x23
 8002748:	2207      	movs	r2, #7
 800274a:	6198      	str	r0, [r3, #24]
 800274c:	611a      	str	r2, [r3, #16]
 800274e:	4770      	bx	lr
 8002750:	2001      	movs	r0, #1
 8002752:	4770      	bx	lr
 8002754:	e000ed00 	.word	0xe000ed00

08002758 <DMA_CalcBaseAndBitshift>:
 8002758:	6803      	ldr	r3, [r0, #0]
 800275a:	4602      	mov	r2, r0
 800275c:	2018      	movs	r0, #24
 800275e:	b2d9      	uxtb	r1, r3
 8002760:	3910      	subs	r1, #16
 8002762:	fbb1 f0f0 	udiv	r0, r1, r0
 8002766:	b510      	push	{r4, lr}
 8002768:	4c05      	ldr	r4, [pc, #20]	@ (8002780 <DMA_CalcBaseAndBitshift+0x28>)
 800276a:	295f      	cmp	r1, #95	@ 0x5f
 800276c:	5c20      	ldrb	r0, [r4, r0]
 800276e:	65d0      	str	r0, [r2, #92]	@ 0x5c
 8002770:	f423 707f 	bic.w	r0, r3, #1020	@ 0x3fc
 8002774:	f020 0003 	bic.w	r0, r0, #3
 8002778:	bf88      	it	hi
 800277a:	3004      	addhi	r0, #4
 800277c:	6590      	str	r0, [r2, #88]	@ 0x58
 800277e:	bd10      	pop	{r4, pc}
 8002780:	08006acc 	.word	0x08006acc

08002784 <HAL_DMA_Init>:
 8002784:	b570      	push	{r4, r5, r6, lr}
 8002786:	4604      	mov	r4, r0
 8002788:	f7ff ff68 	bl	800265c <HAL_GetTick>
 800278c:	4605      	mov	r5, r0
 800278e:	2c00      	cmp	r4, #0
 8002790:	d060      	beq.n	8002854 <HAL_DMA_Init+0xd0>
 8002792:	2302      	movs	r3, #2
 8002794:	6822      	ldr	r2, [r4, #0]
 8002796:	f884 3035 	strb.w	r3, [r4, #53]	@ 0x35
 800279a:	2300      	movs	r3, #0
 800279c:	f884 3034 	strb.w	r3, [r4, #52]	@ 0x34
 80027a0:	6813      	ldr	r3, [r2, #0]
 80027a2:	f023 0301 	bic.w	r3, r3, #1
 80027a6:	6013      	str	r3, [r2, #0]
 80027a8:	6822      	ldr	r2, [r4, #0]
 80027aa:	6813      	ldr	r3, [r2, #0]
 80027ac:	07d8      	lsls	r0, r3, #31
 80027ae:	d42e      	bmi.n	800280e <HAL_DMA_Init+0x8a>
 80027b0:	6813      	ldr	r3, [r2, #0]
 80027b2:	4832      	ldr	r0, [pc, #200]	@ (800287c <HAL_DMA_Init+0xf8>)
 80027b4:	69a1      	ldr	r1, [r4, #24]
 80027b6:	4018      	ands	r0, r3
 80027b8:	e9d4 3501 	ldrd	r3, r5, [r4, #4]
 80027bc:	432b      	orrs	r3, r5
 80027be:	68e5      	ldr	r5, [r4, #12]
 80027c0:	432b      	orrs	r3, r5
 80027c2:	6925      	ldr	r5, [r4, #16]
 80027c4:	432b      	orrs	r3, r5
 80027c6:	6965      	ldr	r5, [r4, #20]
 80027c8:	432b      	orrs	r3, r5
 80027ca:	69e5      	ldr	r5, [r4, #28]
 80027cc:	430b      	orrs	r3, r1
 80027ce:	432b      	orrs	r3, r5
 80027d0:	6a25      	ldr	r5, [r4, #32]
 80027d2:	432b      	orrs	r3, r5
 80027d4:	4303      	orrs	r3, r0
 80027d6:	6a60      	ldr	r0, [r4, #36]	@ 0x24
 80027d8:	2804      	cmp	r0, #4
 80027da:	bf02      	ittt	eq
 80027dc:	e9d4 560b 	ldrdeq	r5, r6, [r4, #44]	@ 0x2c
 80027e0:	4335      	orreq	r5, r6
 80027e2:	432b      	orreq	r3, r5
 80027e4:	2804      	cmp	r0, #4
 80027e6:	6013      	str	r3, [r2, #0]
 80027e8:	6953      	ldr	r3, [r2, #20]
 80027ea:	f023 0307 	bic.w	r3, r3, #7
 80027ee:	ea43 0300 	orr.w	r3, r3, r0
 80027f2:	d135      	bne.n	8002860 <HAL_DMA_Init+0xdc>
 80027f4:	6aa0      	ldr	r0, [r4, #40]	@ 0x28
 80027f6:	6ae5      	ldr	r5, [r4, #44]	@ 0x2c
 80027f8:	4303      	orrs	r3, r0
 80027fa:	b38d      	cbz	r5, 8002860 <HAL_DMA_Init+0xdc>
 80027fc:	b991      	cbnz	r1, 8002824 <HAL_DMA_Init+0xa0>
 80027fe:	2801      	cmp	r0, #1
 8002800:	d020      	beq.n	8002844 <HAL_DMA_Init+0xc0>
 8002802:	f030 0102 	bics.w	r1, r0, #2
 8002806:	d12b      	bne.n	8002860 <HAL_DMA_Init+0xdc>
 8002808:	01e9      	lsls	r1, r5, #7
 800280a:	d529      	bpl.n	8002860 <HAL_DMA_Init+0xdc>
 800280c:	e01d      	b.n	800284a <HAL_DMA_Init+0xc6>
 800280e:	f7ff ff25 	bl	800265c <HAL_GetTick>
 8002812:	1b40      	subs	r0, r0, r5
 8002814:	2805      	cmp	r0, #5
 8002816:	d9c7      	bls.n	80027a8 <HAL_DMA_Init+0x24>
 8002818:	2320      	movs	r3, #32
 800281a:	2003      	movs	r0, #3
 800281c:	6563      	str	r3, [r4, #84]	@ 0x54
 800281e:	f884 0035 	strb.w	r0, [r4, #53]	@ 0x35
 8002822:	bd70      	pop	{r4, r5, r6, pc}
 8002824:	f5b1 5f00 	cmp.w	r1, #8192	@ 0x2000
 8002828:	d116      	bne.n	8002858 <HAL_DMA_Init+0xd4>
 800282a:	2803      	cmp	r0, #3
 800282c:	d818      	bhi.n	8002860 <HAL_DMA_Init+0xdc>
 800282e:	a101      	add	r1, pc, #4	@ (adr r1, 8002834 <HAL_DMA_Init+0xb0>)
 8002830:	f851 f020 	ldr.w	pc, [r1, r0, lsl #2]
 8002834:	0800284b 	.word	0x0800284b
 8002838:	08002809 	.word	0x08002809
 800283c:	0800284b 	.word	0x0800284b
 8002840:	08002845 	.word	0x08002845
 8002844:	f1b5 7fc0 	cmp.w	r5, #25165824	@ 0x1800000
 8002848:	d10a      	bne.n	8002860 <HAL_DMA_Init+0xdc>
 800284a:	2340      	movs	r3, #64	@ 0x40
 800284c:	6563      	str	r3, [r4, #84]	@ 0x54
 800284e:	2300      	movs	r3, #0
 8002850:	f884 3035 	strb.w	r3, [r4, #53]	@ 0x35
 8002854:	2001      	movs	r0, #1
 8002856:	e7e4      	b.n	8002822 <HAL_DMA_Init+0x9e>
 8002858:	2802      	cmp	r0, #2
 800285a:	d9f6      	bls.n	800284a <HAL_DMA_Init+0xc6>
 800285c:	2803      	cmp	r0, #3
 800285e:	d0d3      	beq.n	8002808 <HAL_DMA_Init+0x84>
 8002860:	6153      	str	r3, [r2, #20]
 8002862:	4620      	mov	r0, r4
 8002864:	f7ff ff78 	bl	8002758 <DMA_CalcBaseAndBitshift>
 8002868:	6de2      	ldr	r2, [r4, #92]	@ 0x5c
 800286a:	233f      	movs	r3, #63	@ 0x3f
 800286c:	4093      	lsls	r3, r2
 800286e:	6083      	str	r3, [r0, #8]
 8002870:	2000      	movs	r0, #0
 8002872:	2301      	movs	r3, #1
 8002874:	6560      	str	r0, [r4, #84]	@ 0x54
 8002876:	f884 3035 	strb.w	r3, [r4, #53]	@ 0x35
 800287a:	e7d2      	b.n	8002822 <HAL_DMA_Init+0x9e>
 800287c:	e010803f 	.word	0xe010803f

08002880 <HAL_DMA_Abort>:
 8002880:	b570      	push	{r4, r5, r6, lr}
 8002882:	4604      	mov	r4, r0
 8002884:	6d86      	ldr	r6, [r0, #88]	@ 0x58
 8002886:	f7ff fee9 	bl	800265c <HAL_GetTick>
 800288a:	4605      	mov	r5, r0
 800288c:	f894 3035 	ldrb.w	r3, [r4, #53]	@ 0x35
 8002890:	2b02      	cmp	r3, #2
 8002892:	d006      	beq.n	80028a2 <HAL_DMA_Abort+0x22>
 8002894:	2380      	movs	r3, #128	@ 0x80
 8002896:	2001      	movs	r0, #1
 8002898:	6563      	str	r3, [r4, #84]	@ 0x54
 800289a:	2300      	movs	r3, #0
 800289c:	f884 3034 	strb.w	r3, [r4, #52]	@ 0x34
 80028a0:	bd70      	pop	{r4, r5, r6, pc}
 80028a2:	6823      	ldr	r3, [r4, #0]
 80028a4:	681a      	ldr	r2, [r3, #0]
 80028a6:	f022 0216 	bic.w	r2, r2, #22
 80028aa:	601a      	str	r2, [r3, #0]
 80028ac:	695a      	ldr	r2, [r3, #20]
 80028ae:	f022 0280 	bic.w	r2, r2, #128	@ 0x80
 80028b2:	615a      	str	r2, [r3, #20]
 80028b4:	6c22      	ldr	r2, [r4, #64]	@ 0x40
 80028b6:	b90a      	cbnz	r2, 80028bc <HAL_DMA_Abort+0x3c>
 80028b8:	6ca2      	ldr	r2, [r4, #72]	@ 0x48
 80028ba:	b11a      	cbz	r2, 80028c4 <HAL_DMA_Abort+0x44>
 80028bc:	681a      	ldr	r2, [r3, #0]
 80028be:	f022 0208 	bic.w	r2, r2, #8
 80028c2:	601a      	str	r2, [r3, #0]
 80028c4:	681a      	ldr	r2, [r3, #0]
 80028c6:	f022 0201 	bic.w	r2, r2, #1
 80028ca:	601a      	str	r2, [r3, #0]
 80028cc:	6823      	ldr	r3, [r4, #0]
 80028ce:	6818      	ldr	r0, [r3, #0]
 80028d0:	f010 0001 	ands.w	r0, r0, #1
 80028d4:	d107      	bne.n	80028e6 <HAL_DMA_Abort+0x66>
 80028d6:	6de2      	ldr	r2, [r4, #92]	@ 0x5c
 80028d8:	233f      	movs	r3, #63	@ 0x3f
 80028da:	4093      	lsls	r3, r2
 80028dc:	60b3      	str	r3, [r6, #8]
 80028de:	2301      	movs	r3, #1
 80028e0:	f884 3035 	strb.w	r3, [r4, #53]	@ 0x35
 80028e4:	e7d9      	b.n	800289a <HAL_DMA_Abort+0x1a>
 80028e6:	f7ff feb9 	bl	800265c <HAL_GetTick>
 80028ea:	1b40      	subs	r0, r0, r5
 80028ec:	2805      	cmp	r0, #5
 80028ee:	d9ed      	bls.n	80028cc <HAL_DMA_Abort+0x4c>
 80028f0:	2320      	movs	r3, #32
 80028f2:	2003      	movs	r0, #3
 80028f4:	6563      	str	r3, [r4, #84]	@ 0x54
 80028f6:	f884 0035 	strb.w	r0, [r4, #53]	@ 0x35
 80028fa:	e7ce      	b.n	800289a <HAL_DMA_Abort+0x1a>

080028fc <HAL_DMA_Abort_IT>:
 80028fc:	f890 3035 	ldrb.w	r3, [r0, #53]	@ 0x35
 8002900:	2b02      	cmp	r3, #2
 8002902:	d003      	beq.n	800290c <HAL_DMA_Abort_IT+0x10>
 8002904:	2380      	movs	r3, #128	@ 0x80
 8002906:	6543      	str	r3, [r0, #84]	@ 0x54
 8002908:	2001      	movs	r0, #1
 800290a:	4770      	bx	lr
 800290c:	6802      	ldr	r2, [r0, #0]
 800290e:	2305      	movs	r3, #5
 8002910:	f880 3035 	strb.w	r3, [r0, #53]	@ 0x35
 8002914:	2000      	movs	r0, #0
 8002916:	6813      	ldr	r3, [r2, #0]
 8002918:	f023 0301 	bic.w	r3, r3, #1
 800291c:	6013      	str	r3, [r2, #0]
 800291e:	4770      	bx	lr

08002920 <HAL_DMA_IRQHandler>:
 8002920:	2300      	movs	r3, #0
 8002922:	b5f7      	push	{r0, r1, r2, r4, r5, r6, r7, lr}
 8002924:	9301      	str	r3, [sp, #4]
 8002926:	2208      	movs	r2, #8
 8002928:	4b5b      	ldr	r3, [pc, #364]	@ (8002a98 <HAL_DMA_IRQHandler+0x178>)
 800292a:	4604      	mov	r4, r0
 800292c:	6d85      	ldr	r5, [r0, #88]	@ 0x58
 800292e:	681f      	ldr	r7, [r3, #0]
 8002930:	6dc3      	ldr	r3, [r0, #92]	@ 0x5c
 8002932:	682e      	ldr	r6, [r5, #0]
 8002934:	409a      	lsls	r2, r3
 8002936:	4232      	tst	r2, r6
 8002938:	d00c      	beq.n	8002954 <HAL_DMA_IRQHandler+0x34>
 800293a:	6801      	ldr	r1, [r0, #0]
 800293c:	6808      	ldr	r0, [r1, #0]
 800293e:	0740      	lsls	r0, r0, #29
 8002940:	d508      	bpl.n	8002954 <HAL_DMA_IRQHandler+0x34>
 8002942:	6808      	ldr	r0, [r1, #0]
 8002944:	f020 0004 	bic.w	r0, r0, #4
 8002948:	6008      	str	r0, [r1, #0]
 800294a:	60aa      	str	r2, [r5, #8]
 800294c:	6d62      	ldr	r2, [r4, #84]	@ 0x54
 800294e:	f042 0201 	orr.w	r2, r2, #1
 8002952:	6562      	str	r2, [r4, #84]	@ 0x54
 8002954:	2201      	movs	r2, #1
 8002956:	409a      	lsls	r2, r3
 8002958:	4232      	tst	r2, r6
 800295a:	d008      	beq.n	800296e <HAL_DMA_IRQHandler+0x4e>
 800295c:	6821      	ldr	r1, [r4, #0]
 800295e:	6949      	ldr	r1, [r1, #20]
 8002960:	0609      	lsls	r1, r1, #24
 8002962:	d504      	bpl.n	800296e <HAL_DMA_IRQHandler+0x4e>
 8002964:	60aa      	str	r2, [r5, #8]
 8002966:	6d62      	ldr	r2, [r4, #84]	@ 0x54
 8002968:	f042 0202 	orr.w	r2, r2, #2
 800296c:	6562      	str	r2, [r4, #84]	@ 0x54
 800296e:	2204      	movs	r2, #4
 8002970:	409a      	lsls	r2, r3
 8002972:	4232      	tst	r2, r6
 8002974:	d008      	beq.n	8002988 <HAL_DMA_IRQHandler+0x68>
 8002976:	6821      	ldr	r1, [r4, #0]
 8002978:	6809      	ldr	r1, [r1, #0]
 800297a:	0788      	lsls	r0, r1, #30
 800297c:	d504      	bpl.n	8002988 <HAL_DMA_IRQHandler+0x68>
 800297e:	60aa      	str	r2, [r5, #8]
 8002980:	6d62      	ldr	r2, [r4, #84]	@ 0x54
 8002982:	f042 0204 	orr.w	r2, r2, #4
 8002986:	6562      	str	r2, [r4, #84]	@ 0x54
 8002988:	2210      	movs	r2, #16
 800298a:	409a      	lsls	r2, r3
 800298c:	4232      	tst	r2, r6
 800298e:	d010      	beq.n	80029b2 <HAL_DMA_IRQHandler+0x92>
 8002990:	6823      	ldr	r3, [r4, #0]
 8002992:	6819      	ldr	r1, [r3, #0]
 8002994:	0709      	lsls	r1, r1, #28
 8002996:	d50c      	bpl.n	80029b2 <HAL_DMA_IRQHandler+0x92>
 8002998:	60aa      	str	r2, [r5, #8]
 800299a:	681a      	ldr	r2, [r3, #0]
 800299c:	0350      	lsls	r0, r2, #13
 800299e:	d537      	bpl.n	8002a10 <HAL_DMA_IRQHandler+0xf0>
 80029a0:	681b      	ldr	r3, [r3, #0]
 80029a2:	0319      	lsls	r1, r3, #12
 80029a4:	d401      	bmi.n	80029aa <HAL_DMA_IRQHandler+0x8a>
 80029a6:	6c23      	ldr	r3, [r4, #64]	@ 0x40
 80029a8:	e000      	b.n	80029ac <HAL_DMA_IRQHandler+0x8c>
 80029aa:	6ca3      	ldr	r3, [r4, #72]	@ 0x48
 80029ac:	b10b      	cbz	r3, 80029b2 <HAL_DMA_IRQHandler+0x92>
 80029ae:	4620      	mov	r0, r4
 80029b0:	4798      	blx	r3
 80029b2:	6de1      	ldr	r1, [r4, #92]	@ 0x5c
 80029b4:	2220      	movs	r2, #32
 80029b6:	408a      	lsls	r2, r1
 80029b8:	4232      	tst	r2, r6
 80029ba:	d03a      	beq.n	8002a32 <HAL_DMA_IRQHandler+0x112>
 80029bc:	6823      	ldr	r3, [r4, #0]
 80029be:	6818      	ldr	r0, [r3, #0]
 80029c0:	06c6      	lsls	r6, r0, #27
 80029c2:	d536      	bpl.n	8002a32 <HAL_DMA_IRQHandler+0x112>
 80029c4:	60aa      	str	r2, [r5, #8]
 80029c6:	f894 2035 	ldrb.w	r2, [r4, #53]	@ 0x35
 80029ca:	2a05      	cmp	r2, #5
 80029cc:	681a      	ldr	r2, [r3, #0]
 80029ce:	d127      	bne.n	8002a20 <HAL_DMA_IRQHandler+0x100>
 80029d0:	f022 0216 	bic.w	r2, r2, #22
 80029d4:	601a      	str	r2, [r3, #0]
 80029d6:	695a      	ldr	r2, [r3, #20]
 80029d8:	f022 0280 	bic.w	r2, r2, #128	@ 0x80
 80029dc:	615a      	str	r2, [r3, #20]
 80029de:	6c22      	ldr	r2, [r4, #64]	@ 0x40
 80029e0:	b90a      	cbnz	r2, 80029e6 <HAL_DMA_IRQHandler+0xc6>
 80029e2:	6ca2      	ldr	r2, [r4, #72]	@ 0x48
 80029e4:	b11a      	cbz	r2, 80029ee <HAL_DMA_IRQHandler+0xce>
 80029e6:	681a      	ldr	r2, [r3, #0]
 80029e8:	f022 0208 	bic.w	r2, r2, #8
 80029ec:	601a      	str	r2, [r3, #0]
 80029ee:	233f      	movs	r3, #63	@ 0x3f
 80029f0:	408b      	lsls	r3, r1
 80029f2:	60ab      	str	r3, [r5, #8]
 80029f4:	2301      	movs	r3, #1
 80029f6:	f884 3035 	strb.w	r3, [r4, #53]	@ 0x35
 80029fa:	2300      	movs	r3, #0
 80029fc:	f884 3034 	strb.w	r3, [r4, #52]	@ 0x34
 8002a00:	6d23      	ldr	r3, [r4, #80]	@ 0x50
 8002a02:	2b00      	cmp	r3, #0
 8002a04:	d045      	beq.n	8002a92 <HAL_DMA_IRQHandler+0x172>
 8002a06:	4620      	mov	r0, r4
 8002a08:	b003      	add	sp, #12
 8002a0a:	e8bd 40f0 	ldmia.w	sp!, {r4, r5, r6, r7, lr}
 8002a0e:	4718      	bx	r3
 8002a10:	681a      	ldr	r2, [r3, #0]
 8002a12:	05d2      	lsls	r2, r2, #23
 8002a14:	d4c7      	bmi.n	80029a6 <HAL_DMA_IRQHandler+0x86>
 8002a16:	681a      	ldr	r2, [r3, #0]
 8002a18:	f022 0208 	bic.w	r2, r2, #8
 8002a1c:	601a      	str	r2, [r3, #0]
 8002a1e:	e7c2      	b.n	80029a6 <HAL_DMA_IRQHandler+0x86>
 8002a20:	0350      	lsls	r0, r2, #13
 8002a22:	d527      	bpl.n	8002a74 <HAL_DMA_IRQHandler+0x154>
 8002a24:	681b      	ldr	r3, [r3, #0]
 8002a26:	0319      	lsls	r1, r3, #12
 8002a28:	d431      	bmi.n	8002a8e <HAL_DMA_IRQHandler+0x16e>
 8002a2a:	6c63      	ldr	r3, [r4, #68]	@ 0x44
 8002a2c:	b10b      	cbz	r3, 8002a32 <HAL_DMA_IRQHandler+0x112>
 8002a2e:	4620      	mov	r0, r4
 8002a30:	4798      	blx	r3
 8002a32:	6d63      	ldr	r3, [r4, #84]	@ 0x54
 8002a34:	b36b      	cbz	r3, 8002a92 <HAL_DMA_IRQHandler+0x172>
 8002a36:	6d63      	ldr	r3, [r4, #84]	@ 0x54
 8002a38:	07da      	lsls	r2, r3, #31
 8002a3a:	d519      	bpl.n	8002a70 <HAL_DMA_IRQHandler+0x150>
 8002a3c:	f44f 5316 	mov.w	r3, #9600	@ 0x2580
 8002a40:	6822      	ldr	r2, [r4, #0]
 8002a42:	fbb7 f7f3 	udiv	r7, r7, r3
 8002a46:	2305      	movs	r3, #5
 8002a48:	f884 3035 	strb.w	r3, [r4, #53]	@ 0x35
 8002a4c:	6813      	ldr	r3, [r2, #0]
 8002a4e:	f023 0301 	bic.w	r3, r3, #1
 8002a52:	6013      	str	r3, [r2, #0]
 8002a54:	9b01      	ldr	r3, [sp, #4]
 8002a56:	3301      	adds	r3, #1
 8002a58:	42bb      	cmp	r3, r7
 8002a5a:	9301      	str	r3, [sp, #4]
 8002a5c:	d802      	bhi.n	8002a64 <HAL_DMA_IRQHandler+0x144>
 8002a5e:	6813      	ldr	r3, [r2, #0]
 8002a60:	07db      	lsls	r3, r3, #31
 8002a62:	d4f7      	bmi.n	8002a54 <HAL_DMA_IRQHandler+0x134>
 8002a64:	2301      	movs	r3, #1
 8002a66:	f884 3035 	strb.w	r3, [r4, #53]	@ 0x35
 8002a6a:	2300      	movs	r3, #0
 8002a6c:	f884 3034 	strb.w	r3, [r4, #52]	@ 0x34
 8002a70:	6ce3      	ldr	r3, [r4, #76]	@ 0x4c
 8002a72:	e7c6      	b.n	8002a02 <HAL_DMA_IRQHandler+0xe2>
 8002a74:	681a      	ldr	r2, [r3, #0]
 8002a76:	f412 7280 	ands.w	r2, r2, #256	@ 0x100
 8002a7a:	d108      	bne.n	8002a8e <HAL_DMA_IRQHandler+0x16e>
 8002a7c:	6819      	ldr	r1, [r3, #0]
 8002a7e:	f021 0110 	bic.w	r1, r1, #16
 8002a82:	6019      	str	r1, [r3, #0]
 8002a84:	2301      	movs	r3, #1
 8002a86:	f884 2034 	strb.w	r2, [r4, #52]	@ 0x34
 8002a8a:	f884 3035 	strb.w	r3, [r4, #53]	@ 0x35
 8002a8e:	6be3      	ldr	r3, [r4, #60]	@ 0x3c
 8002a90:	e7cc      	b.n	8002a2c <HAL_DMA_IRQHandler+0x10c>
 8002a92:	b003      	add	sp, #12
 8002a94:	bdf0      	pop	{r4, r5, r6, r7, pc}
 8002a96:	bf00      	nop
 8002a98:	20000000 	.word	0x20000000

08002a9c <HAL_GPIO_Init>:
 8002a9c:	e92d 4ff7 	stmdb	sp!, {r0, r1, r2, r4, r5, r6, r7, r8, r9, sl, fp, lr}
 8002aa0:	2300      	movs	r3, #0
 8002aa2:	f8df 91bc 	ldr.w	r9, [pc, #444]	@ 8002c60 <HAL_GPIO_Init+0x1c4>
 8002aa6:	4a6c      	ldr	r2, [pc, #432]	@ (8002c58 <HAL_GPIO_Init+0x1bc>)
 8002aa8:	2401      	movs	r4, #1
 8002aaa:	680d      	ldr	r5, [r1, #0]
 8002aac:	409c      	lsls	r4, r3
 8002aae:	ea04 0605 	and.w	r6, r4, r5
 8002ab2:	43ac      	bics	r4, r5
 8002ab4:	f040 80b7 	bne.w	8002c26 <HAL_GPIO_Init+0x18a>
 8002ab8:	684d      	ldr	r5, [r1, #4]
 8002aba:	2703      	movs	r7, #3
 8002abc:	ea4f 0e43 	mov.w	lr, r3, lsl #1
 8002ac0:	f005 0403 	and.w	r4, r5, #3
 8002ac4:	fa07 fc0e 	lsl.w	ip, r7, lr
 8002ac8:	1e67      	subs	r7, r4, #1
 8002aca:	ea6f 0c0c 	mvn.w	ip, ip
 8002ace:	2f01      	cmp	r7, #1
 8002ad0:	d834      	bhi.n	8002b3c <HAL_GPIO_Init+0xa0>
 8002ad2:	6887      	ldr	r7, [r0, #8]
 8002ad4:	ea07 080c 	and.w	r8, r7, ip
 8002ad8:	68cf      	ldr	r7, [r1, #12]
 8002ada:	fa07 f70e 	lsl.w	r7, r7, lr
 8002ade:	ea47 0708 	orr.w	r7, r7, r8
 8002ae2:	6087      	str	r7, [r0, #8]
 8002ae4:	6847      	ldr	r7, [r0, #4]
 8002ae6:	ea27 0806 	bic.w	r8, r7, r6
 8002aea:	f3c5 1700 	ubfx	r7, r5, #4, #1
 8002aee:	409f      	lsls	r7, r3
 8002af0:	ea47 0708 	orr.w	r7, r7, r8
 8002af4:	6047      	str	r7, [r0, #4]
 8002af6:	68c7      	ldr	r7, [r0, #12]
 8002af8:	2c02      	cmp	r4, #2
 8002afa:	ea07 080c 	and.w	r8, r7, ip
 8002afe:	688f      	ldr	r7, [r1, #8]
 8002b00:	fa07 f70e 	lsl.w	r7, r7, lr
 8002b04:	ea47 0708 	orr.w	r7, r7, r8
 8002b08:	60c7      	str	r7, [r0, #12]
 8002b0a:	d119      	bne.n	8002b40 <HAL_GPIO_Init+0xa4>
 8002b0c:	ea4f 08d3 	mov.w	r8, r3, lsr #3
 8002b10:	f003 0a07 	and.w	sl, r3, #7
 8002b14:	f04f 0b0f 	mov.w	fp, #15
 8002b18:	eb00 0888 	add.w	r8, r0, r8, lsl #2
 8002b1c:	ea4f 0a8a 	mov.w	sl, sl, lsl #2
 8002b20:	f8d8 7020 	ldr.w	r7, [r8, #32]
 8002b24:	fa0b fb0a 	lsl.w	fp, fp, sl
 8002b28:	ea27 0b0b 	bic.w	fp, r7, fp
 8002b2c:	690f      	ldr	r7, [r1, #16]
 8002b2e:	fa07 f70a 	lsl.w	r7, r7, sl
 8002b32:	ea47 070b 	orr.w	r7, r7, fp
 8002b36:	f8c8 7020 	str.w	r7, [r8, #32]
 8002b3a:	e001      	b.n	8002b40 <HAL_GPIO_Init+0xa4>
 8002b3c:	2c03      	cmp	r4, #3
 8002b3e:	d1da      	bne.n	8002af6 <HAL_GPIO_Init+0x5a>
 8002b40:	6807      	ldr	r7, [r0, #0]
 8002b42:	fa04 f40e 	lsl.w	r4, r4, lr
 8002b46:	f415 3f40 	tst.w	r5, #196608	@ 0x30000
 8002b4a:	ea07 070c 	and.w	r7, r7, ip
 8002b4e:	ea44 0407 	orr.w	r4, r4, r7
 8002b52:	6004      	str	r4, [r0, #0]
 8002b54:	d067      	beq.n	8002c26 <HAL_GPIO_Init+0x18a>
 8002b56:	f8d9 4044 	ldr.w	r4, [r9, #68]	@ 0x44
 8002b5a:	f023 0703 	bic.w	r7, r3, #3
 8002b5e:	f003 0c03 	and.w	ip, r3, #3
 8002b62:	f04f 0e0f 	mov.w	lr, #15
 8002b66:	f444 4480 	orr.w	r4, r4, #16384	@ 0x4000
 8002b6a:	f107 4780 	add.w	r7, r7, #1073741824	@ 0x40000000
 8002b6e:	ea4f 0c8c 	mov.w	ip, ip, lsl #2
 8002b72:	f8c9 4044 	str.w	r4, [r9, #68]	@ 0x44
 8002b76:	f507 379c 	add.w	r7, r7, #79872	@ 0x13800
 8002b7a:	f8d9 4044 	ldr.w	r4, [r9, #68]	@ 0x44
 8002b7e:	fa0e fe0c 	lsl.w	lr, lr, ip
 8002b82:	f404 4480 	and.w	r4, r4, #16384	@ 0x4000
 8002b86:	9401      	str	r4, [sp, #4]
 8002b88:	9c01      	ldr	r4, [sp, #4]
 8002b8a:	68bc      	ldr	r4, [r7, #8]
 8002b8c:	ea24 0e0e 	bic.w	lr, r4, lr
 8002b90:	4c32      	ldr	r4, [pc, #200]	@ (8002c5c <HAL_GPIO_Init+0x1c0>)
 8002b92:	42a0      	cmp	r0, r4
 8002b94:	d04e      	beq.n	8002c34 <HAL_GPIO_Init+0x198>
 8002b96:	f504 6480 	add.w	r4, r4, #1024	@ 0x400
 8002b9a:	42a0      	cmp	r0, r4
 8002b9c:	d04c      	beq.n	8002c38 <HAL_GPIO_Init+0x19c>
 8002b9e:	f504 6480 	add.w	r4, r4, #1024	@ 0x400
 8002ba2:	42a0      	cmp	r0, r4
 8002ba4:	d04a      	beq.n	8002c3c <HAL_GPIO_Init+0x1a0>
 8002ba6:	f504 6480 	add.w	r4, r4, #1024	@ 0x400
 8002baa:	42a0      	cmp	r0, r4
 8002bac:	d048      	beq.n	8002c40 <HAL_GPIO_Init+0x1a4>
 8002bae:	f504 6480 	add.w	r4, r4, #1024	@ 0x400
 8002bb2:	42a0      	cmp	r0, r4
 8002bb4:	d046      	beq.n	8002c44 <HAL_GPIO_Init+0x1a8>
 8002bb6:	f504 6480 	add.w	r4, r4, #1024	@ 0x400
 8002bba:	42a0      	cmp	r0, r4
 8002bbc:	d044      	beq.n	8002c48 <HAL_GPIO_Init+0x1ac>
 8002bbe:	f504 6480 	add.w	r4, r4, #1024	@ 0x400
 8002bc2:	42a0      	cmp	r0, r4
 8002bc4:	d042      	beq.n	8002c4c <HAL_GPIO_Init+0x1b0>
 8002bc6:	f504 6480 	add.w	r4, r4, #1024	@ 0x400
 8002bca:	42a0      	cmp	r0, r4
 8002bcc:	d040      	beq.n	8002c50 <HAL_GPIO_Init+0x1b4>
 8002bce:	f504 6480 	add.w	r4, r4, #1024	@ 0x400
 8002bd2:	42a0      	cmp	r0, r4
 8002bd4:	d03e      	beq.n	8002c54 <HAL_GPIO_Init+0x1b8>
 8002bd6:	f504 6480 	add.w	r4, r4, #1024	@ 0x400
 8002bda:	42a0      	cmp	r0, r4
 8002bdc:	bf14      	ite	ne
 8002bde:	240a      	movne	r4, #10
 8002be0:	2409      	moveq	r4, #9
 8002be2:	fa04 f40c 	lsl.w	r4, r4, ip
 8002be6:	f415 1f80 	tst.w	r5, #1048576	@ 0x100000
 8002bea:	ea44 040e 	orr.w	r4, r4, lr
 8002bee:	60bc      	str	r4, [r7, #8]
 8002bf0:	ea6f 0706 	mvn.w	r7, r6
 8002bf4:	6894      	ldr	r4, [r2, #8]
 8002bf6:	bf0c      	ite	eq
 8002bf8:	403c      	andeq	r4, r7
 8002bfa:	4334      	orrne	r4, r6
 8002bfc:	f415 1f00 	tst.w	r5, #2097152	@ 0x200000
 8002c00:	6094      	str	r4, [r2, #8]
 8002c02:	68d4      	ldr	r4, [r2, #12]
 8002c04:	bf0c      	ite	eq
 8002c06:	403c      	andeq	r4, r7
 8002c08:	4334      	orrne	r4, r6
 8002c0a:	f415 3f00 	tst.w	r5, #131072	@ 0x20000
 8002c0e:	60d4      	str	r4, [r2, #12]
 8002c10:	6854      	ldr	r4, [r2, #4]
 8002c12:	bf0c      	ite	eq
 8002c14:	403c      	andeq	r4, r7
 8002c16:	4334      	orrne	r4, r6
 8002c18:	03ed      	lsls	r5, r5, #15
 8002c1a:	6054      	str	r4, [r2, #4]
 8002c1c:	6814      	ldr	r4, [r2, #0]
 8002c1e:	bf54      	ite	pl
 8002c20:	403c      	andpl	r4, r7
 8002c22:	4334      	orrmi	r4, r6
 8002c24:	6014      	str	r4, [r2, #0]
 8002c26:	3301      	adds	r3, #1
 8002c28:	2b10      	cmp	r3, #16
 8002c2a:	f47f af3d 	bne.w	8002aa8 <HAL_GPIO_Init+0xc>
 8002c2e:	b003      	add	sp, #12
 8002c30:	e8bd 8ff0 	ldmia.w	sp!, {r4, r5, r6, r7, r8, r9, sl, fp, pc}
 8002c34:	2400      	movs	r4, #0
 8002c36:	e7d4      	b.n	8002be2 <HAL_GPIO_Init+0x146>
 8002c38:	2401      	movs	r4, #1
 8002c3a:	e7d2      	b.n	8002be2 <HAL_GPIO_Init+0x146>
 8002c3c:	2402      	movs	r4, #2
 8002c3e:	e7d0      	b.n	8002be2 <HAL_GPIO_Init+0x146>
 8002c40:	2403      	movs	r4, #3
 8002c42:	e7ce      	b.n	8002be2 <HAL_GPIO_Init+0x146>
 8002c44:	2404      	movs	r4, #4
 8002c46:	e7cc      	b.n	8002be2 <HAL_GPIO_Init+0x146>
 8002c48:	2405      	movs	r4, #5
 8002c4a:	e7ca      	b.n	8002be2 <HAL_GPIO_Init+0x146>
 8002c4c:	2406      	movs	r4, #6
 8002c4e:	e7c8      	b.n	8002be2 <HAL_GPIO_Init+0x146>
 8002c50:	2407      	movs	r4, #7
 8002c52:	e7c6      	b.n	8002be2 <HAL_GPIO_Init+0x146>
 8002c54:	2408      	movs	r4, #8
 8002c56:	e7c4      	b.n	8002be2 <HAL_GPIO_Init+0x146>
 8002c58:	40013c00 	.word	0x40013c00
 8002c5c:	40020000 	.word	0x40020000
 8002c60:	40023800 	.word	0x40023800

08002c64 <HAL_GPIO_ReadPin>:
 8002c64:	6903      	ldr	r3, [r0, #16]
 8002c66:	4219      	tst	r1, r3
 8002c68:	bf14      	ite	ne
 8002c6a:	2001      	movne	r0, #1
 8002c6c:	2000      	moveq	r0, #0
 8002c6e:	4770      	bx	lr

08002c70 <HAL_GPIO_WritePin>:
 8002c70:	b10a      	cbz	r2, 8002c76 <HAL_GPIO_WritePin+0x6>
 8002c72:	6181      	str	r1, [r0, #24]
 8002c74:	4770      	bx	lr
 8002c76:	0409      	lsls	r1, r1, #16
 8002c78:	e7fb      	b.n	8002c72 <HAL_GPIO_WritePin+0x2>

08002c7a <HAL_GPIO_TogglePin>:
 8002c7a:	6943      	ldr	r3, [r0, #20]
 8002c7c:	ea01 0203 	and.w	r2, r1, r3
 8002c80:	ea21 0103 	bic.w	r1, r1, r3
 8002c84:	ea41 4102 	orr.w	r1, r1, r2, lsl #16
 8002c88:	6181      	str	r1, [r0, #24]
 8002c8a:	4770      	bx	lr

08002c8c <HAL_GPIO_EXTI_IRQHandler>:
 8002c8c:	4a04      	ldr	r2, [pc, #16]	@ (8002ca0 <HAL_GPIO_EXTI_IRQHandler+0x14>)
 8002c8e:	6951      	ldr	r1, [r2, #20]
 8002c90:	4201      	tst	r1, r0
 8002c92:	b508      	push	{r3, lr}
 8002c94:	d002      	beq.n	8002c9c <HAL_GPIO_EXTI_IRQHandler+0x10>
 8002c96:	6150      	str	r0, [r2, #20]
 8002c98:	f7fe f83a 	bl	8000d10 <HAL_GPIO_EXTI_Callback>
 8002c9c:	bd08      	pop	{r3, pc}
 8002c9e:	bf00      	nop
 8002ca0:	40013c00 	.word	0x40013c00

08002ca4 <HAL_PCD_Init>:
 8002ca4:	b5f7      	push	{r0, r1, r2, r4, r5, r6, r7, lr}
 8002ca6:	4604      	mov	r4, r0
 8002ca8:	b318      	cbz	r0, 8002cf2 <HAL_PCD_Init+0x4e>
 8002caa:	f890 3495 	ldrb.w	r3, [r0, #1173]	@ 0x495
 8002cae:	6805      	ldr	r5, [r0, #0]
 8002cb0:	f003 02ff 	and.w	r2, r3, #255	@ 0xff
 8002cb4:	b91b      	cbnz	r3, 8002cbe <HAL_PCD_Init+0x1a>
 8002cb6:	f880 2494 	strb.w	r2, [r0, #1172]	@ 0x494
 8002cba:	f7ff f8b3 	bl	8001e24 <HAL_PCD_MspInit>
 8002cbe:	2303      	movs	r3, #3
 8002cc0:	f1b5 4fa0 	cmp.w	r5, #1342177280	@ 0x50000000
 8002cc4:	6820      	ldr	r0, [r4, #0]
 8002cc6:	f104 0504 	add.w	r5, r4, #4
 8002cca:	f884 3495 	strb.w	r3, [r4, #1173]	@ 0x495
 8002cce:	bf04      	itt	eq
 8002cd0:	2300      	moveq	r3, #0
 8002cd2:	71a3      	strbeq	r3, [r4, #6]
 8002cd4:	f002 f9eb 	bl	80050ae <USB_DisableGlobalInt>
 8002cd8:	7c23      	ldrb	r3, [r4, #16]
 8002cda:	f88d 3000 	strb.w	r3, [sp]
 8002cde:	6820      	ldr	r0, [r4, #0]
 8002ce0:	e895 000e 	ldmia.w	r5, {r1, r2, r3}
 8002ce4:	f002 f9a5 	bl	8005032 <USB_CoreInit>
 8002ce8:	4601      	mov	r1, r0
 8002cea:	b130      	cbz	r0, 8002cfa <HAL_PCD_Init+0x56>
 8002cec:	2302      	movs	r3, #2
 8002cee:	f884 3495 	strb.w	r3, [r4, #1173]	@ 0x495
 8002cf2:	2501      	movs	r5, #1
 8002cf4:	4628      	mov	r0, r5
 8002cf6:	b003      	add	sp, #12
 8002cf8:	bdf0      	pop	{r4, r5, r6, r7, pc}
 8002cfa:	6820      	ldr	r0, [r4, #0]
 8002cfc:	f002 f9dd 	bl	80050ba <USB_SetCurrentMode>
 8002d00:	2800      	cmp	r0, #0
 8002d02:	d1f3      	bne.n	8002cec <HAL_PCD_Init+0x48>
 8002d04:	7926      	ldrb	r6, [r4, #4]
 8002d06:	f104 0314 	add.w	r3, r4, #20
 8002d0a:	2701      	movs	r7, #1
 8002d0c:	4602      	mov	r2, r0
 8002d0e:	b2c1      	uxtb	r1, r0
 8002d10:	3324      	adds	r3, #36	@ 0x24
 8002d12:	428e      	cmp	r6, r1
 8002d14:	d820      	bhi.n	8002d58 <HAL_PCD_Init+0xb4>
 8002d16:	2100      	movs	r1, #0
 8002d18:	f504 7315 	add.w	r3, r4, #596	@ 0x254
 8002d1c:	460a      	mov	r2, r1
 8002d1e:	b2c8      	uxtb	r0, r1
 8002d20:	3324      	adds	r3, #36	@ 0x24
 8002d22:	4286      	cmp	r6, r0
 8002d24:	d826      	bhi.n	8002d74 <HAL_PCD_Init+0xd0>
 8002d26:	7c23      	ldrb	r3, [r4, #16]
 8002d28:	f88d 3000 	strb.w	r3, [sp]
 8002d2c:	6820      	ldr	r0, [r4, #0]
 8002d2e:	e895 000e 	ldmia.w	r5, {r1, r2, r3}
 8002d32:	f002 fa3b 	bl	80051ac <USB_DevInit>
 8002d36:	4605      	mov	r5, r0
 8002d38:	2800      	cmp	r0, #0
 8002d3a:	d1d7      	bne.n	8002cec <HAL_PCD_Init+0x48>
 8002d3c:	2301      	movs	r3, #1
 8002d3e:	7460      	strb	r0, [r4, #17]
 8002d40:	f884 3495 	strb.w	r3, [r4, #1173]	@ 0x495
 8002d44:	7b23      	ldrb	r3, [r4, #12]
 8002d46:	2b01      	cmp	r3, #1
 8002d48:	d102      	bne.n	8002d50 <HAL_PCD_Init+0xac>
 8002d4a:	4620      	mov	r0, r4
 8002d4c:	f000 f81e 	bl	8002d8c <HAL_PCDEx_ActivateLPM>
 8002d50:	6820      	ldr	r0, [r4, #0]
 8002d52:	f002 fae3 	bl	800531c <USB_DevDisconnect>
 8002d56:	e7cd      	b.n	8002cf4 <HAL_PCD_Init+0x50>
 8002d58:	f823 0c0a 	strh.w	r0, [r3, #-10]
 8002d5c:	3001      	adds	r0, #1
 8002d5e:	f803 7c23 	strb.w	r7, [r3, #-35]
 8002d62:	f803 1c24 	strb.w	r1, [r3, #-36]
 8002d66:	f803 2c20 	strb.w	r2, [r3, #-32]
 8002d6a:	f843 2c14 	str.w	r2, [r3, #-20]
 8002d6e:	e943 2207 	strd	r2, r2, [r3, #-28]
 8002d72:	e7cc      	b.n	8002d0e <HAL_PCD_Init+0x6a>
 8002d74:	3101      	adds	r1, #1
 8002d76:	f803 2c23 	strb.w	r2, [r3, #-35]
 8002d7a:	f803 0c24 	strb.w	r0, [r3, #-36]
 8002d7e:	f803 2c20 	strb.w	r2, [r3, #-32]
 8002d82:	f843 2c14 	str.w	r2, [r3, #-20]
 8002d86:	e943 2207 	strd	r2, r2, [r3, #-28]
 8002d8a:	e7c8      	b.n	8002d1e <HAL_PCD_Init+0x7a>

08002d8c <HAL_PCDEx_ActivateLPM>:
 8002d8c:	2101      	movs	r1, #1
 8002d8e:	6802      	ldr	r2, [r0, #0]
 8002d90:	4603      	mov	r3, r0
 8002d92:	f8c0 14d8 	str.w	r1, [r0, #1240]	@ 0x4d8
 8002d96:	2000      	movs	r0, #0
 8002d98:	f883 04cc 	strb.w	r0, [r3, #1228]	@ 0x4cc
 8002d9c:	6993      	ldr	r3, [r2, #24]
 8002d9e:	f043 6300 	orr.w	r3, r3, #134217728	@ 0x8000000
 8002da2:	6193      	str	r3, [r2, #24]
 8002da4:	6d53      	ldr	r3, [r2, #84]	@ 0x54
 8002da6:	f043 5380 	orr.w	r3, r3, #268435456	@ 0x10000000
 8002daa:	f043 0303 	orr.w	r3, r3, #3
 8002dae:	6553      	str	r3, [r2, #84]	@ 0x54
 8002db0:	4770      	bx	lr
	...

08002db4 <HAL_PWR_EnableBkUpAccess>:
 8002db4:	4a02      	ldr	r2, [pc, #8]	@ (8002dc0 <HAL_PWR_EnableBkUpAccess+0xc>)
 8002db6:	6813      	ldr	r3, [r2, #0]
 8002db8:	f443 7380 	orr.w	r3, r3, #256	@ 0x100
 8002dbc:	6013      	str	r3, [r2, #0]
 8002dbe:	4770      	bx	lr
 8002dc0:	40007000 	.word	0x40007000

08002dc4 <HAL_PWREx_EnableOverDrive>:
 8002dc4:	4b19      	ldr	r3, [pc, #100]	@ (8002e2c <HAL_PWREx_EnableOverDrive+0x68>)
 8002dc6:	b537      	push	{r0, r1, r2, r4, r5, lr}
 8002dc8:	6c1a      	ldr	r2, [r3, #64]	@ 0x40
 8002dca:	4c19      	ldr	r4, [pc, #100]	@ (8002e30 <HAL_PWREx_EnableOverDrive+0x6c>)
 8002dcc:	f042 5280 	orr.w	r2, r2, #268435456	@ 0x10000000
 8002dd0:	641a      	str	r2, [r3, #64]	@ 0x40
 8002dd2:	6c1b      	ldr	r3, [r3, #64]	@ 0x40
 8002dd4:	f003 5380 	and.w	r3, r3, #268435456	@ 0x10000000
 8002dd8:	9301      	str	r3, [sp, #4]
 8002dda:	9b01      	ldr	r3, [sp, #4]
 8002ddc:	6823      	ldr	r3, [r4, #0]
 8002dde:	f443 3380 	orr.w	r3, r3, #65536	@ 0x10000
 8002de2:	6023      	str	r3, [r4, #0]
 8002de4:	f7ff fc3a 	bl	800265c <HAL_GetTick>
 8002de8:	4605      	mov	r5, r0
 8002dea:	6863      	ldr	r3, [r4, #4]
 8002dec:	03da      	lsls	r2, r3, #15
 8002dee:	d50c      	bpl.n	8002e0a <HAL_PWREx_EnableOverDrive+0x46>
 8002df0:	6823      	ldr	r3, [r4, #0]
 8002df2:	4d0f      	ldr	r5, [pc, #60]	@ (8002e30 <HAL_PWREx_EnableOverDrive+0x6c>)
 8002df4:	f443 3300 	orr.w	r3, r3, #131072	@ 0x20000
 8002df8:	6023      	str	r3, [r4, #0]
 8002dfa:	f7ff fc2f 	bl	800265c <HAL_GetTick>
 8002dfe:	4604      	mov	r4, r0
 8002e00:	686b      	ldr	r3, [r5, #4]
 8002e02:	039b      	lsls	r3, r3, #14
 8002e04:	d50a      	bpl.n	8002e1c <HAL_PWREx_EnableOverDrive+0x58>
 8002e06:	2000      	movs	r0, #0
 8002e08:	e006      	b.n	8002e18 <HAL_PWREx_EnableOverDrive+0x54>
 8002e0a:	f7ff fc27 	bl	800265c <HAL_GetTick>
 8002e0e:	1b40      	subs	r0, r0, r5
 8002e10:	f5b0 7f7a 	cmp.w	r0, #1000	@ 0x3e8
 8002e14:	d9e9      	bls.n	8002dea <HAL_PWREx_EnableOverDrive+0x26>
 8002e16:	2003      	movs	r0, #3
 8002e18:	b003      	add	sp, #12
 8002e1a:	bd30      	pop	{r4, r5, pc}
 8002e1c:	f7ff fc1e 	bl	800265c <HAL_GetTick>
 8002e20:	1b00      	subs	r0, r0, r4
 8002e22:	f5b0 7f7a 	cmp.w	r0, #1000	@ 0x3e8
 8002e26:	d9eb      	bls.n	8002e00 <HAL_PWREx_EnableOverDrive+0x3c>
 8002e28:	e7f5      	b.n	8002e16 <HAL_PWREx_EnableOverDrive+0x52>
 8002e2a:	bf00      	nop
 8002e2c:	40023800 	.word	0x40023800
 8002e30:	40007000 	.word	0x40007000

08002e34 <HAL_RCC_OscConfig>:
 8002e34:	e92d 41f3 	stmdb	sp!, {r0, r1, r4, r5, r6, r7, r8, lr}
 8002e38:	4604      	mov	r4, r0
 8002e3a:	b918      	cbnz	r0, 8002e44 <HAL_RCC_OscConfig+0x10>
 8002e3c:	2001      	movs	r0, #1
 8002e3e:	b002      	add	sp, #8
 8002e40:	e8bd 81f0 	ldmia.w	sp!, {r4, r5, r6, r7, r8, pc}
 8002e44:	6803      	ldr	r3, [r0, #0]
 8002e46:	07de      	lsls	r6, r3, #31
 8002e48:	d410      	bmi.n	8002e6c <HAL_RCC_OscConfig+0x38>
 8002e4a:	6823      	ldr	r3, [r4, #0]
 8002e4c:	079d      	lsls	r5, r3, #30
 8002e4e:	d45e      	bmi.n	8002f0e <HAL_RCC_OscConfig+0xda>
 8002e50:	6823      	ldr	r3, [r4, #0]
 8002e52:	0719      	lsls	r1, r3, #28
 8002e54:	f100 80a3 	bmi.w	8002f9e <HAL_RCC_OscConfig+0x16a>
 8002e58:	6823      	ldr	r3, [r4, #0]
 8002e5a:	075a      	lsls	r2, r3, #29
 8002e5c:	f100 80c4 	bmi.w	8002fe8 <HAL_RCC_OscConfig+0x1b4>
 8002e60:	69a2      	ldr	r2, [r4, #24]
 8002e62:	2a00      	cmp	r2, #0
 8002e64:	f040 812e 	bne.w	80030c4 <HAL_RCC_OscConfig+0x290>
 8002e68:	2000      	movs	r0, #0
 8002e6a:	e7e8      	b.n	8002e3e <HAL_RCC_OscConfig+0xa>
 8002e6c:	4b93      	ldr	r3, [pc, #588]	@ (80030bc <HAL_RCC_OscConfig+0x288>)
 8002e6e:	689a      	ldr	r2, [r3, #8]
 8002e70:	f002 020c 	and.w	r2, r2, #12
 8002e74:	2a04      	cmp	r2, #4
 8002e76:	d007      	beq.n	8002e88 <HAL_RCC_OscConfig+0x54>
 8002e78:	689a      	ldr	r2, [r3, #8]
 8002e7a:	f002 020c 	and.w	r2, r2, #12
 8002e7e:	2a08      	cmp	r2, #8
 8002e80:	d10a      	bne.n	8002e98 <HAL_RCC_OscConfig+0x64>
 8002e82:	685b      	ldr	r3, [r3, #4]
 8002e84:	0259      	lsls	r1, r3, #9
 8002e86:	d507      	bpl.n	8002e98 <HAL_RCC_OscConfig+0x64>
 8002e88:	4b8c      	ldr	r3, [pc, #560]	@ (80030bc <HAL_RCC_OscConfig+0x288>)
 8002e8a:	681b      	ldr	r3, [r3, #0]
 8002e8c:	039a      	lsls	r2, r3, #14
 8002e8e:	d5dc      	bpl.n	8002e4a <HAL_RCC_OscConfig+0x16>
 8002e90:	6863      	ldr	r3, [r4, #4]
 8002e92:	2b00      	cmp	r3, #0
 8002e94:	d1d9      	bne.n	8002e4a <HAL_RCC_OscConfig+0x16>
 8002e96:	e7d1      	b.n	8002e3c <HAL_RCC_OscConfig+0x8>
 8002e98:	6863      	ldr	r3, [r4, #4]
 8002e9a:	4d88      	ldr	r5, [pc, #544]	@ (80030bc <HAL_RCC_OscConfig+0x288>)
 8002e9c:	f5b3 3f80 	cmp.w	r3, #65536	@ 0x10000
 8002ea0:	d111      	bne.n	8002ec6 <HAL_RCC_OscConfig+0x92>
 8002ea2:	682b      	ldr	r3, [r5, #0]
 8002ea4:	f443 3380 	orr.w	r3, r3, #65536	@ 0x10000
 8002ea8:	602b      	str	r3, [r5, #0]
 8002eaa:	f7ff fbd7 	bl	800265c <HAL_GetTick>
 8002eae:	4e83      	ldr	r6, [pc, #524]	@ (80030bc <HAL_RCC_OscConfig+0x288>)
 8002eb0:	4605      	mov	r5, r0
 8002eb2:	6833      	ldr	r3, [r6, #0]
 8002eb4:	039b      	lsls	r3, r3, #14
 8002eb6:	d4c8      	bmi.n	8002e4a <HAL_RCC_OscConfig+0x16>
 8002eb8:	f7ff fbd0 	bl	800265c <HAL_GetTick>
 8002ebc:	1b40      	subs	r0, r0, r5
 8002ebe:	2864      	cmp	r0, #100	@ 0x64
 8002ec0:	d9f7      	bls.n	8002eb2 <HAL_RCC_OscConfig+0x7e>
 8002ec2:	2003      	movs	r0, #3
 8002ec4:	e7bb      	b.n	8002e3e <HAL_RCC_OscConfig+0xa>
 8002ec6:	b99b      	cbnz	r3, 8002ef0 <HAL_RCC_OscConfig+0xbc>
 8002ec8:	682b      	ldr	r3, [r5, #0]
 8002eca:	f423 3380 	bic.w	r3, r3, #65536	@ 0x10000
 8002ece:	602b      	str	r3, [r5, #0]
 8002ed0:	682b      	ldr	r3, [r5, #0]
 8002ed2:	f423 2380 	bic.w	r3, r3, #262144	@ 0x40000
 8002ed6:	602b      	str	r3, [r5, #0]
 8002ed8:	f7ff fbc0 	bl	800265c <HAL_GetTick>
 8002edc:	4606      	mov	r6, r0
 8002ede:	682b      	ldr	r3, [r5, #0]
 8002ee0:	039f      	lsls	r7, r3, #14
 8002ee2:	d5b2      	bpl.n	8002e4a <HAL_RCC_OscConfig+0x16>
 8002ee4:	f7ff fbba 	bl	800265c <HAL_GetTick>
 8002ee8:	1b80      	subs	r0, r0, r6
 8002eea:	2864      	cmp	r0, #100	@ 0x64
 8002eec:	d9f7      	bls.n	8002ede <HAL_RCC_OscConfig+0xaa>
 8002eee:	e7e8      	b.n	8002ec2 <HAL_RCC_OscConfig+0x8e>
 8002ef0:	f5b3 2fa0 	cmp.w	r3, #327680	@ 0x50000
 8002ef4:	682b      	ldr	r3, [r5, #0]
 8002ef6:	d103      	bne.n	8002f00 <HAL_RCC_OscConfig+0xcc>
 8002ef8:	f443 2380 	orr.w	r3, r3, #262144	@ 0x40000
 8002efc:	602b      	str	r3, [r5, #0]
 8002efe:	e7d0      	b.n	8002ea2 <HAL_RCC_OscConfig+0x6e>
 8002f00:	f423 3380 	bic.w	r3, r3, #65536	@ 0x10000
 8002f04:	602b      	str	r3, [r5, #0]
 8002f06:	682b      	ldr	r3, [r5, #0]
 8002f08:	f423 2380 	bic.w	r3, r3, #262144	@ 0x40000
 8002f0c:	e7cc      	b.n	8002ea8 <HAL_RCC_OscConfig+0x74>
 8002f0e:	4b6b      	ldr	r3, [pc, #428]	@ (80030bc <HAL_RCC_OscConfig+0x288>)
 8002f10:	689a      	ldr	r2, [r3, #8]
 8002f12:	f012 0f0c 	tst.w	r2, #12
 8002f16:	d007      	beq.n	8002f28 <HAL_RCC_OscConfig+0xf4>
 8002f18:	689a      	ldr	r2, [r3, #8]
 8002f1a:	f002 020c 	and.w	r2, r2, #12
 8002f1e:	2a08      	cmp	r2, #8
 8002f20:	d111      	bne.n	8002f46 <HAL_RCC_OscConfig+0x112>
 8002f22:	685b      	ldr	r3, [r3, #4]
 8002f24:	025d      	lsls	r5, r3, #9
 8002f26:	d40e      	bmi.n	8002f46 <HAL_RCC_OscConfig+0x112>
 8002f28:	4a64      	ldr	r2, [pc, #400]	@ (80030bc <HAL_RCC_OscConfig+0x288>)
 8002f2a:	6813      	ldr	r3, [r2, #0]
 8002f2c:	0799      	lsls	r1, r3, #30
 8002f2e:	d502      	bpl.n	8002f36 <HAL_RCC_OscConfig+0x102>
 8002f30:	68e3      	ldr	r3, [r4, #12]
 8002f32:	2b01      	cmp	r3, #1
 8002f34:	d182      	bne.n	8002e3c <HAL_RCC_OscConfig+0x8>
 8002f36:	6813      	ldr	r3, [r2, #0]
 8002f38:	6921      	ldr	r1, [r4, #16]
 8002f3a:	f023 03f8 	bic.w	r3, r3, #248	@ 0xf8
 8002f3e:	ea43 03c1 	orr.w	r3, r3, r1, lsl #3
 8002f42:	6013      	str	r3, [r2, #0]
 8002f44:	e784      	b.n	8002e50 <HAL_RCC_OscConfig+0x1c>
 8002f46:	68e3      	ldr	r3, [r4, #12]
 8002f48:	4d5c      	ldr	r5, [pc, #368]	@ (80030bc <HAL_RCC_OscConfig+0x288>)
 8002f4a:	b1bb      	cbz	r3, 8002f7c <HAL_RCC_OscConfig+0x148>
 8002f4c:	682b      	ldr	r3, [r5, #0]
 8002f4e:	f043 0301 	orr.w	r3, r3, #1
 8002f52:	602b      	str	r3, [r5, #0]
 8002f54:	f7ff fb82 	bl	800265c <HAL_GetTick>
 8002f58:	4606      	mov	r6, r0
 8002f5a:	682b      	ldr	r3, [r5, #0]
 8002f5c:	079b      	lsls	r3, r3, #30
 8002f5e:	d507      	bpl.n	8002f70 <HAL_RCC_OscConfig+0x13c>
 8002f60:	682b      	ldr	r3, [r5, #0]
 8002f62:	6922      	ldr	r2, [r4, #16]
 8002f64:	f023 03f8 	bic.w	r3, r3, #248	@ 0xf8
 8002f68:	ea43 03c2 	orr.w	r3, r3, r2, lsl #3
 8002f6c:	602b      	str	r3, [r5, #0]
 8002f6e:	e76f      	b.n	8002e50 <HAL_RCC_OscConfig+0x1c>
 8002f70:	f7ff fb74 	bl	800265c <HAL_GetTick>
 8002f74:	1b80      	subs	r0, r0, r6
 8002f76:	2802      	cmp	r0, #2
 8002f78:	d9ef      	bls.n	8002f5a <HAL_RCC_OscConfig+0x126>
 8002f7a:	e7a2      	b.n	8002ec2 <HAL_RCC_OscConfig+0x8e>
 8002f7c:	682b      	ldr	r3, [r5, #0]
 8002f7e:	f023 0301 	bic.w	r3, r3, #1
 8002f82:	602b      	str	r3, [r5, #0]
 8002f84:	f7ff fb6a 	bl	800265c <HAL_GetTick>
 8002f88:	4606      	mov	r6, r0
 8002f8a:	682b      	ldr	r3, [r5, #0]
 8002f8c:	079f      	lsls	r7, r3, #30
 8002f8e:	f57f af5f 	bpl.w	8002e50 <HAL_RCC_OscConfig+0x1c>
 8002f92:	f7ff fb63 	bl	800265c <HAL_GetTick>
 8002f96:	1b80      	subs	r0, r0, r6
 8002f98:	2802      	cmp	r0, #2
 8002f9a:	d9f6      	bls.n	8002f8a <HAL_RCC_OscConfig+0x156>
 8002f9c:	e791      	b.n	8002ec2 <HAL_RCC_OscConfig+0x8e>
 8002f9e:	6963      	ldr	r3, [r4, #20]
 8002fa0:	4d46      	ldr	r5, [pc, #280]	@ (80030bc <HAL_RCC_OscConfig+0x288>)
 8002fa2:	b183      	cbz	r3, 8002fc6 <HAL_RCC_OscConfig+0x192>
 8002fa4:	6f6b      	ldr	r3, [r5, #116]	@ 0x74
 8002fa6:	f043 0301 	orr.w	r3, r3, #1
 8002faa:	676b      	str	r3, [r5, #116]	@ 0x74
 8002fac:	f7ff fb56 	bl	800265c <HAL_GetTick>
 8002fb0:	4606      	mov	r6, r0
 8002fb2:	6f6b      	ldr	r3, [r5, #116]	@ 0x74
 8002fb4:	079b      	lsls	r3, r3, #30
 8002fb6:	f53f af4f 	bmi.w	8002e58 <HAL_RCC_OscConfig+0x24>
 8002fba:	f7ff fb4f 	bl	800265c <HAL_GetTick>
 8002fbe:	1b80      	subs	r0, r0, r6
 8002fc0:	2802      	cmp	r0, #2
 8002fc2:	d9f6      	bls.n	8002fb2 <HAL_RCC_OscConfig+0x17e>
 8002fc4:	e77d      	b.n	8002ec2 <HAL_RCC_OscConfig+0x8e>
 8002fc6:	6f6b      	ldr	r3, [r5, #116]	@ 0x74
 8002fc8:	f023 0301 	bic.w	r3, r3, #1
 8002fcc:	676b      	str	r3, [r5, #116]	@ 0x74
 8002fce:	f7ff fb45 	bl	800265c <HAL_GetTick>
 8002fd2:	4606      	mov	r6, r0
 8002fd4:	6f6b      	ldr	r3, [r5, #116]	@ 0x74
 8002fd6:	079f      	lsls	r7, r3, #30
 8002fd8:	f57f af3e 	bpl.w	8002e58 <HAL_RCC_OscConfig+0x24>
 8002fdc:	f7ff fb3e 	bl	800265c <HAL_GetTick>
 8002fe0:	1b80      	subs	r0, r0, r6
 8002fe2:	2802      	cmp	r0, #2
 8002fe4:	d9f6      	bls.n	8002fd4 <HAL_RCC_OscConfig+0x1a0>
 8002fe6:	e76c      	b.n	8002ec2 <HAL_RCC_OscConfig+0x8e>
 8002fe8:	4b34      	ldr	r3, [pc, #208]	@ (80030bc <HAL_RCC_OscConfig+0x288>)
 8002fea:	6c1a      	ldr	r2, [r3, #64]	@ 0x40
 8002fec:	00d5      	lsls	r5, r2, #3
 8002fee:	d427      	bmi.n	8003040 <HAL_RCC_OscConfig+0x20c>
 8002ff0:	6c1a      	ldr	r2, [r3, #64]	@ 0x40
 8002ff2:	2701      	movs	r7, #1
 8002ff4:	f042 5280 	orr.w	r2, r2, #268435456	@ 0x10000000
 8002ff8:	641a      	str	r2, [r3, #64]	@ 0x40
 8002ffa:	6c1b      	ldr	r3, [r3, #64]	@ 0x40
 8002ffc:	f003 5380 	and.w	r3, r3, #268435456	@ 0x10000000
 8003000:	9301      	str	r3, [sp, #4]
 8003002:	9b01      	ldr	r3, [sp, #4]
 8003004:	4d2e      	ldr	r5, [pc, #184]	@ (80030c0 <HAL_RCC_OscConfig+0x28c>)
 8003006:	682b      	ldr	r3, [r5, #0]
 8003008:	05d8      	lsls	r0, r3, #23
 800300a:	d51b      	bpl.n	8003044 <HAL_RCC_OscConfig+0x210>
 800300c:	68a3      	ldr	r3, [r4, #8]
 800300e:	4d2b      	ldr	r5, [pc, #172]	@ (80030bc <HAL_RCC_OscConfig+0x288>)
 8003010:	2b01      	cmp	r3, #1
 8003012:	d127      	bne.n	8003064 <HAL_RCC_OscConfig+0x230>
 8003014:	6f2b      	ldr	r3, [r5, #112]	@ 0x70
 8003016:	f043 0301 	orr.w	r3, r3, #1
 800301a:	672b      	str	r3, [r5, #112]	@ 0x70
 800301c:	f241 3888 	movw	r8, #5000	@ 0x1388
 8003020:	f7ff fb1c 	bl	800265c <HAL_GetTick>
 8003024:	4e25      	ldr	r6, [pc, #148]	@ (80030bc <HAL_RCC_OscConfig+0x288>)
 8003026:	4605      	mov	r5, r0
 8003028:	6f33      	ldr	r3, [r6, #112]	@ 0x70
 800302a:	079a      	lsls	r2, r3, #30
 800302c:	d53f      	bpl.n	80030ae <HAL_RCC_OscConfig+0x27a>
 800302e:	2f00      	cmp	r7, #0
 8003030:	f43f af16 	beq.w	8002e60 <HAL_RCC_OscConfig+0x2c>
 8003034:	4a21      	ldr	r2, [pc, #132]	@ (80030bc <HAL_RCC_OscConfig+0x288>)
 8003036:	6c13      	ldr	r3, [r2, #64]	@ 0x40
 8003038:	f023 5380 	bic.w	r3, r3, #268435456	@ 0x10000000
 800303c:	6413      	str	r3, [r2, #64]	@ 0x40
 800303e:	e70f      	b.n	8002e60 <HAL_RCC_OscConfig+0x2c>
 8003040:	2700      	movs	r7, #0
 8003042:	e7df      	b.n	8003004 <HAL_RCC_OscConfig+0x1d0>
 8003044:	682b      	ldr	r3, [r5, #0]
 8003046:	f443 7380 	orr.w	r3, r3, #256	@ 0x100
 800304a:	602b      	str	r3, [r5, #0]
 800304c:	f7ff fb06 	bl	800265c <HAL_GetTick>
 8003050:	4606      	mov	r6, r0
 8003052:	682b      	ldr	r3, [r5, #0]
 8003054:	05d9      	lsls	r1, r3, #23
 8003056:	d4d9      	bmi.n	800300c <HAL_RCC_OscConfig+0x1d8>
 8003058:	f7ff fb00 	bl	800265c <HAL_GetTick>
 800305c:	1b80      	subs	r0, r0, r6
 800305e:	2864      	cmp	r0, #100	@ 0x64
 8003060:	d9f7      	bls.n	8003052 <HAL_RCC_OscConfig+0x21e>
 8003062:	e72e      	b.n	8002ec2 <HAL_RCC_OscConfig+0x8e>
 8003064:	b9ab      	cbnz	r3, 8003092 <HAL_RCC_OscConfig+0x25e>
 8003066:	6f2b      	ldr	r3, [r5, #112]	@ 0x70
 8003068:	f241 3888 	movw	r8, #5000	@ 0x1388
 800306c:	f023 0301 	bic.w	r3, r3, #1
 8003070:	672b      	str	r3, [r5, #112]	@ 0x70
 8003072:	6f2b      	ldr	r3, [r5, #112]	@ 0x70
 8003074:	f023 0304 	bic.w	r3, r3, #4
 8003078:	672b      	str	r3, [r5, #112]	@ 0x70
 800307a:	f7ff faef 	bl	800265c <HAL_GetTick>
 800307e:	4606      	mov	r6, r0
 8003080:	6f2b      	ldr	r3, [r5, #112]	@ 0x70
 8003082:	079b      	lsls	r3, r3, #30
 8003084:	d5d3      	bpl.n	800302e <HAL_RCC_OscConfig+0x1fa>
 8003086:	f7ff fae9 	bl	800265c <HAL_GetTick>
 800308a:	1b80      	subs	r0, r0, r6
 800308c:	4540      	cmp	r0, r8
 800308e:	d9f7      	bls.n	8003080 <HAL_RCC_OscConfig+0x24c>
 8003090:	e717      	b.n	8002ec2 <HAL_RCC_OscConfig+0x8e>
 8003092:	2b05      	cmp	r3, #5
 8003094:	6f2b      	ldr	r3, [r5, #112]	@ 0x70
 8003096:	d103      	bne.n	80030a0 <HAL_RCC_OscConfig+0x26c>
 8003098:	f043 0304 	orr.w	r3, r3, #4
 800309c:	672b      	str	r3, [r5, #112]	@ 0x70
 800309e:	e7b9      	b.n	8003014 <HAL_RCC_OscConfig+0x1e0>
 80030a0:	f023 0301 	bic.w	r3, r3, #1
 80030a4:	672b      	str	r3, [r5, #112]	@ 0x70
 80030a6:	6f2b      	ldr	r3, [r5, #112]	@ 0x70
 80030a8:	f023 0304 	bic.w	r3, r3, #4
 80030ac:	e7b5      	b.n	800301a <HAL_RCC_OscConfig+0x1e6>
 80030ae:	f7ff fad5 	bl	800265c <HAL_GetTick>
 80030b2:	1b40      	subs	r0, r0, r5
 80030b4:	4540      	cmp	r0, r8
 80030b6:	d9b7      	bls.n	8003028 <HAL_RCC_OscConfig+0x1f4>
 80030b8:	e703      	b.n	8002ec2 <HAL_RCC_OscConfig+0x8e>
 80030ba:	bf00      	nop
 80030bc:	40023800 	.word	0x40023800
 80030c0:	40007000 	.word	0x40007000
 80030c4:	4d3c      	ldr	r5, [pc, #240]	@ (80031b8 <HAL_RCC_OscConfig+0x384>)
 80030c6:	68ab      	ldr	r3, [r5, #8]
 80030c8:	f003 030c 	and.w	r3, r3, #12
 80030cc:	2b08      	cmp	r3, #8
 80030ce:	d042      	beq.n	8003156 <HAL_RCC_OscConfig+0x322>
 80030d0:	682b      	ldr	r3, [r5, #0]
 80030d2:	2a02      	cmp	r2, #2
 80030d4:	f023 7380 	bic.w	r3, r3, #16777216	@ 0x1000000
 80030d8:	602b      	str	r3, [r5, #0]
 80030da:	d12f      	bne.n	800313c <HAL_RCC_OscConfig+0x308>
 80030dc:	f7ff fabe 	bl	800265c <HAL_GetTick>
 80030e0:	4606      	mov	r6, r0
 80030e2:	682b      	ldr	r3, [r5, #0]
 80030e4:	0199      	lsls	r1, r3, #6
 80030e6:	d423      	bmi.n	8003130 <HAL_RCC_OscConfig+0x2fc>
 80030e8:	e9d4 3207 	ldrd	r3, r2, [r4, #28]
 80030ec:	4313      	orrs	r3, r2
 80030ee:	6a62      	ldr	r2, [r4, #36]	@ 0x24
 80030f0:	ea43 1382 	orr.w	r3, r3, r2, lsl #6
 80030f4:	6ae2      	ldr	r2, [r4, #44]	@ 0x2c
 80030f6:	ea43 6302 	orr.w	r3, r3, r2, lsl #24
 80030fa:	6b22      	ldr	r2, [r4, #48]	@ 0x30
 80030fc:	ea43 7302 	orr.w	r3, r3, r2, lsl #28
 8003100:	6aa2      	ldr	r2, [r4, #40]	@ 0x28
 8003102:	0852      	lsrs	r2, r2, #1
 8003104:	3a01      	subs	r2, #1
 8003106:	ea43 4302 	orr.w	r3, r3, r2, lsl #16
 800310a:	606b      	str	r3, [r5, #4]
 800310c:	682b      	ldr	r3, [r5, #0]
 800310e:	f043 7380 	orr.w	r3, r3, #16777216	@ 0x1000000
 8003112:	602b      	str	r3, [r5, #0]
 8003114:	f7ff faa2 	bl	800265c <HAL_GetTick>
 8003118:	4d27      	ldr	r5, [pc, #156]	@ (80031b8 <HAL_RCC_OscConfig+0x384>)
 800311a:	4604      	mov	r4, r0
 800311c:	682b      	ldr	r3, [r5, #0]
 800311e:	019a      	lsls	r2, r3, #6
 8003120:	f53f aea2 	bmi.w	8002e68 <HAL_RCC_OscConfig+0x34>
 8003124:	f7ff fa9a 	bl	800265c <HAL_GetTick>
 8003128:	1b00      	subs	r0, r0, r4
 800312a:	2802      	cmp	r0, #2
 800312c:	d9f6      	bls.n	800311c <HAL_RCC_OscConfig+0x2e8>
 800312e:	e6c8      	b.n	8002ec2 <HAL_RCC_OscConfig+0x8e>
 8003130:	f7ff fa94 	bl	800265c <HAL_GetTick>
 8003134:	1b80      	subs	r0, r0, r6
 8003136:	2802      	cmp	r0, #2
 8003138:	d9d3      	bls.n	80030e2 <HAL_RCC_OscConfig+0x2ae>
 800313a:	e6c2      	b.n	8002ec2 <HAL_RCC_OscConfig+0x8e>
 800313c:	f7ff fa8e 	bl	800265c <HAL_GetTick>
 8003140:	4604      	mov	r4, r0
 8003142:	682b      	ldr	r3, [r5, #0]
 8003144:	019b      	lsls	r3, r3, #6
 8003146:	f57f ae8f 	bpl.w	8002e68 <HAL_RCC_OscConfig+0x34>
 800314a:	f7ff fa87 	bl	800265c <HAL_GetTick>
 800314e:	1b00      	subs	r0, r0, r4
 8003150:	2802      	cmp	r0, #2
 8003152:	d9f6      	bls.n	8003142 <HAL_RCC_OscConfig+0x30e>
 8003154:	e6b5      	b.n	8002ec2 <HAL_RCC_OscConfig+0x8e>
 8003156:	2a01      	cmp	r2, #1
 8003158:	686b      	ldr	r3, [r5, #4]
 800315a:	f43f ae6f 	beq.w	8002e3c <HAL_RCC_OscConfig+0x8>
 800315e:	f403 0280 	and.w	r2, r3, #4194304	@ 0x400000
 8003162:	69e1      	ldr	r1, [r4, #28]
 8003164:	428a      	cmp	r2, r1
 8003166:	f47f ae69 	bne.w	8002e3c <HAL_RCC_OscConfig+0x8>
 800316a:	f003 023f 	and.w	r2, r3, #63	@ 0x3f
 800316e:	6a21      	ldr	r1, [r4, #32]
 8003170:	428a      	cmp	r2, r1
 8003172:	f47f ae63 	bne.w	8002e3c <HAL_RCC_OscConfig+0x8>
 8003176:	f647 72c0 	movw	r2, #32704	@ 0x7fc0
 800317a:	6a61      	ldr	r1, [r4, #36]	@ 0x24
 800317c:	401a      	ands	r2, r3
 800317e:	ebb2 1f81 	cmp.w	r2, r1, lsl #6
 8003182:	f47f ae5b 	bne.w	8002e3c <HAL_RCC_OscConfig+0x8>
 8003186:	6aa2      	ldr	r2, [r4, #40]	@ 0x28
 8003188:	f403 3140 	and.w	r1, r3, #196608	@ 0x30000
 800318c:	0852      	lsrs	r2, r2, #1
 800318e:	3a01      	subs	r2, #1
 8003190:	ebb1 4f02 	cmp.w	r1, r2, lsl #16
 8003194:	f47f ae52 	bne.w	8002e3c <HAL_RCC_OscConfig+0x8>
 8003198:	f003 6270 	and.w	r2, r3, #251658240	@ 0xf000000
 800319c:	6ae1      	ldr	r1, [r4, #44]	@ 0x2c
 800319e:	ebb2 6f01 	cmp.w	r2, r1, lsl #24
 80031a2:	f47f ae4b 	bne.w	8002e3c <HAL_RCC_OscConfig+0x8>
 80031a6:	6b22      	ldr	r2, [r4, #48]	@ 0x30
 80031a8:	f003 43e0 	and.w	r3, r3, #1879048192	@ 0x70000000
 80031ac:	ebb3 7f02 	cmp.w	r3, r2, lsl #28
 80031b0:	bf14      	ite	ne
 80031b2:	2001      	movne	r0, #1
 80031b4:	2000      	moveq	r0, #0
 80031b6:	e642      	b.n	8002e3e <HAL_RCC_OscConfig+0xa>
 80031b8:	40023800 	.word	0x40023800

080031bc <HAL_RCC_GetSysClockFreq>:
 80031bc:	4913      	ldr	r1, [pc, #76]	@ (800320c <HAL_RCC_GetSysClockFreq+0x50>)
 80031be:	b508      	push	{r3, lr}
 80031c0:	688b      	ldr	r3, [r1, #8]
 80031c2:	f003 030c 	and.w	r3, r3, #12
 80031c6:	2b04      	cmp	r3, #4
 80031c8:	d01b      	beq.n	8003202 <HAL_RCC_GetSysClockFreq+0x46>
 80031ca:	2b08      	cmp	r3, #8
 80031cc:	d11b      	bne.n	8003206 <HAL_RCC_GetSysClockFreq+0x4a>
 80031ce:	684a      	ldr	r2, [r1, #4]
 80031d0:	684b      	ldr	r3, [r1, #4]
 80031d2:	6849      	ldr	r1, [r1, #4]
 80031d4:	f002 023f 	and.w	r2, r2, #63	@ 0x3f
 80031d8:	f413 0380 	ands.w	r3, r3, #4194304	@ 0x400000
 80031dc:	f3c1 1188 	ubfx	r1, r1, #6, #9
 80031e0:	bf1a      	itte	ne
 80031e2:	480b      	ldrne	r0, [pc, #44]	@ (8003210 <HAL_RCC_GetSysClockFreq+0x54>)
 80031e4:	2300      	movne	r3, #0
 80031e6:	480b      	ldreq	r0, [pc, #44]	@ (8003214 <HAL_RCC_GetSysClockFreq+0x58>)
 80031e8:	fba1 0100 	umull	r0, r1, r1, r0
 80031ec:	f7fd f890 	bl	8000310 <__aeabi_uldivmod>
 80031f0:	4b06      	ldr	r3, [pc, #24]	@ (800320c <HAL_RCC_GetSysClockFreq+0x50>)
 80031f2:	685b      	ldr	r3, [r3, #4]
 80031f4:	f3c3 4301 	ubfx	r3, r3, #16, #2
 80031f8:	3301      	adds	r3, #1
 80031fa:	005b      	lsls	r3, r3, #1
 80031fc:	fbb0 f0f3 	udiv	r0, r0, r3
 8003200:	bd08      	pop	{r3, pc}
 8003202:	4803      	ldr	r0, [pc, #12]	@ (8003210 <HAL_RCC_GetSysClockFreq+0x54>)
 8003204:	e7fc      	b.n	8003200 <HAL_RCC_GetSysClockFreq+0x44>
 8003206:	4803      	ldr	r0, [pc, #12]	@ (8003214 <HAL_RCC_GetSysClockFreq+0x58>)
 8003208:	e7fa      	b.n	8003200 <HAL_RCC_GetSysClockFreq+0x44>
 800320a:	bf00      	nop
 800320c:	40023800 	.word	0x40023800
 8003210:	007a1200 	.word	0x007a1200
 8003214:	00f42400 	.word	0x00f42400

08003218 <HAL_RCC_ClockConfig>:
 8003218:	e92d 41f0 	stmdb	sp!, {r4, r5, r6, r7, r8, lr}
 800321c:	460d      	mov	r5, r1
 800321e:	4604      	mov	r4, r0
 8003220:	b910      	cbnz	r0, 8003228 <HAL_RCC_ClockConfig+0x10>
 8003222:	2001      	movs	r0, #1
 8003224:	e8bd 81f0 	ldmia.w	sp!, {r4, r5, r6, r7, r8, pc}
 8003228:	4a45      	ldr	r2, [pc, #276]	@ (8003340 <HAL_RCC_ClockConfig+0x128>)
 800322a:	6813      	ldr	r3, [r2, #0]
 800322c:	f003 030f 	and.w	r3, r3, #15
 8003230:	428b      	cmp	r3, r1
 8003232:	d328      	bcc.n	8003286 <HAL_RCC_ClockConfig+0x6e>
 8003234:	6821      	ldr	r1, [r4, #0]
 8003236:	078f      	lsls	r7, r1, #30
 8003238:	d430      	bmi.n	800329c <HAL_RCC_ClockConfig+0x84>
 800323a:	07c8      	lsls	r0, r1, #31
 800323c:	d443      	bmi.n	80032c6 <HAL_RCC_ClockConfig+0xae>
 800323e:	4a40      	ldr	r2, [pc, #256]	@ (8003340 <HAL_RCC_ClockConfig+0x128>)
 8003240:	6813      	ldr	r3, [r2, #0]
 8003242:	f003 030f 	and.w	r3, r3, #15
 8003246:	42ab      	cmp	r3, r5
 8003248:	d866      	bhi.n	8003318 <HAL_RCC_ClockConfig+0x100>
 800324a:	6822      	ldr	r2, [r4, #0]
 800324c:	0751      	lsls	r1, r2, #29
 800324e:	d46f      	bmi.n	8003330 <HAL_RCC_ClockConfig+0x118>
 8003250:	0713      	lsls	r3, r2, #28
 8003252:	d507      	bpl.n	8003264 <HAL_RCC_ClockConfig+0x4c>
 8003254:	4a3b      	ldr	r2, [pc, #236]	@ (8003344 <HAL_RCC_ClockConfig+0x12c>)
 8003256:	6921      	ldr	r1, [r4, #16]
 8003258:	6893      	ldr	r3, [r2, #8]
 800325a:	f423 4360 	bic.w	r3, r3, #57344	@ 0xe000
 800325e:	ea43 03c1 	orr.w	r3, r3, r1, lsl #3
 8003262:	6093      	str	r3, [r2, #8]
 8003264:	f7ff ffaa 	bl	80031bc <HAL_RCC_GetSysClockFreq>
 8003268:	4b36      	ldr	r3, [pc, #216]	@ (8003344 <HAL_RCC_ClockConfig+0x12c>)
 800326a:	4a37      	ldr	r2, [pc, #220]	@ (8003348 <HAL_RCC_ClockConfig+0x130>)
 800326c:	689b      	ldr	r3, [r3, #8]
 800326e:	f3c3 1303 	ubfx	r3, r3, #4, #4
 8003272:	5cd3      	ldrb	r3, [r2, r3]
 8003274:	40d8      	lsrs	r0, r3
 8003276:	4b35      	ldr	r3, [pc, #212]	@ (800334c <HAL_RCC_ClockConfig+0x134>)
 8003278:	6018      	str	r0, [r3, #0]
 800327a:	4b35      	ldr	r3, [pc, #212]	@ (8003350 <HAL_RCC_ClockConfig+0x138>)
 800327c:	6818      	ldr	r0, [r3, #0]
 800327e:	f7ff f9b1 	bl	80025e4 <HAL_InitTick>
 8003282:	2000      	movs	r0, #0
 8003284:	e7ce      	b.n	8003224 <HAL_RCC_ClockConfig+0xc>
 8003286:	6813      	ldr	r3, [r2, #0]
 8003288:	f023 030f 	bic.w	r3, r3, #15
 800328c:	430b      	orrs	r3, r1
 800328e:	6013      	str	r3, [r2, #0]
 8003290:	6813      	ldr	r3, [r2, #0]
 8003292:	f003 030f 	and.w	r3, r3, #15
 8003296:	428b      	cmp	r3, r1
 8003298:	d1c3      	bne.n	8003222 <HAL_RCC_ClockConfig+0xa>
 800329a:	e7cb      	b.n	8003234 <HAL_RCC_ClockConfig+0x1c>
 800329c:	f011 0f04 	tst.w	r1, #4
 80032a0:	4b28      	ldr	r3, [pc, #160]	@ (8003344 <HAL_RCC_ClockConfig+0x12c>)
 80032a2:	d003      	beq.n	80032ac <HAL_RCC_ClockConfig+0x94>
 80032a4:	689a      	ldr	r2, [r3, #8]
 80032a6:	f442 52e0 	orr.w	r2, r2, #7168	@ 0x1c00
 80032aa:	609a      	str	r2, [r3, #8]
 80032ac:	070e      	lsls	r6, r1, #28
 80032ae:	d503      	bpl.n	80032b8 <HAL_RCC_ClockConfig+0xa0>
 80032b0:	689a      	ldr	r2, [r3, #8]
 80032b2:	f442 4260 	orr.w	r2, r2, #57344	@ 0xe000
 80032b6:	609a      	str	r2, [r3, #8]
 80032b8:	689a      	ldr	r2, [r3, #8]
 80032ba:	68a0      	ldr	r0, [r4, #8]
 80032bc:	f022 02f0 	bic.w	r2, r2, #240	@ 0xf0
 80032c0:	4302      	orrs	r2, r0
 80032c2:	609a      	str	r2, [r3, #8]
 80032c4:	e7b9      	b.n	800323a <HAL_RCC_ClockConfig+0x22>
 80032c6:	6861      	ldr	r1, [r4, #4]
 80032c8:	4b1e      	ldr	r3, [pc, #120]	@ (8003344 <HAL_RCC_ClockConfig+0x12c>)
 80032ca:	2901      	cmp	r1, #1
 80032cc:	681a      	ldr	r2, [r3, #0]
 80032ce:	d11b      	bne.n	8003308 <HAL_RCC_ClockConfig+0xf0>
 80032d0:	f412 3f00 	tst.w	r2, #131072	@ 0x20000
 80032d4:	d0a5      	beq.n	8003222 <HAL_RCC_ClockConfig+0xa>
 80032d6:	689a      	ldr	r2, [r3, #8]
 80032d8:	f241 3888 	movw	r8, #5000	@ 0x1388
 80032dc:	4f19      	ldr	r7, [pc, #100]	@ (8003344 <HAL_RCC_ClockConfig+0x12c>)
 80032de:	f022 0203 	bic.w	r2, r2, #3
 80032e2:	430a      	orrs	r2, r1
 80032e4:	609a      	str	r2, [r3, #8]
 80032e6:	f7ff f9b9 	bl	800265c <HAL_GetTick>
 80032ea:	4606      	mov	r6, r0
 80032ec:	68bb      	ldr	r3, [r7, #8]
 80032ee:	6862      	ldr	r2, [r4, #4]
 80032f0:	f003 030c 	and.w	r3, r3, #12
 80032f4:	ebb3 0f82 	cmp.w	r3, r2, lsl #2
 80032f8:	d0a1      	beq.n	800323e <HAL_RCC_ClockConfig+0x26>
 80032fa:	f7ff f9af 	bl	800265c <HAL_GetTick>
 80032fe:	1b80      	subs	r0, r0, r6
 8003300:	4540      	cmp	r0, r8
 8003302:	d9f3      	bls.n	80032ec <HAL_RCC_ClockConfig+0xd4>
 8003304:	2003      	movs	r0, #3
 8003306:	e78d      	b.n	8003224 <HAL_RCC_ClockConfig+0xc>
 8003308:	2902      	cmp	r1, #2
 800330a:	d102      	bne.n	8003312 <HAL_RCC_ClockConfig+0xfa>
 800330c:	f012 7f00 	tst.w	r2, #33554432	@ 0x2000000
 8003310:	e7e0      	b.n	80032d4 <HAL_RCC_ClockConfig+0xbc>
 8003312:	f012 0f02 	tst.w	r2, #2
 8003316:	e7dd      	b.n	80032d4 <HAL_RCC_ClockConfig+0xbc>
 8003318:	6813      	ldr	r3, [r2, #0]
 800331a:	f023 030f 	bic.w	r3, r3, #15
 800331e:	432b      	orrs	r3, r5
 8003320:	6013      	str	r3, [r2, #0]
 8003322:	6813      	ldr	r3, [r2, #0]
 8003324:	f003 030f 	and.w	r3, r3, #15
 8003328:	42ab      	cmp	r3, r5
 800332a:	f47f af7a 	bne.w	8003222 <HAL_RCC_ClockConfig+0xa>
 800332e:	e78c      	b.n	800324a <HAL_RCC_ClockConfig+0x32>
 8003330:	4904      	ldr	r1, [pc, #16]	@ (8003344 <HAL_RCC_ClockConfig+0x12c>)
 8003332:	68e0      	ldr	r0, [r4, #12]
 8003334:	688b      	ldr	r3, [r1, #8]
 8003336:	f423 53e0 	bic.w	r3, r3, #7168	@ 0x1c00
 800333a:	4303      	orrs	r3, r0
 800333c:	608b      	str	r3, [r1, #8]
 800333e:	e787      	b.n	8003250 <HAL_RCC_ClockConfig+0x38>
 8003340:	40023c00 	.word	0x40023c00
 8003344:	40023800 	.word	0x40023800
 8003348:	08006453 	.word	0x08006453
 800334c:	20000000 	.word	0x20000000
 8003350:	20000008 	.word	0x20000008

08003354 <HAL_RCC_GetPCLK1Freq>:
 8003354:	4b04      	ldr	r3, [pc, #16]	@ (8003368 <HAL_RCC_GetPCLK1Freq+0x14>)
 8003356:	4a05      	ldr	r2, [pc, #20]	@ (800336c <HAL_RCC_GetPCLK1Freq+0x18>)
 8003358:	689b      	ldr	r3, [r3, #8]
 800335a:	f3c3 2382 	ubfx	r3, r3, #10, #3
 800335e:	5cd3      	ldrb	r3, [r2, r3]
 8003360:	4a03      	ldr	r2, [pc, #12]	@ (8003370 <HAL_RCC_GetPCLK1Freq+0x1c>)
 8003362:	6810      	ldr	r0, [r2, #0]
 8003364:	40d8      	lsrs	r0, r3
 8003366:	4770      	bx	lr
 8003368:	40023800 	.word	0x40023800
 800336c:	0800644b 	.word	0x0800644b
 8003370:	20000000 	.word	0x20000000

08003374 <HAL_RCC_GetPCLK2Freq>:
 8003374:	4b04      	ldr	r3, [pc, #16]	@ (8003388 <HAL_RCC_GetPCLK2Freq+0x14>)
 8003376:	4a05      	ldr	r2, [pc, #20]	@ (800338c <HAL_RCC_GetPCLK2Freq+0x18>)
 8003378:	689b      	ldr	r3, [r3, #8]
 800337a:	f3c3 3342 	ubfx	r3, r3, #13, #3
 800337e:	5cd3      	ldrb	r3, [r2, r3]
 8003380:	4a03      	ldr	r2, [pc, #12]	@ (8003390 <HAL_RCC_GetPCLK2Freq+0x1c>)
 8003382:	6810      	ldr	r0, [r2, #0]
 8003384:	40d8      	lsrs	r0, r3
 8003386:	4770      	bx	lr
 8003388:	40023800 	.word	0x40023800
 800338c:	0800644b 	.word	0x0800644b
 8003390:	20000000 	.word	0x20000000

08003394 <HAL_RCCEx_PeriphCLKConfig>:
 8003394:	6803      	ldr	r3, [r0, #0]
 8003396:	e92d 43f7 	stmdb	sp!, {r0, r1, r2, r4, r5, r6, r7, r8, r9, lr}
 800339a:	f013 0601 	ands.w	r6, r3, #1
 800339e:	4604      	mov	r4, r0
 80033a0:	d00b      	beq.n	80033ba <HAL_RCCEx_PeriphCLKConfig+0x26>
 80033a2:	4ab1      	ldr	r2, [pc, #708]	@ (8003668 <HAL_RCCEx_PeriphCLKConfig+0x2d4>)
 80033a4:	6891      	ldr	r1, [r2, #8]
 80033a6:	f421 0100 	bic.w	r1, r1, #8388608	@ 0x800000
 80033aa:	6091      	str	r1, [r2, #8]
 80033ac:	6b46      	ldr	r6, [r0, #52]	@ 0x34
 80033ae:	6891      	ldr	r1, [r2, #8]
 80033b0:	4331      	orrs	r1, r6
 80033b2:	fab6 f686 	clz	r6, r6
 80033b6:	0976      	lsrs	r6, r6, #5
 80033b8:	6091      	str	r1, [r2, #8]
 80033ba:	f413 2500 	ands.w	r5, r3, #524288	@ 0x80000
 80033be:	d012      	beq.n	80033e6 <HAL_RCCEx_PeriphCLKConfig+0x52>
 80033c0:	49a9      	ldr	r1, [pc, #676]	@ (8003668 <HAL_RCCEx_PeriphCLKConfig+0x2d4>)
 80033c2:	6be5      	ldr	r5, [r4, #60]	@ 0x3c
 80033c4:	f8d1 208c 	ldr.w	r2, [r1, #140]	@ 0x8c
 80033c8:	f5b5 1f80 	cmp.w	r5, #1048576	@ 0x100000
 80033cc:	f422 1240 	bic.w	r2, r2, #3145728	@ 0x300000
 80033d0:	bf08      	it	eq
 80033d2:	2601      	moveq	r6, #1
 80033d4:	ea42 0205 	orr.w	r2, r2, r5
 80033d8:	bf16      	itet	ne
 80033da:	fab5 f585 	clzne	r5, r5
 80033de:	2500      	moveq	r5, #0
 80033e0:	096d      	lsrne	r5, r5, #5
 80033e2:	f8c1 208c 	str.w	r2, [r1, #140]	@ 0x8c
 80033e6:	02d9      	lsls	r1, r3, #11
 80033e8:	d510      	bpl.n	800340c <HAL_RCCEx_PeriphCLKConfig+0x78>
 80033ea:	489f      	ldr	r0, [pc, #636]	@ (8003668 <HAL_RCCEx_PeriphCLKConfig+0x2d4>)
 80033ec:	6c21      	ldr	r1, [r4, #64]	@ 0x40
 80033ee:	f8d0 208c 	ldr.w	r2, [r0, #140]	@ 0x8c
 80033f2:	f5b1 0f80 	cmp.w	r1, #4194304	@ 0x400000
 80033f6:	f422 0240 	bic.w	r2, r2, #12582912	@ 0xc00000
 80033fa:	ea42 0201 	orr.w	r2, r2, r1
 80033fe:	f8c0 208c 	str.w	r2, [r0, #140]	@ 0x8c
 8003402:	f000 81aa 	beq.w	800375a <HAL_RCCEx_PeriphCLKConfig+0x3c6>
 8003406:	2900      	cmp	r1, #0
 8003408:	bf08      	it	eq
 800340a:	2501      	moveq	r5, #1
 800340c:	f013 7f80 	tst.w	r3, #16777216	@ 0x1000000
 8003410:	bf18      	it	ne
 8003412:	2601      	movne	r6, #1
 8003414:	069a      	lsls	r2, r3, #26
 8003416:	d532      	bpl.n	800347e <HAL_RCCEx_PeriphCLKConfig+0xea>
 8003418:	4b93      	ldr	r3, [pc, #588]	@ (8003668 <HAL_RCCEx_PeriphCLKConfig+0x2d4>)
 800341a:	4f94      	ldr	r7, [pc, #592]	@ (800366c <HAL_RCCEx_PeriphCLKConfig+0x2d8>)
 800341c:	6c1a      	ldr	r2, [r3, #64]	@ 0x40
 800341e:	f042 5280 	orr.w	r2, r2, #268435456	@ 0x10000000
 8003422:	641a      	str	r2, [r3, #64]	@ 0x40
 8003424:	6c1b      	ldr	r3, [r3, #64]	@ 0x40
 8003426:	f003 5380 	and.w	r3, r3, #268435456	@ 0x10000000
 800342a:	9301      	str	r3, [sp, #4]
 800342c:	9b01      	ldr	r3, [sp, #4]
 800342e:	683b      	ldr	r3, [r7, #0]
 8003430:	f443 7380 	orr.w	r3, r3, #256	@ 0x100
 8003434:	603b      	str	r3, [r7, #0]
 8003436:	f7ff f911 	bl	800265c <HAL_GetTick>
 800343a:	4680      	mov	r8, r0
 800343c:	683b      	ldr	r3, [r7, #0]
 800343e:	05db      	lsls	r3, r3, #23
 8003440:	f140 818d 	bpl.w	800375e <HAL_RCCEx_PeriphCLKConfig+0x3ca>
 8003444:	4f88      	ldr	r7, [pc, #544]	@ (8003668 <HAL_RCCEx_PeriphCLKConfig+0x2d4>)
 8003446:	6b22      	ldr	r2, [r4, #48]	@ 0x30
 8003448:	6f3b      	ldr	r3, [r7, #112]	@ 0x70
 800344a:	f413 7340 	ands.w	r3, r3, #768	@ 0x300
 800344e:	f040 8191 	bne.w	8003774 <HAL_RCCEx_PeriphCLKConfig+0x3e0>
 8003452:	6b23      	ldr	r3, [r4, #48]	@ 0x30
 8003454:	f403 7240 	and.w	r2, r3, #768	@ 0x300
 8003458:	f5b2 7f40 	cmp.w	r2, #768	@ 0x300
 800345c:	4a82      	ldr	r2, [pc, #520]	@ (8003668 <HAL_RCCEx_PeriphCLKConfig+0x2d4>)
 800345e:	f040 81ae 	bne.w	80037be <HAL_RCCEx_PeriphCLKConfig+0x42a>
 8003462:	6891      	ldr	r1, [r2, #8]
 8003464:	f023 4070 	bic.w	r0, r3, #4026531840	@ 0xf0000000
 8003468:	f421 11f8 	bic.w	r1, r1, #2031616	@ 0x1f0000
 800346c:	f420 7040 	bic.w	r0, r0, #768	@ 0x300
 8003470:	4301      	orrs	r1, r0
 8003472:	6091      	str	r1, [r2, #8]
 8003474:	f3c3 030b 	ubfx	r3, r3, #0, #12
 8003478:	6f11      	ldr	r1, [r2, #112]	@ 0x70
 800347a:	430b      	orrs	r3, r1
 800347c:	6713      	str	r3, [r2, #112]	@ 0x70
 800347e:	6823      	ldr	r3, [r4, #0]
 8003480:	06da      	lsls	r2, r3, #27
 8003482:	d50c      	bpl.n	800349e <HAL_RCCEx_PeriphCLKConfig+0x10a>
 8003484:	4a78      	ldr	r2, [pc, #480]	@ (8003668 <HAL_RCCEx_PeriphCLKConfig+0x2d4>)
 8003486:	f8d2 108c 	ldr.w	r1, [r2, #140]	@ 0x8c
 800348a:	f021 7180 	bic.w	r1, r1, #16777216	@ 0x1000000
 800348e:	f8c2 108c 	str.w	r1, [r2, #140]	@ 0x8c
 8003492:	f8d2 108c 	ldr.w	r1, [r2, #140]	@ 0x8c
 8003496:	6ba0      	ldr	r0, [r4, #56]	@ 0x38
 8003498:	4301      	orrs	r1, r0
 800349a:	f8c2 108c 	str.w	r1, [r2, #140]	@ 0x8c
 800349e:	045f      	lsls	r7, r3, #17
 80034a0:	d508      	bpl.n	80034b4 <HAL_RCCEx_PeriphCLKConfig+0x120>
 80034a2:	4971      	ldr	r1, [pc, #452]	@ (8003668 <HAL_RCCEx_PeriphCLKConfig+0x2d4>)
 80034a4:	6e60      	ldr	r0, [r4, #100]	@ 0x64
 80034a6:	f8d1 2090 	ldr.w	r2, [r1, #144]	@ 0x90
 80034aa:	f422 3240 	bic.w	r2, r2, #196608	@ 0x30000
 80034ae:	4302      	orrs	r2, r0
 80034b0:	f8c1 2090 	str.w	r2, [r1, #144]	@ 0x90
 80034b4:	0418      	lsls	r0, r3, #16
 80034b6:	d508      	bpl.n	80034ca <HAL_RCCEx_PeriphCLKConfig+0x136>
 80034b8:	496b      	ldr	r1, [pc, #428]	@ (8003668 <HAL_RCCEx_PeriphCLKConfig+0x2d4>)
 80034ba:	6ea0      	ldr	r0, [r4, #104]	@ 0x68
 80034bc:	f8d1 2090 	ldr.w	r2, [r1, #144]	@ 0x90
 80034c0:	f422 2240 	bic.w	r2, r2, #786432	@ 0xc0000
 80034c4:	4302      	orrs	r2, r0
 80034c6:	f8c1 2090 	str.w	r2, [r1, #144]	@ 0x90
 80034ca:	03d9      	lsls	r1, r3, #15
 80034cc:	d508      	bpl.n	80034e0 <HAL_RCCEx_PeriphCLKConfig+0x14c>
 80034ce:	4966      	ldr	r1, [pc, #408]	@ (8003668 <HAL_RCCEx_PeriphCLKConfig+0x2d4>)
 80034d0:	6ee0      	ldr	r0, [r4, #108]	@ 0x6c
 80034d2:	f8d1 2090 	ldr.w	r2, [r1, #144]	@ 0x90
 80034d6:	f422 1240 	bic.w	r2, r2, #3145728	@ 0x300000
 80034da:	4302      	orrs	r2, r0
 80034dc:	f8c1 2090 	str.w	r2, [r1, #144]	@ 0x90
 80034e0:	039a      	lsls	r2, r3, #14
 80034e2:	d508      	bpl.n	80034f6 <HAL_RCCEx_PeriphCLKConfig+0x162>
 80034e4:	4960      	ldr	r1, [pc, #384]	@ (8003668 <HAL_RCCEx_PeriphCLKConfig+0x2d4>)
 80034e6:	6f20      	ldr	r0, [r4, #112]	@ 0x70
 80034e8:	f8d1 2090 	ldr.w	r2, [r1, #144]	@ 0x90
 80034ec:	f422 0240 	bic.w	r2, r2, #12582912	@ 0xc00000
 80034f0:	4302      	orrs	r2, r0
 80034f2:	f8c1 2090 	str.w	r2, [r1, #144]	@ 0x90
 80034f6:	065f      	lsls	r7, r3, #25
 80034f8:	d508      	bpl.n	800350c <HAL_RCCEx_PeriphCLKConfig+0x178>
 80034fa:	495b      	ldr	r1, [pc, #364]	@ (8003668 <HAL_RCCEx_PeriphCLKConfig+0x2d4>)
 80034fc:	6c60      	ldr	r0, [r4, #68]	@ 0x44
 80034fe:	f8d1 2090 	ldr.w	r2, [r1, #144]	@ 0x90
 8003502:	f022 0203 	bic.w	r2, r2, #3
 8003506:	4302      	orrs	r2, r0
 8003508:	f8c1 2090 	str.w	r2, [r1, #144]	@ 0x90
 800350c:	0618      	lsls	r0, r3, #24
 800350e:	d508      	bpl.n	8003522 <HAL_RCCEx_PeriphCLKConfig+0x18e>
 8003510:	4955      	ldr	r1, [pc, #340]	@ (8003668 <HAL_RCCEx_PeriphCLKConfig+0x2d4>)
 8003512:	6ca0      	ldr	r0, [r4, #72]	@ 0x48
 8003514:	f8d1 2090 	ldr.w	r2, [r1, #144]	@ 0x90
 8003518:	f022 020c 	bic.w	r2, r2, #12
 800351c:	4302      	orrs	r2, r0
 800351e:	f8c1 2090 	str.w	r2, [r1, #144]	@ 0x90
 8003522:	05d9      	lsls	r1, r3, #23
 8003524:	d508      	bpl.n	8003538 <HAL_RCCEx_PeriphCLKConfig+0x1a4>
 8003526:	4950      	ldr	r1, [pc, #320]	@ (8003668 <HAL_RCCEx_PeriphCLKConfig+0x2d4>)
 8003528:	6ce0      	ldr	r0, [r4, #76]	@ 0x4c
 800352a:	f8d1 2090 	ldr.w	r2, [r1, #144]	@ 0x90
 800352e:	f022 0230 	bic.w	r2, r2, #48	@ 0x30
 8003532:	4302      	orrs	r2, r0
 8003534:	f8c1 2090 	str.w	r2, [r1, #144]	@ 0x90
 8003538:	059a      	lsls	r2, r3, #22
 800353a:	d508      	bpl.n	800354e <HAL_RCCEx_PeriphCLKConfig+0x1ba>
 800353c:	494a      	ldr	r1, [pc, #296]	@ (8003668 <HAL_RCCEx_PeriphCLKConfig+0x2d4>)
 800353e:	6d20      	ldr	r0, [r4, #80]	@ 0x50
 8003540:	f8d1 2090 	ldr.w	r2, [r1, #144]	@ 0x90
 8003544:	f022 02c0 	bic.w	r2, r2, #192	@ 0xc0
 8003548:	4302      	orrs	r2, r0
 800354a:	f8c1 2090 	str.w	r2, [r1, #144]	@ 0x90
 800354e:	055f      	lsls	r7, r3, #21
 8003550:	d508      	bpl.n	8003564 <HAL_RCCEx_PeriphCLKConfig+0x1d0>
 8003552:	4945      	ldr	r1, [pc, #276]	@ (8003668 <HAL_RCCEx_PeriphCLKConfig+0x2d4>)
 8003554:	6d60      	ldr	r0, [r4, #84]	@ 0x54
 8003556:	f8d1 2090 	ldr.w	r2, [r1, #144]	@ 0x90
 800355a:	f422 7240 	bic.w	r2, r2, #768	@ 0x300
 800355e:	4302      	orrs	r2, r0
 8003560:	f8c1 2090 	str.w	r2, [r1, #144]	@ 0x90
 8003564:	0518      	lsls	r0, r3, #20
 8003566:	d508      	bpl.n	800357a <HAL_RCCEx_PeriphCLKConfig+0x1e6>
 8003568:	493f      	ldr	r1, [pc, #252]	@ (8003668 <HAL_RCCEx_PeriphCLKConfig+0x2d4>)
 800356a:	6da0      	ldr	r0, [r4, #88]	@ 0x58
 800356c:	f8d1 2090 	ldr.w	r2, [r1, #144]	@ 0x90
 8003570:	f422 6240 	bic.w	r2, r2, #3072	@ 0xc00
 8003574:	4302      	orrs	r2, r0
 8003576:	f8c1 2090 	str.w	r2, [r1, #144]	@ 0x90
 800357a:	04d9      	lsls	r1, r3, #19
 800357c:	d508      	bpl.n	8003590 <HAL_RCCEx_PeriphCLKConfig+0x1fc>
 800357e:	493a      	ldr	r1, [pc, #232]	@ (8003668 <HAL_RCCEx_PeriphCLKConfig+0x2d4>)
 8003580:	6de0      	ldr	r0, [r4, #92]	@ 0x5c
 8003582:	f8d1 2090 	ldr.w	r2, [r1, #144]	@ 0x90
 8003586:	f422 5240 	bic.w	r2, r2, #12288	@ 0x3000
 800358a:	4302      	orrs	r2, r0
 800358c:	f8c1 2090 	str.w	r2, [r1, #144]	@ 0x90
 8003590:	049a      	lsls	r2, r3, #18
 8003592:	d508      	bpl.n	80035a6 <HAL_RCCEx_PeriphCLKConfig+0x212>
 8003594:	4934      	ldr	r1, [pc, #208]	@ (8003668 <HAL_RCCEx_PeriphCLKConfig+0x2d4>)
 8003596:	6e20      	ldr	r0, [r4, #96]	@ 0x60
 8003598:	f8d1 2090 	ldr.w	r2, [r1, #144]	@ 0x90
 800359c:	f422 4240 	bic.w	r2, r2, #49152	@ 0xc000
 80035a0:	4302      	orrs	r2, r0
 80035a2:	f8c1 2090 	str.w	r2, [r1, #144]	@ 0x90
 80035a6:	025f      	lsls	r7, r3, #9
 80035a8:	d508      	bpl.n	80035bc <HAL_RCCEx_PeriphCLKConfig+0x228>
 80035aa:	492f      	ldr	r1, [pc, #188]	@ (8003668 <HAL_RCCEx_PeriphCLKConfig+0x2d4>)
 80035ac:	6fa0      	ldr	r0, [r4, #120]	@ 0x78
 80035ae:	f8d1 2090 	ldr.w	r2, [r1, #144]	@ 0x90
 80035b2:	f022 6280 	bic.w	r2, r2, #67108864	@ 0x4000000
 80035b6:	4302      	orrs	r2, r0
 80035b8:	f8c1 2090 	str.w	r2, [r1, #144]	@ 0x90
 80035bc:	0298      	lsls	r0, r3, #10
 80035be:	d50c      	bpl.n	80035da <HAL_RCCEx_PeriphCLKConfig+0x246>
 80035c0:	4829      	ldr	r0, [pc, #164]	@ (8003668 <HAL_RCCEx_PeriphCLKConfig+0x2d4>)
 80035c2:	6fe1      	ldr	r1, [r4, #124]	@ 0x7c
 80035c4:	f8d0 2090 	ldr.w	r2, [r0, #144]	@ 0x90
 80035c8:	f1b1 6f00 	cmp.w	r1, #134217728	@ 0x8000000
 80035cc:	f022 6200 	bic.w	r2, r2, #134217728	@ 0x8000000
 80035d0:	bf08      	it	eq
 80035d2:	2501      	moveq	r5, #1
 80035d4:	430a      	orrs	r2, r1
 80035d6:	f8c0 2090 	str.w	r2, [r0, #144]	@ 0x90
 80035da:	f013 0f08 	tst.w	r3, #8
 80035de:	bf18      	it	ne
 80035e0:	2501      	movne	r5, #1
 80035e2:	0359      	lsls	r1, r3, #13
 80035e4:	d508      	bpl.n	80035f8 <HAL_RCCEx_PeriphCLKConfig+0x264>
 80035e6:	4920      	ldr	r1, [pc, #128]	@ (8003668 <HAL_RCCEx_PeriphCLKConfig+0x2d4>)
 80035e8:	6f60      	ldr	r0, [r4, #116]	@ 0x74
 80035ea:	f8d1 2090 	ldr.w	r2, [r1, #144]	@ 0x90
 80035ee:	f022 7240 	bic.w	r2, r2, #50331648	@ 0x3000000
 80035f2:	4302      	orrs	r2, r0
 80035f4:	f8c1 2090 	str.w	r2, [r1, #144]	@ 0x90
 80035f8:	021a      	lsls	r2, r3, #8
 80035fa:	d509      	bpl.n	8003610 <HAL_RCCEx_PeriphCLKConfig+0x27c>
 80035fc:	491a      	ldr	r1, [pc, #104]	@ (8003668 <HAL_RCCEx_PeriphCLKConfig+0x2d4>)
 80035fe:	f8d4 0080 	ldr.w	r0, [r4, #128]	@ 0x80
 8003602:	f8d1 2090 	ldr.w	r2, [r1, #144]	@ 0x90
 8003606:	f022 5280 	bic.w	r2, r2, #268435456	@ 0x10000000
 800360a:	4302      	orrs	r2, r0
 800360c:	f8c1 2090 	str.w	r2, [r1, #144]	@ 0x90
 8003610:	015f      	lsls	r7, r3, #5
 8003612:	d509      	bpl.n	8003628 <HAL_RCCEx_PeriphCLKConfig+0x294>
 8003614:	4914      	ldr	r1, [pc, #80]	@ (8003668 <HAL_RCCEx_PeriphCLKConfig+0x2d4>)
 8003616:	f8d4 0084 	ldr.w	r0, [r4, #132]	@ 0x84
 800361a:	f8d1 2090 	ldr.w	r2, [r1, #144]	@ 0x90
 800361e:	f022 5200 	bic.w	r2, r2, #536870912	@ 0x20000000
 8003622:	4302      	orrs	r2, r0
 8003624:	f8c1 2090 	str.w	r2, [r1, #144]	@ 0x90
 8003628:	0118      	lsls	r0, r3, #4
 800362a:	d509      	bpl.n	8003640 <HAL_RCCEx_PeriphCLKConfig+0x2ac>
 800362c:	490e      	ldr	r1, [pc, #56]	@ (8003668 <HAL_RCCEx_PeriphCLKConfig+0x2d4>)
 800362e:	f8d4 0088 	ldr.w	r0, [r4, #136]	@ 0x88
 8003632:	f8d1 208c 	ldr.w	r2, [r1, #140]	@ 0x8c
 8003636:	f022 7200 	bic.w	r2, r2, #33554432	@ 0x2000000
 800363a:	4302      	orrs	r2, r0
 800363c:	f8c1 208c 	str.w	r2, [r1, #140]	@ 0x8c
 8003640:	00d9      	lsls	r1, r3, #3
 8003642:	d509      	bpl.n	8003658 <HAL_RCCEx_PeriphCLKConfig+0x2c4>
 8003644:	4908      	ldr	r1, [pc, #32]	@ (8003668 <HAL_RCCEx_PeriphCLKConfig+0x2d4>)
 8003646:	f8d4 008c 	ldr.w	r0, [r4, #140]	@ 0x8c
 800364a:	f8d1 208c 	ldr.w	r2, [r1, #140]	@ 0x8c
 800364e:	f022 6280 	bic.w	r2, r2, #67108864	@ 0x4000000
 8003652:	4302      	orrs	r2, r0
 8003654:	f8c1 208c 	str.w	r2, [r1, #140]	@ 0x8c
 8003658:	2e01      	cmp	r6, #1
 800365a:	f000 80b4 	beq.w	80037c6 <HAL_RCCEx_PeriphCLKConfig+0x432>
 800365e:	019a      	lsls	r2, r3, #6
 8003660:	f100 80b1 	bmi.w	80037c6 <HAL_RCCEx_PeriphCLKConfig+0x432>
 8003664:	e004      	b.n	8003670 <HAL_RCCEx_PeriphCLKConfig+0x2dc>
 8003666:	bf00      	nop
 8003668:	40023800 	.word	0x40023800
 800366c:	40007000 	.word	0x40007000
 8003670:	2d01      	cmp	r5, #1
 8003672:	d170      	bne.n	8003756 <HAL_RCCEx_PeriphCLKConfig+0x3c2>
 8003674:	4d9d      	ldr	r5, [pc, #628]	@ (80038ec <HAL_RCCEx_PeriphCLKConfig+0x558>)
 8003676:	682b      	ldr	r3, [r5, #0]
 8003678:	f023 5380 	bic.w	r3, r3, #268435456	@ 0x10000000
 800367c:	602b      	str	r3, [r5, #0]
 800367e:	f7fe ffed 	bl	800265c <HAL_GetTick>
 8003682:	4606      	mov	r6, r0
 8003684:	682b      	ldr	r3, [r5, #0]
 8003686:	009f      	lsls	r7, r3, #2
 8003688:	f100 8121 	bmi.w	80038ce <HAL_RCCEx_PeriphCLKConfig+0x53a>
 800368c:	6821      	ldr	r1, [r4, #0]
 800368e:	030e      	lsls	r6, r1, #12
 8003690:	d501      	bpl.n	8003696 <HAL_RCCEx_PeriphCLKConfig+0x302>
 8003692:	6be3      	ldr	r3, [r4, #60]	@ 0x3c
 8003694:	b11b      	cbz	r3, 800369e <HAL_RCCEx_PeriphCLKConfig+0x30a>
 8003696:	02cd      	lsls	r5, r1, #11
 8003698:	d51d      	bpl.n	80036d6 <HAL_RCCEx_PeriphCLKConfig+0x342>
 800369a:	6c23      	ldr	r3, [r4, #64]	@ 0x40
 800369c:	b9db      	cbnz	r3, 80036d6 <HAL_RCCEx_PeriphCLKConfig+0x342>
 800369e:	4a93      	ldr	r2, [pc, #588]	@ (80038ec <HAL_RCCEx_PeriphCLKConfig+0x558>)
 80036a0:	f8d2 3088 	ldr.w	r3, [r2, #136]	@ 0x88
 80036a4:	f8d2 0088 	ldr.w	r0, [r2, #136]	@ 0x88
 80036a8:	f403 3340 	and.w	r3, r3, #196608	@ 0x30000
 80036ac:	f000 40e0 	and.w	r0, r0, #1879048192	@ 0x70000000
 80036b0:	4303      	orrs	r3, r0
 80036b2:	6960      	ldr	r0, [r4, #20]
 80036b4:	ea43 1380 	orr.w	r3, r3, r0, lsl #6
 80036b8:	69a0      	ldr	r0, [r4, #24]
 80036ba:	ea43 6300 	orr.w	r3, r3, r0, lsl #24
 80036be:	f8c2 3088 	str.w	r3, [r2, #136]	@ 0x88
 80036c2:	f8d2 308c 	ldr.w	r3, [r2, #140]	@ 0x8c
 80036c6:	6aa0      	ldr	r0, [r4, #40]	@ 0x28
 80036c8:	f423 53f8 	bic.w	r3, r3, #7936	@ 0x1f00
 80036cc:	3801      	subs	r0, #1
 80036ce:	ea43 2300 	orr.w	r3, r3, r0, lsl #8
 80036d2:	f8c2 308c 	str.w	r3, [r2, #140]	@ 0x8c
 80036d6:	0288      	lsls	r0, r1, #10
 80036d8:	d515      	bpl.n	8003706 <HAL_RCCEx_PeriphCLKConfig+0x372>
 80036da:	6fe3      	ldr	r3, [r4, #124]	@ 0x7c
 80036dc:	f1b3 6f00 	cmp.w	r3, #134217728	@ 0x8000000
 80036e0:	d111      	bne.n	8003706 <HAL_RCCEx_PeriphCLKConfig+0x372>
 80036e2:	4a82      	ldr	r2, [pc, #520]	@ (80038ec <HAL_RCCEx_PeriphCLKConfig+0x558>)
 80036e4:	f8d2 3088 	ldr.w	r3, [r2, #136]	@ 0x88
 80036e8:	f8d2 0088 	ldr.w	r0, [r2, #136]	@ 0x88
 80036ec:	f003 6370 	and.w	r3, r3, #251658240	@ 0xf000000
 80036f0:	f000 40e0 	and.w	r0, r0, #1879048192	@ 0x70000000
 80036f4:	4303      	orrs	r3, r0
 80036f6:	6960      	ldr	r0, [r4, #20]
 80036f8:	ea43 1380 	orr.w	r3, r3, r0, lsl #6
 80036fc:	6a20      	ldr	r0, [r4, #32]
 80036fe:	ea43 4300 	orr.w	r3, r3, r0, lsl #16
 8003702:	f8c2 3088 	str.w	r3, [r2, #136]	@ 0x88
 8003706:	070a      	lsls	r2, r1, #28
 8003708:	d519      	bpl.n	800373e <HAL_RCCEx_PeriphCLKConfig+0x3aa>
 800370a:	4a78      	ldr	r2, [pc, #480]	@ (80038ec <HAL_RCCEx_PeriphCLKConfig+0x558>)
 800370c:	f8d2 1088 	ldr.w	r1, [r2, #136]	@ 0x88
 8003710:	f8d2 3088 	ldr.w	r3, [r2, #136]	@ 0x88
 8003714:	f001 6170 	and.w	r1, r1, #251658240	@ 0xf000000
 8003718:	f403 3340 	and.w	r3, r3, #196608	@ 0x30000
 800371c:	430b      	orrs	r3, r1
 800371e:	6961      	ldr	r1, [r4, #20]
 8003720:	ea43 1381 	orr.w	r3, r3, r1, lsl #6
 8003724:	69e1      	ldr	r1, [r4, #28]
 8003726:	ea43 7301 	orr.w	r3, r3, r1, lsl #28
 800372a:	f8c2 3088 	str.w	r3, [r2, #136]	@ 0x88
 800372e:	f8d2 308c 	ldr.w	r3, [r2, #140]	@ 0x8c
 8003732:	6ae1      	ldr	r1, [r4, #44]	@ 0x2c
 8003734:	f423 3340 	bic.w	r3, r3, #196608	@ 0x30000
 8003738:	430b      	orrs	r3, r1
 800373a:	f8c2 308c 	str.w	r3, [r2, #140]	@ 0x8c
 800373e:	4c6b      	ldr	r4, [pc, #428]	@ (80038ec <HAL_RCCEx_PeriphCLKConfig+0x558>)
 8003740:	6823      	ldr	r3, [r4, #0]
 8003742:	f043 5380 	orr.w	r3, r3, #268435456	@ 0x10000000
 8003746:	6023      	str	r3, [r4, #0]
 8003748:	f7fe ff88 	bl	800265c <HAL_GetTick>
 800374c:	4605      	mov	r5, r0
 800374e:	6823      	ldr	r3, [r4, #0]
 8003750:	009b      	lsls	r3, r3, #2
 8003752:	f140 80c3 	bpl.w	80038dc <HAL_RCCEx_PeriphCLKConfig+0x548>
 8003756:	2000      	movs	r0, #0
 8003758:	e009      	b.n	800376e <HAL_RCCEx_PeriphCLKConfig+0x3da>
 800375a:	2601      	movs	r6, #1
 800375c:	e656      	b.n	800340c <HAL_RCCEx_PeriphCLKConfig+0x78>
 800375e:	f7fe ff7d 	bl	800265c <HAL_GetTick>
 8003762:	eba0 0008 	sub.w	r0, r0, r8
 8003766:	2864      	cmp	r0, #100	@ 0x64
 8003768:	f67f ae68 	bls.w	800343c <HAL_RCCEx_PeriphCLKConfig+0xa8>
 800376c:	2003      	movs	r0, #3
 800376e:	b003      	add	sp, #12
 8003770:	e8bd 83f0 	ldmia.w	sp!, {r4, r5, r6, r7, r8, r9, pc}
 8003774:	f402 7240 	and.w	r2, r2, #768	@ 0x300
 8003778:	4293      	cmp	r3, r2
 800377a:	f43f ae6a 	beq.w	8003452 <HAL_RCCEx_PeriphCLKConfig+0xbe>
 800377e:	6f3b      	ldr	r3, [r7, #112]	@ 0x70
 8003780:	6f3a      	ldr	r2, [r7, #112]	@ 0x70
 8003782:	f423 7340 	bic.w	r3, r3, #768	@ 0x300
 8003786:	f442 3280 	orr.w	r2, r2, #65536	@ 0x10000
 800378a:	673a      	str	r2, [r7, #112]	@ 0x70
 800378c:	6f3a      	ldr	r2, [r7, #112]	@ 0x70
 800378e:	f422 3280 	bic.w	r2, r2, #65536	@ 0x10000
 8003792:	673a      	str	r2, [r7, #112]	@ 0x70
 8003794:	673b      	str	r3, [r7, #112]	@ 0x70
 8003796:	6f3b      	ldr	r3, [r7, #112]	@ 0x70
 8003798:	07d8      	lsls	r0, r3, #31
 800379a:	f57f ae5a 	bpl.w	8003452 <HAL_RCCEx_PeriphCLKConfig+0xbe>
 800379e:	f7fe ff5d 	bl	800265c <HAL_GetTick>
 80037a2:	f241 3988 	movw	r9, #5000	@ 0x1388
 80037a6:	4680      	mov	r8, r0
 80037a8:	6f3b      	ldr	r3, [r7, #112]	@ 0x70
 80037aa:	0799      	lsls	r1, r3, #30
 80037ac:	f53f ae51 	bmi.w	8003452 <HAL_RCCEx_PeriphCLKConfig+0xbe>
 80037b0:	f7fe ff54 	bl	800265c <HAL_GetTick>
 80037b4:	eba0 0008 	sub.w	r0, r0, r8
 80037b8:	4548      	cmp	r0, r9
 80037ba:	d9f5      	bls.n	80037a8 <HAL_RCCEx_PeriphCLKConfig+0x414>
 80037bc:	e7d6      	b.n	800376c <HAL_RCCEx_PeriphCLKConfig+0x3d8>
 80037be:	6891      	ldr	r1, [r2, #8]
 80037c0:	f421 11f8 	bic.w	r1, r1, #2031616	@ 0x1f0000
 80037c4:	e655      	b.n	8003472 <HAL_RCCEx_PeriphCLKConfig+0xde>
 80037c6:	4e49      	ldr	r6, [pc, #292]	@ (80038ec <HAL_RCCEx_PeriphCLKConfig+0x558>)
 80037c8:	6833      	ldr	r3, [r6, #0]
 80037ca:	f023 6380 	bic.w	r3, r3, #67108864	@ 0x4000000
 80037ce:	6033      	str	r3, [r6, #0]
 80037d0:	f7fe ff44 	bl	800265c <HAL_GetTick>
 80037d4:	4607      	mov	r7, r0
 80037d6:	6833      	ldr	r3, [r6, #0]
 80037d8:	011b      	lsls	r3, r3, #4
 80037da:	d472      	bmi.n	80038c2 <HAL_RCCEx_PeriphCLKConfig+0x52e>
 80037dc:	6822      	ldr	r2, [r4, #0]
 80037de:	07d7      	lsls	r7, r2, #31
 80037e0:	d512      	bpl.n	8003808 <HAL_RCCEx_PeriphCLKConfig+0x474>
 80037e2:	6b63      	ldr	r3, [r4, #52]	@ 0x34
 80037e4:	b983      	cbnz	r3, 8003808 <HAL_RCCEx_PeriphCLKConfig+0x474>
 80037e6:	f8d6 3084 	ldr.w	r3, [r6, #132]	@ 0x84
 80037ea:	f8d6 1084 	ldr.w	r1, [r6, #132]	@ 0x84
 80037ee:	f403 3340 	and.w	r3, r3, #196608	@ 0x30000
 80037f2:	f001 6170 	and.w	r1, r1, #251658240	@ 0xf000000
 80037f6:	430b      	orrs	r3, r1
 80037f8:	6861      	ldr	r1, [r4, #4]
 80037fa:	ea43 1381 	orr.w	r3, r3, r1, lsl #6
 80037fe:	68a1      	ldr	r1, [r4, #8]
 8003800:	ea43 7301 	orr.w	r3, r3, r1, lsl #28
 8003804:	f8c6 3084 	str.w	r3, [r6, #132]	@ 0x84
 8003808:	0316      	lsls	r6, r2, #12
 800380a:	d503      	bpl.n	8003814 <HAL_RCCEx_PeriphCLKConfig+0x480>
 800380c:	6be3      	ldr	r3, [r4, #60]	@ 0x3c
 800380e:	f5b3 1f80 	cmp.w	r3, #1048576	@ 0x100000
 8003812:	d005      	beq.n	8003820 <HAL_RCCEx_PeriphCLKConfig+0x48c>
 8003814:	02d0      	lsls	r0, r2, #11
 8003816:	d51e      	bpl.n	8003856 <HAL_RCCEx_PeriphCLKConfig+0x4c2>
 8003818:	6c23      	ldr	r3, [r4, #64]	@ 0x40
 800381a:	f5b3 0f80 	cmp.w	r3, #4194304	@ 0x400000
 800381e:	d11a      	bne.n	8003856 <HAL_RCCEx_PeriphCLKConfig+0x4c2>
 8003820:	4932      	ldr	r1, [pc, #200]	@ (80038ec <HAL_RCCEx_PeriphCLKConfig+0x558>)
 8003822:	f8d1 3084 	ldr.w	r3, [r1, #132]	@ 0x84
 8003826:	f8d1 0084 	ldr.w	r0, [r1, #132]	@ 0x84
 800382a:	f403 3340 	and.w	r3, r3, #196608	@ 0x30000
 800382e:	f000 40e0 	and.w	r0, r0, #1879048192	@ 0x70000000
 8003832:	4303      	orrs	r3, r0
 8003834:	6860      	ldr	r0, [r4, #4]
 8003836:	ea43 1380 	orr.w	r3, r3, r0, lsl #6
 800383a:	68e0      	ldr	r0, [r4, #12]
 800383c:	ea43 6300 	orr.w	r3, r3, r0, lsl #24
 8003840:	f8c1 3084 	str.w	r3, [r1, #132]	@ 0x84
 8003844:	f8d1 008c 	ldr.w	r0, [r1, #140]	@ 0x8c
 8003848:	6a63      	ldr	r3, [r4, #36]	@ 0x24
 800384a:	f020 001f 	bic.w	r0, r0, #31
 800384e:	3b01      	subs	r3, #1
 8003850:	4303      	orrs	r3, r0
 8003852:	f8c1 308c 	str.w	r3, [r1, #140]	@ 0x8c
 8003856:	01d1      	lsls	r1, r2, #7
 8003858:	d511      	bpl.n	800387e <HAL_RCCEx_PeriphCLKConfig+0x4ea>
 800385a:	4924      	ldr	r1, [pc, #144]	@ (80038ec <HAL_RCCEx_PeriphCLKConfig+0x558>)
 800385c:	f8d1 3084 	ldr.w	r3, [r1, #132]	@ 0x84
 8003860:	f8d1 0084 	ldr.w	r0, [r1, #132]	@ 0x84
 8003864:	f003 6370 	and.w	r3, r3, #251658240	@ 0xf000000
 8003868:	f000 40e0 	and.w	r0, r0, #1879048192	@ 0x70000000
 800386c:	4303      	orrs	r3, r0
 800386e:	6860      	ldr	r0, [r4, #4]
 8003870:	ea43 1380 	orr.w	r3, r3, r0, lsl #6
 8003874:	6920      	ldr	r0, [r4, #16]
 8003876:	ea43 4300 	orr.w	r3, r3, r0, lsl #16
 800387a:	f8c1 3084 	str.w	r3, [r1, #132]	@ 0x84
 800387e:	0192      	lsls	r2, r2, #6
 8003880:	d50d      	bpl.n	800389e <HAL_RCCEx_PeriphCLKConfig+0x50a>
 8003882:	6923      	ldr	r3, [r4, #16]
 8003884:	6862      	ldr	r2, [r4, #4]
 8003886:	041b      	lsls	r3, r3, #16
 8003888:	ea43 1382 	orr.w	r3, r3, r2, lsl #6
 800388c:	68e2      	ldr	r2, [r4, #12]
 800388e:	ea43 6302 	orr.w	r3, r3, r2, lsl #24
 8003892:	68a2      	ldr	r2, [r4, #8]
 8003894:	ea43 7302 	orr.w	r3, r3, r2, lsl #28
 8003898:	4a14      	ldr	r2, [pc, #80]	@ (80038ec <HAL_RCCEx_PeriphCLKConfig+0x558>)
 800389a:	f8c2 3084 	str.w	r3, [r2, #132]	@ 0x84
 800389e:	4e13      	ldr	r6, [pc, #76]	@ (80038ec <HAL_RCCEx_PeriphCLKConfig+0x558>)
 80038a0:	6833      	ldr	r3, [r6, #0]
 80038a2:	f043 6380 	orr.w	r3, r3, #67108864	@ 0x4000000
 80038a6:	6033      	str	r3, [r6, #0]
 80038a8:	f7fe fed8 	bl	800265c <HAL_GetTick>
 80038ac:	4607      	mov	r7, r0
 80038ae:	6833      	ldr	r3, [r6, #0]
 80038b0:	011b      	lsls	r3, r3, #4
 80038b2:	f53f aedd 	bmi.w	8003670 <HAL_RCCEx_PeriphCLKConfig+0x2dc>
 80038b6:	f7fe fed1 	bl	800265c <HAL_GetTick>
 80038ba:	1bc0      	subs	r0, r0, r7
 80038bc:	2864      	cmp	r0, #100	@ 0x64
 80038be:	d9f6      	bls.n	80038ae <HAL_RCCEx_PeriphCLKConfig+0x51a>
 80038c0:	e754      	b.n	800376c <HAL_RCCEx_PeriphCLKConfig+0x3d8>
 80038c2:	f7fe fecb 	bl	800265c <HAL_GetTick>
 80038c6:	1bc0      	subs	r0, r0, r7
 80038c8:	2864      	cmp	r0, #100	@ 0x64
 80038ca:	d984      	bls.n	80037d6 <HAL_RCCEx_PeriphCLKConfig+0x442>
 80038cc:	e74e      	b.n	800376c <HAL_RCCEx_PeriphCLKConfig+0x3d8>
 80038ce:	f7fe fec5 	bl	800265c <HAL_GetTick>
 80038d2:	1b80      	subs	r0, r0, r6
 80038d4:	2864      	cmp	r0, #100	@ 0x64
 80038d6:	f67f aed5 	bls.w	8003684 <HAL_RCCEx_PeriphCLKConfig+0x2f0>
 80038da:	e747      	b.n	800376c <HAL_RCCEx_PeriphCLKConfig+0x3d8>
 80038dc:	f7fe febe 	bl	800265c <HAL_GetTick>
 80038e0:	1b40      	subs	r0, r0, r5
 80038e2:	2864      	cmp	r0, #100	@ 0x64
 80038e4:	f67f af33 	bls.w	800374e <HAL_RCCEx_PeriphCLKConfig+0x3ba>
 80038e8:	e740      	b.n	800376c <HAL_RCCEx_PeriphCLKConfig+0x3d8>
 80038ea:	bf00      	nop
 80038ec:	40023800 	.word	0x40023800

080038f0 <TIM_OC1_SetConfig>:
 80038f0:	6a03      	ldr	r3, [r0, #32]
 80038f2:	6a02      	ldr	r2, [r0, #32]
 80038f4:	f023 0302 	bic.w	r3, r3, #2
 80038f8:	f022 0201 	bic.w	r2, r2, #1
 80038fc:	b570      	push	{r4, r5, r6, lr}
 80038fe:	6202      	str	r2, [r0, #32]
 8003900:	6842      	ldr	r2, [r0, #4]
 8003902:	6984      	ldr	r4, [r0, #24]
 8003904:	680d      	ldr	r5, [r1, #0]
 8003906:	f424 3480 	bic.w	r4, r4, #65536	@ 0x10000
 800390a:	f024 0473 	bic.w	r4, r4, #115	@ 0x73
 800390e:	432c      	orrs	r4, r5
 8003910:	688d      	ldr	r5, [r1, #8]
 8003912:	432b      	orrs	r3, r5
 8003914:	4d0c      	ldr	r5, [pc, #48]	@ (8003948 <TIM_OC1_SetConfig+0x58>)
 8003916:	42a8      	cmp	r0, r5
 8003918:	d003      	beq.n	8003922 <TIM_OC1_SetConfig+0x32>
 800391a:	f505 6580 	add.w	r5, r5, #1024	@ 0x400
 800391e:	42a8      	cmp	r0, r5
 8003920:	d10b      	bne.n	800393a <TIM_OC1_SetConfig+0x4a>
 8003922:	68cd      	ldr	r5, [r1, #12]
 8003924:	f023 0308 	bic.w	r3, r3, #8
 8003928:	f422 7240 	bic.w	r2, r2, #768	@ 0x300
 800392c:	432b      	orrs	r3, r5
 800392e:	e9d1 5605 	ldrd	r5, r6, [r1, #20]
 8003932:	f023 0304 	bic.w	r3, r3, #4
 8003936:	4335      	orrs	r5, r6
 8003938:	432a      	orrs	r2, r5
 800393a:	6042      	str	r2, [r0, #4]
 800393c:	684a      	ldr	r2, [r1, #4]
 800393e:	6184      	str	r4, [r0, #24]
 8003940:	6342      	str	r2, [r0, #52]	@ 0x34
 8003942:	6203      	str	r3, [r0, #32]
 8003944:	bd70      	pop	{r4, r5, r6, pc}
 8003946:	bf00      	nop
 8003948:	40010000 	.word	0x40010000

0800394c <TIM_OC3_SetConfig>:
 800394c:	6a03      	ldr	r3, [r0, #32]
 800394e:	6a02      	ldr	r2, [r0, #32]
 8003950:	f423 7300 	bic.w	r3, r3, #512	@ 0x200
 8003954:	f422 7280 	bic.w	r2, r2, #256	@ 0x100
 8003958:	b570      	push	{r4, r5, r6, lr}
 800395a:	6202      	str	r2, [r0, #32]
 800395c:	6842      	ldr	r2, [r0, #4]
 800395e:	69c4      	ldr	r4, [r0, #28]
 8003960:	680d      	ldr	r5, [r1, #0]
 8003962:	f424 3480 	bic.w	r4, r4, #65536	@ 0x10000
 8003966:	f024 0473 	bic.w	r4, r4, #115	@ 0x73
 800396a:	432c      	orrs	r4, r5
 800396c:	688d      	ldr	r5, [r1, #8]
 800396e:	ea43 2305 	orr.w	r3, r3, r5, lsl #8
 8003972:	4d0d      	ldr	r5, [pc, #52]	@ (80039a8 <TIM_OC3_SetConfig+0x5c>)
 8003974:	42a8      	cmp	r0, r5
 8003976:	d003      	beq.n	8003980 <TIM_OC3_SetConfig+0x34>
 8003978:	f505 6580 	add.w	r5, r5, #1024	@ 0x400
 800397c:	42a8      	cmp	r0, r5
 800397e:	d10d      	bne.n	800399c <TIM_OC3_SetConfig+0x50>
 8003980:	68cd      	ldr	r5, [r1, #12]
 8003982:	f423 6300 	bic.w	r3, r3, #2048	@ 0x800
 8003986:	f422 5240 	bic.w	r2, r2, #12288	@ 0x3000
 800398a:	ea43 2305 	orr.w	r3, r3, r5, lsl #8
 800398e:	e9d1 5605 	ldrd	r5, r6, [r1, #20]
 8003992:	f423 6380 	bic.w	r3, r3, #1024	@ 0x400
 8003996:	4335      	orrs	r5, r6
 8003998:	ea42 1205 	orr.w	r2, r2, r5, lsl #4
 800399c:	6042      	str	r2, [r0, #4]
 800399e:	684a      	ldr	r2, [r1, #4]
 80039a0:	61c4      	str	r4, [r0, #28]
 80039a2:	63c2      	str	r2, [r0, #60]	@ 0x3c
 80039a4:	6203      	str	r3, [r0, #32]
 80039a6:	bd70      	pop	{r4, r5, r6, pc}
 80039a8:	40010000 	.word	0x40010000

080039ac <TIM_OC4_SetConfig>:
 80039ac:	6a02      	ldr	r2, [r0, #32]
 80039ae:	6a03      	ldr	r3, [r0, #32]
 80039b0:	f422 5200 	bic.w	r2, r2, #8192	@ 0x2000
 80039b4:	f423 5380 	bic.w	r3, r3, #4096	@ 0x1000
 80039b8:	b530      	push	{r4, r5, lr}
 80039ba:	6203      	str	r3, [r0, #32]
 80039bc:	6844      	ldr	r4, [r0, #4]
 80039be:	69c3      	ldr	r3, [r0, #28]
 80039c0:	680d      	ldr	r5, [r1, #0]
 80039c2:	f023 7380 	bic.w	r3, r3, #16777216	@ 0x1000000
 80039c6:	f423 43e6 	bic.w	r3, r3, #29440	@ 0x7300
 80039ca:	ea43 2305 	orr.w	r3, r3, r5, lsl #8
 80039ce:	688d      	ldr	r5, [r1, #8]
 80039d0:	ea42 3205 	orr.w	r2, r2, r5, lsl #12
 80039d4:	4d08      	ldr	r5, [pc, #32]	@ (80039f8 <TIM_OC4_SetConfig+0x4c>)
 80039d6:	42a8      	cmp	r0, r5
 80039d8:	d003      	beq.n	80039e2 <TIM_OC4_SetConfig+0x36>
 80039da:	f505 6580 	add.w	r5, r5, #1024	@ 0x400
 80039de:	42a8      	cmp	r0, r5
 80039e0:	d104      	bne.n	80039ec <TIM_OC4_SetConfig+0x40>
 80039e2:	f424 4480 	bic.w	r4, r4, #16384	@ 0x4000
 80039e6:	694d      	ldr	r5, [r1, #20]
 80039e8:	ea44 1485 	orr.w	r4, r4, r5, lsl #6
 80039ec:	6044      	str	r4, [r0, #4]
 80039ee:	61c3      	str	r3, [r0, #28]
 80039f0:	684b      	ldr	r3, [r1, #4]
 80039f2:	6403      	str	r3, [r0, #64]	@ 0x40
 80039f4:	6202      	str	r2, [r0, #32]
 80039f6:	bd30      	pop	{r4, r5, pc}
 80039f8:	40010000 	.word	0x40010000

080039fc <TIM_OC5_SetConfig>:
 80039fc:	6a02      	ldr	r2, [r0, #32]
 80039fe:	6a03      	ldr	r3, [r0, #32]
 8003a00:	f422 3200 	bic.w	r2, r2, #131072	@ 0x20000
 8003a04:	f423 3380 	bic.w	r3, r3, #65536	@ 0x10000
 8003a08:	b530      	push	{r4, r5, lr}
 8003a0a:	6203      	str	r3, [r0, #32]
 8003a0c:	6844      	ldr	r4, [r0, #4]
 8003a0e:	6d43      	ldr	r3, [r0, #84]	@ 0x54
 8003a10:	680d      	ldr	r5, [r1, #0]
 8003a12:	f423 3380 	bic.w	r3, r3, #65536	@ 0x10000
 8003a16:	f023 0370 	bic.w	r3, r3, #112	@ 0x70
 8003a1a:	432b      	orrs	r3, r5
 8003a1c:	688d      	ldr	r5, [r1, #8]
 8003a1e:	ea42 4205 	orr.w	r2, r2, r5, lsl #16
 8003a22:	4d09      	ldr	r5, [pc, #36]	@ (8003a48 <TIM_OC5_SetConfig+0x4c>)
 8003a24:	42a8      	cmp	r0, r5
 8003a26:	d003      	beq.n	8003a30 <TIM_OC5_SetConfig+0x34>
 8003a28:	f505 6580 	add.w	r5, r5, #1024	@ 0x400
 8003a2c:	42a8      	cmp	r0, r5
 8003a2e:	d104      	bne.n	8003a3a <TIM_OC5_SetConfig+0x3e>
 8003a30:	f424 3480 	bic.w	r4, r4, #65536	@ 0x10000
 8003a34:	694d      	ldr	r5, [r1, #20]
 8003a36:	ea44 2405 	orr.w	r4, r4, r5, lsl #8
 8003a3a:	6044      	str	r4, [r0, #4]
 8003a3c:	6543      	str	r3, [r0, #84]	@ 0x54
 8003a3e:	684b      	ldr	r3, [r1, #4]
 8003a40:	6583      	str	r3, [r0, #88]	@ 0x58
 8003a42:	6202      	str	r2, [r0, #32]
 8003a44:	bd30      	pop	{r4, r5, pc}
 8003a46:	bf00      	nop
 8003a48:	40010000 	.word	0x40010000

08003a4c <TIM_OC6_SetConfig>:
 8003a4c:	6a02      	ldr	r2, [r0, #32]
 8003a4e:	6a03      	ldr	r3, [r0, #32]
 8003a50:	f422 1200 	bic.w	r2, r2, #2097152	@ 0x200000
 8003a54:	f423 1380 	bic.w	r3, r3, #1048576	@ 0x100000
 8003a58:	b530      	push	{r4, r5, lr}
 8003a5a:	6203      	str	r3, [r0, #32]
 8003a5c:	6844      	ldr	r4, [r0, #4]
 8003a5e:	6d43      	ldr	r3, [r0, #84]	@ 0x54
 8003a60:	680d      	ldr	r5, [r1, #0]
 8003a62:	f023 7380 	bic.w	r3, r3, #16777216	@ 0x1000000
 8003a66:	f423 43e0 	bic.w	r3, r3, #28672	@ 0x7000
 8003a6a:	ea43 2305 	orr.w	r3, r3, r5, lsl #8
 8003a6e:	688d      	ldr	r5, [r1, #8]
 8003a70:	ea42 5205 	orr.w	r2, r2, r5, lsl #20
 8003a74:	4d08      	ldr	r5, [pc, #32]	@ (8003a98 <TIM_OC6_SetConfig+0x4c>)
 8003a76:	42a8      	cmp	r0, r5
 8003a78:	d003      	beq.n	8003a82 <TIM_OC6_SetConfig+0x36>
 8003a7a:	f505 6580 	add.w	r5, r5, #1024	@ 0x400
 8003a7e:	42a8      	cmp	r0, r5
 8003a80:	d104      	bne.n	8003a8c <TIM_OC6_SetConfig+0x40>
 8003a82:	f424 2480 	bic.w	r4, r4, #262144	@ 0x40000
 8003a86:	694d      	ldr	r5, [r1, #20]
 8003a88:	ea44 2485 	orr.w	r4, r4, r5, lsl #10
 8003a8c:	6044      	str	r4, [r0, #4]
 8003a8e:	6543      	str	r3, [r0, #84]	@ 0x54
 8003a90:	684b      	ldr	r3, [r1, #4]
 8003a92:	65c3      	str	r3, [r0, #92]	@ 0x5c
 8003a94:	6202      	str	r2, [r0, #32]
 8003a96:	bd30      	pop	{r4, r5, pc}
 8003a98:	40010000 	.word	0x40010000

08003a9c <HAL_TIM_Base_Start>:
 8003a9c:	f890 303d 	ldrb.w	r3, [r0, #61]	@ 0x3d
 8003aa0:	2b01      	cmp	r3, #1
 8003aa2:	d12f      	bne.n	8003b04 <HAL_TIM_Base_Start+0x68>
 8003aa4:	2302      	movs	r3, #2
 8003aa6:	4a18      	ldr	r2, [pc, #96]	@ (8003b08 <HAL_TIM_Base_Start+0x6c>)
 8003aa8:	f880 303d 	strb.w	r3, [r0, #61]	@ 0x3d
 8003aac:	6803      	ldr	r3, [r0, #0]
 8003aae:	4293      	cmp	r3, r2
 8003ab0:	d01a      	beq.n	8003ae8 <HAL_TIM_Base_Start+0x4c>
 8003ab2:	f1b3 4f80 	cmp.w	r3, #1073741824	@ 0x40000000
 8003ab6:	d017      	beq.n	8003ae8 <HAL_TIM_Base_Start+0x4c>
 8003ab8:	f5a2 427c 	sub.w	r2, r2, #64512	@ 0xfc00
 8003abc:	4293      	cmp	r3, r2
 8003abe:	d013      	beq.n	8003ae8 <HAL_TIM_Base_Start+0x4c>
 8003ac0:	f502 6280 	add.w	r2, r2, #1024	@ 0x400
 8003ac4:	4293      	cmp	r3, r2
 8003ac6:	d00f      	beq.n	8003ae8 <HAL_TIM_Base_Start+0x4c>
 8003ac8:	f502 6280 	add.w	r2, r2, #1024	@ 0x400
 8003acc:	4293      	cmp	r3, r2
 8003ace:	d00b      	beq.n	8003ae8 <HAL_TIM_Base_Start+0x4c>
 8003ad0:	f502 4278 	add.w	r2, r2, #63488	@ 0xf800
 8003ad4:	4293      	cmp	r3, r2
 8003ad6:	d007      	beq.n	8003ae8 <HAL_TIM_Base_Start+0x4c>
 8003ad8:	f502 5270 	add.w	r2, r2, #15360	@ 0x3c00
 8003adc:	4293      	cmp	r3, r2
 8003ade:	d003      	beq.n	8003ae8 <HAL_TIM_Base_Start+0x4c>
 8003ae0:	f5a2 3294 	sub.w	r2, r2, #75776	@ 0x12800
 8003ae4:	4293      	cmp	r3, r2
 8003ae6:	d107      	bne.n	8003af8 <HAL_TIM_Base_Start+0x5c>
 8003ae8:	6899      	ldr	r1, [r3, #8]
 8003aea:	4a08      	ldr	r2, [pc, #32]	@ (8003b0c <HAL_TIM_Base_Start+0x70>)
 8003aec:	400a      	ands	r2, r1
 8003aee:	2a06      	cmp	r2, #6
 8003af0:	d006      	beq.n	8003b00 <HAL_TIM_Base_Start+0x64>
 8003af2:	f5b2 3f80 	cmp.w	r2, #65536	@ 0x10000
 8003af6:	d003      	beq.n	8003b00 <HAL_TIM_Base_Start+0x64>
 8003af8:	681a      	ldr	r2, [r3, #0]
 8003afa:	f042 0201 	orr.w	r2, r2, #1
 8003afe:	601a      	str	r2, [r3, #0]
 8003b00:	2000      	movs	r0, #0
 8003b02:	4770      	bx	lr
 8003b04:	2001      	movs	r0, #1
 8003b06:	4770      	bx	lr
 8003b08:	40010000 	.word	0x40010000
 8003b0c:	00010007 	.word	0x00010007

08003b10 <HAL_TIM_Base_Start_IT>:
 8003b10:	f890 303d 	ldrb.w	r3, [r0, #61]	@ 0x3d
 8003b14:	2b01      	cmp	r3, #1
 8003b16:	d133      	bne.n	8003b80 <HAL_TIM_Base_Start_IT+0x70>
 8003b18:	2302      	movs	r3, #2
 8003b1a:	f880 303d 	strb.w	r3, [r0, #61]	@ 0x3d
 8003b1e:	6803      	ldr	r3, [r0, #0]
 8003b20:	68da      	ldr	r2, [r3, #12]
 8003b22:	f042 0201 	orr.w	r2, r2, #1
 8003b26:	60da      	str	r2, [r3, #12]
 8003b28:	4a16      	ldr	r2, [pc, #88]	@ (8003b84 <HAL_TIM_Base_Start_IT+0x74>)
 8003b2a:	4293      	cmp	r3, r2
 8003b2c:	d01a      	beq.n	8003b64 <HAL_TIM_Base_Start_IT+0x54>
 8003b2e:	f1b3 4f80 	cmp.w	r3, #1073741824	@ 0x40000000
 8003b32:	d017      	beq.n	8003b64 <HAL_TIM_Base_Start_IT+0x54>
 8003b34:	f5a2 427c 	sub.w	r2, r2, #64512	@ 0xfc00
 8003b38:	4293      	cmp	r3, r2
 8003b3a:	d013      	beq.n	8003b64 <HAL_TIM_Base_Start_IT+0x54>
 8003b3c:	f502 6280 	add.w	r2, r2, #1024	@ 0x400
 8003b40:	4293      	cmp	r3, r2
 8003b42:	d00f      	beq.n	8003b64 <HAL_TIM_Base_Start_IT+0x54>
 8003b44:	f502 6280 	add.w	r2, r2, #1024	@ 0x400
 8003b48:	4293      	cmp	r3, r2
 8003b4a:	d00b      	beq.n	8003b64 <HAL_TIM_Base_Start_IT+0x54>
 8003b4c:	f502 4278 	add.w	r2, r2, #63488	@ 0xf800
 8003b50:	4293      	cmp	r3, r2
 8003b52:	d007      	beq.n	8003b64 <HAL_TIM_Base_Start_IT+0x54>
 8003b54:	f502 5270 	add.w	r2, r2, #15360	@ 0x3c00
 8003b58:	4293      	cmp	r3, r2
 8003b5a:	d003      	beq.n	8003b64 <HAL_TIM_Base_Start_IT+0x54>
 8003b5c:	f5a2 3294 	sub.w	r2, r2, #75776	@ 0x12800
 8003b60:	4293      	cmp	r3, r2
 8003b62:	d107      	bne.n	8003b74 <HAL_TIM_Base_Start_IT+0x64>
 8003b64:	6899      	ldr	r1, [r3, #8]
 8003b66:	4a08      	ldr	r2, [pc, #32]	@ (8003b88 <HAL_TIM_Base_Start_IT+0x78>)
 8003b68:	400a      	ands	r2, r1
 8003b6a:	2a06      	cmp	r2, #6
 8003b6c:	d006      	beq.n	8003b7c <HAL_TIM_Base_Start_IT+0x6c>
 8003b6e:	f5b2 3f80 	cmp.w	r2, #65536	@ 0x10000
 8003b72:	d003      	beq.n	8003b7c <HAL_TIM_Base_Start_IT+0x6c>
 8003b74:	681a      	ldr	r2, [r3, #0]
 8003b76:	f042 0201 	orr.w	r2, r2, #1
 8003b7a:	601a      	str	r2, [r3, #0]
 8003b7c:	2000      	movs	r0, #0
 8003b7e:	4770      	bx	lr
 8003b80:	2001      	movs	r0, #1
 8003b82:	4770      	bx	lr
 8003b84:	40010000 	.word	0x40010000
 8003b88:	00010007 	.word	0x00010007

08003b8c <HAL_TIM_Base_Stop_IT>:
 8003b8c:	6803      	ldr	r3, [r0, #0]
 8003b8e:	68da      	ldr	r2, [r3, #12]
 8003b90:	f022 0201 	bic.w	r2, r2, #1
 8003b94:	60da      	str	r2, [r3, #12]
 8003b96:	f241 1211 	movw	r2, #4369	@ 0x1111
 8003b9a:	6a19      	ldr	r1, [r3, #32]
 8003b9c:	4211      	tst	r1, r2
 8003b9e:	d108      	bne.n	8003bb2 <HAL_TIM_Base_Stop_IT+0x26>
 8003ba0:	6a19      	ldr	r1, [r3, #32]
 8003ba2:	f240 4244 	movw	r2, #1092	@ 0x444
 8003ba6:	4211      	tst	r1, r2
 8003ba8:	d103      	bne.n	8003bb2 <HAL_TIM_Base_Stop_IT+0x26>
 8003baa:	681a      	ldr	r2, [r3, #0]
 8003bac:	f022 0201 	bic.w	r2, r2, #1
 8003bb0:	601a      	str	r2, [r3, #0]
 8003bb2:	2301      	movs	r3, #1
 8003bb4:	f880 303d 	strb.w	r3, [r0, #61]	@ 0x3d
 8003bb8:	2000      	movs	r0, #0
 8003bba:	4770      	bx	lr

08003bbc <HAL_TIM_IC_MspInit>:
 8003bbc:	4770      	bx	lr

08003bbe <HAL_TIM_Encoder_Start>:
 8003bbe:	4603      	mov	r3, r0
 8003bc0:	b530      	push	{r4, r5, lr}
 8003bc2:	f890 003e 	ldrb.w	r0, [r0, #62]	@ 0x3e
 8003bc6:	f893 203f 	ldrb.w	r2, [r3, #63]	@ 0x3f
 8003bca:	f893 5044 	ldrb.w	r5, [r3, #68]	@ 0x44
 8003bce:	b2c0      	uxtb	r0, r0
 8003bd0:	f893 4045 	ldrb.w	r4, [r3, #69]	@ 0x45
 8003bd4:	b2d2      	uxtb	r2, r2
 8003bd6:	b2ed      	uxtb	r5, r5
 8003bd8:	b2e4      	uxtb	r4, r4
 8003bda:	b9c1      	cbnz	r1, 8003c0e <HAL_TIM_Encoder_Start+0x50>
 8003bdc:	2801      	cmp	r0, #1
 8003bde:	d145      	bne.n	8003c6c <HAL_TIM_Encoder_Start+0xae>
 8003be0:	2d01      	cmp	r5, #1
 8003be2:	d113      	bne.n	8003c0c <HAL_TIM_Encoder_Start+0x4e>
 8003be4:	2202      	movs	r2, #2
 8003be6:	f883 203e 	strb.w	r2, [r3, #62]	@ 0x3e
 8003bea:	f883 2044 	strb.w	r2, [r3, #68]	@ 0x44
 8003bee:	681a      	ldr	r2, [r3, #0]
 8003bf0:	6a11      	ldr	r1, [r2, #32]
 8003bf2:	f021 0101 	bic.w	r1, r1, #1
 8003bf6:	6211      	str	r1, [r2, #32]
 8003bf8:	6a11      	ldr	r1, [r2, #32]
 8003bfa:	f041 0101 	orr.w	r1, r1, #1
 8003bfe:	6211      	str	r1, [r2, #32]
 8003c00:	2000      	movs	r0, #0
 8003c02:	681a      	ldr	r2, [r3, #0]
 8003c04:	6813      	ldr	r3, [r2, #0]
 8003c06:	f043 0301 	orr.w	r3, r3, #1
 8003c0a:	6013      	str	r3, [r2, #0]
 8003c0c:	bd30      	pop	{r4, r5, pc}
 8003c0e:	2904      	cmp	r1, #4
 8003c10:	d111      	bne.n	8003c36 <HAL_TIM_Encoder_Start+0x78>
 8003c12:	2a01      	cmp	r2, #1
 8003c14:	d12a      	bne.n	8003c6c <HAL_TIM_Encoder_Start+0xae>
 8003c16:	2c01      	cmp	r4, #1
 8003c18:	d128      	bne.n	8003c6c <HAL_TIM_Encoder_Start+0xae>
 8003c1a:	2202      	movs	r2, #2
 8003c1c:	f883 203f 	strb.w	r2, [r3, #63]	@ 0x3f
 8003c20:	f883 2045 	strb.w	r2, [r3, #69]	@ 0x45
 8003c24:	681a      	ldr	r2, [r3, #0]
 8003c26:	6a11      	ldr	r1, [r2, #32]
 8003c28:	f021 0110 	bic.w	r1, r1, #16
 8003c2c:	6211      	str	r1, [r2, #32]
 8003c2e:	6a11      	ldr	r1, [r2, #32]
 8003c30:	f041 0110 	orr.w	r1, r1, #16
 8003c34:	e7e3      	b.n	8003bfe <HAL_TIM_Encoder_Start+0x40>
 8003c36:	2801      	cmp	r0, #1
 8003c38:	d118      	bne.n	8003c6c <HAL_TIM_Encoder_Start+0xae>
 8003c3a:	2a01      	cmp	r2, #1
 8003c3c:	d1e6      	bne.n	8003c0c <HAL_TIM_Encoder_Start+0x4e>
 8003c3e:	2d01      	cmp	r5, #1
 8003c40:	d1e4      	bne.n	8003c0c <HAL_TIM_Encoder_Start+0x4e>
 8003c42:	2c01      	cmp	r4, #1
 8003c44:	d1e2      	bne.n	8003c0c <HAL_TIM_Encoder_Start+0x4e>
 8003c46:	2202      	movs	r2, #2
 8003c48:	f883 203e 	strb.w	r2, [r3, #62]	@ 0x3e
 8003c4c:	f883 203f 	strb.w	r2, [r3, #63]	@ 0x3f
 8003c50:	f883 2044 	strb.w	r2, [r3, #68]	@ 0x44
 8003c54:	f883 2045 	strb.w	r2, [r3, #69]	@ 0x45
 8003c58:	681a      	ldr	r2, [r3, #0]
 8003c5a:	6a11      	ldr	r1, [r2, #32]
 8003c5c:	f021 0101 	bic.w	r1, r1, #1
 8003c60:	6211      	str	r1, [r2, #32]
 8003c62:	6a11      	ldr	r1, [r2, #32]
 8003c64:	f041 0101 	orr.w	r1, r1, #1
 8003c68:	6211      	str	r1, [r2, #32]
 8003c6a:	e7dc      	b.n	8003c26 <HAL_TIM_Encoder_Start+0x68>
 8003c6c:	2001      	movs	r0, #1
 8003c6e:	e7cd      	b.n	8003c0c <HAL_TIM_Encoder_Start+0x4e>

08003c70 <HAL_TIM_Encoder_Stop>:
 8003c70:	6803      	ldr	r3, [r0, #0]
 8003c72:	b510      	push	{r4, lr}
 8003c74:	b159      	cbz	r1, 8003c8e <HAL_TIM_Encoder_Stop+0x1e>
 8003c76:	2904      	cmp	r1, #4
 8003c78:	d005      	beq.n	8003c86 <HAL_TIM_Encoder_Stop+0x16>
 8003c7a:	6a1a      	ldr	r2, [r3, #32]
 8003c7c:	f022 0201 	bic.w	r2, r2, #1
 8003c80:	621a      	str	r2, [r3, #32]
 8003c82:	6a1a      	ldr	r2, [r3, #32]
 8003c84:	621a      	str	r2, [r3, #32]
 8003c86:	6a1a      	ldr	r2, [r3, #32]
 8003c88:	f022 0210 	bic.w	r2, r2, #16
 8003c8c:	e002      	b.n	8003c94 <HAL_TIM_Encoder_Stop+0x24>
 8003c8e:	6a1a      	ldr	r2, [r3, #32]
 8003c90:	f022 0201 	bic.w	r2, r2, #1
 8003c94:	621a      	str	r2, [r3, #32]
 8003c96:	6a1a      	ldr	r2, [r3, #32]
 8003c98:	621a      	str	r2, [r3, #32]
 8003c9a:	f241 1211 	movw	r2, #4369	@ 0x1111
 8003c9e:	6a1c      	ldr	r4, [r3, #32]
 8003ca0:	4214      	tst	r4, r2
 8003ca2:	d108      	bne.n	8003cb6 <HAL_TIM_Encoder_Stop+0x46>
 8003ca4:	6a1c      	ldr	r4, [r3, #32]
 8003ca6:	f240 4244 	movw	r2, #1092	@ 0x444
 8003caa:	4214      	tst	r4, r2
 8003cac:	d103      	bne.n	8003cb6 <HAL_TIM_Encoder_Stop+0x46>
 8003cae:	681a      	ldr	r2, [r3, #0]
 8003cb0:	f022 0201 	bic.w	r2, r2, #1
 8003cb4:	601a      	str	r2, [r3, #0]
 8003cb6:	2301      	movs	r3, #1
 8003cb8:	b131      	cbz	r1, 8003cc8 <HAL_TIM_Encoder_Stop+0x58>
 8003cba:	2904      	cmp	r1, #4
 8003cbc:	d10a      	bne.n	8003cd4 <HAL_TIM_Encoder_Stop+0x64>
 8003cbe:	f880 303f 	strb.w	r3, [r0, #63]	@ 0x3f
 8003cc2:	f880 3045 	strb.w	r3, [r0, #69]	@ 0x45
 8003cc6:	e003      	b.n	8003cd0 <HAL_TIM_Encoder_Stop+0x60>
 8003cc8:	f880 303e 	strb.w	r3, [r0, #62]	@ 0x3e
 8003ccc:	f880 3044 	strb.w	r3, [r0, #68]	@ 0x44
 8003cd0:	2000      	movs	r0, #0
 8003cd2:	bd10      	pop	{r4, pc}
 8003cd4:	f880 303e 	strb.w	r3, [r0, #62]	@ 0x3e
 8003cd8:	f880 303f 	strb.w	r3, [r0, #63]	@ 0x3f
 8003cdc:	f880 3044 	strb.w	r3, [r0, #68]	@ 0x44
 8003ce0:	e7ef      	b.n	8003cc2 <HAL_TIM_Encoder_Stop+0x52>

08003ce2 <HAL_TIM_OC_DelayElapsedCallback>:
 8003ce2:	4770      	bx	lr

08003ce4 <HAL_TIM_IC_CaptureCallback>:
 8003ce4:	4770      	bx	lr

08003ce6 <HAL_TIM_PWM_PulseFinishedCallback>:
 8003ce6:	4770      	bx	lr

08003ce8 <HAL_TIM_TriggerCallback>:
 8003ce8:	4770      	bx	lr

08003cea <HAL_TIM_IRQHandler>:
 8003cea:	6803      	ldr	r3, [r0, #0]
 8003cec:	b570      	push	{r4, r5, r6, lr}
 8003cee:	68dd      	ldr	r5, [r3, #12]
 8003cf0:	4604      	mov	r4, r0
 8003cf2:	691e      	ldr	r6, [r3, #16]
 8003cf4:	07b2      	lsls	r2, r6, #30
 8003cf6:	d50d      	bpl.n	8003d14 <HAL_TIM_IRQHandler+0x2a>
 8003cf8:	07a9      	lsls	r1, r5, #30
 8003cfa:	d50b      	bpl.n	8003d14 <HAL_TIM_IRQHandler+0x2a>
 8003cfc:	f06f 0202 	mvn.w	r2, #2
 8003d00:	611a      	str	r2, [r3, #16]
 8003d02:	2201      	movs	r2, #1
 8003d04:	7702      	strb	r2, [r0, #28]
 8003d06:	699b      	ldr	r3, [r3, #24]
 8003d08:	079a      	lsls	r2, r3, #30
 8003d0a:	d075      	beq.n	8003df8 <HAL_TIM_IRQHandler+0x10e>
 8003d0c:	f7ff ffea 	bl	8003ce4 <HAL_TIM_IC_CaptureCallback>
 8003d10:	2300      	movs	r3, #0
 8003d12:	7723      	strb	r3, [r4, #28]
 8003d14:	0773      	lsls	r3, r6, #29
 8003d16:	d510      	bpl.n	8003d3a <HAL_TIM_IRQHandler+0x50>
 8003d18:	0768      	lsls	r0, r5, #29
 8003d1a:	d50e      	bpl.n	8003d3a <HAL_TIM_IRQHandler+0x50>
 8003d1c:	6823      	ldr	r3, [r4, #0]
 8003d1e:	f06f 0204 	mvn.w	r2, #4
 8003d22:	4620      	mov	r0, r4
 8003d24:	611a      	str	r2, [r3, #16]
 8003d26:	2202      	movs	r2, #2
 8003d28:	7722      	strb	r2, [r4, #28]
 8003d2a:	699b      	ldr	r3, [r3, #24]
 8003d2c:	f413 7f40 	tst.w	r3, #768	@ 0x300
 8003d30:	d068      	beq.n	8003e04 <HAL_TIM_IRQHandler+0x11a>
 8003d32:	f7ff ffd7 	bl	8003ce4 <HAL_TIM_IC_CaptureCallback>
 8003d36:	2300      	movs	r3, #0
 8003d38:	7723      	strb	r3, [r4, #28]
 8003d3a:	0731      	lsls	r1, r6, #28
 8003d3c:	d50f      	bpl.n	8003d5e <HAL_TIM_IRQHandler+0x74>
 8003d3e:	072a      	lsls	r2, r5, #28
 8003d40:	d50d      	bpl.n	8003d5e <HAL_TIM_IRQHandler+0x74>
 8003d42:	6823      	ldr	r3, [r4, #0]
 8003d44:	f06f 0208 	mvn.w	r2, #8
 8003d48:	4620      	mov	r0, r4
 8003d4a:	611a      	str	r2, [r3, #16]
 8003d4c:	2204      	movs	r2, #4
 8003d4e:	7722      	strb	r2, [r4, #28]
 8003d50:	69db      	ldr	r3, [r3, #28]
 8003d52:	079b      	lsls	r3, r3, #30
 8003d54:	d05c      	beq.n	8003e10 <HAL_TIM_IRQHandler+0x126>
 8003d56:	f7ff ffc5 	bl	8003ce4 <HAL_TIM_IC_CaptureCallback>
 8003d5a:	2300      	movs	r3, #0
 8003d5c:	7723      	strb	r3, [r4, #28]
 8003d5e:	06f1      	lsls	r1, r6, #27
 8003d60:	d510      	bpl.n	8003d84 <HAL_TIM_IRQHandler+0x9a>
 8003d62:	06ea      	lsls	r2, r5, #27
 8003d64:	d50e      	bpl.n	8003d84 <HAL_TIM_IRQHandler+0x9a>
 8003d66:	6823      	ldr	r3, [r4, #0]
 8003d68:	f06f 0210 	mvn.w	r2, #16
 8003d6c:	4620      	mov	r0, r4
 8003d6e:	611a      	str	r2, [r3, #16]
 8003d70:	2208      	movs	r2, #8
 8003d72:	7722      	strb	r2, [r4, #28]
 8003d74:	69db      	ldr	r3, [r3, #28]
 8003d76:	f413 7f40 	tst.w	r3, #768	@ 0x300
 8003d7a:	d04f      	beq.n	8003e1c <HAL_TIM_IRQHandler+0x132>
 8003d7c:	f7ff ffb2 	bl	8003ce4 <HAL_TIM_IC_CaptureCallback>
 8003d80:	2300      	movs	r3, #0
 8003d82:	7723      	strb	r3, [r4, #28]
 8003d84:	07f3      	lsls	r3, r6, #31
 8003d86:	d508      	bpl.n	8003d9a <HAL_TIM_IRQHandler+0xb0>
 8003d88:	07e8      	lsls	r0, r5, #31
 8003d8a:	d506      	bpl.n	8003d9a <HAL_TIM_IRQHandler+0xb0>
 8003d8c:	6823      	ldr	r3, [r4, #0]
 8003d8e:	f06f 0201 	mvn.w	r2, #1
 8003d92:	4620      	mov	r0, r4
 8003d94:	611a      	str	r2, [r3, #16]
 8003d96:	f7fd f8ef 	bl	8000f78 <HAL_TIM_PeriodElapsedCallback>
 8003d9a:	f416 5f02 	tst.w	r6, #8320	@ 0x2080
 8003d9e:	d008      	beq.n	8003db2 <HAL_TIM_IRQHandler+0xc8>
 8003da0:	0629      	lsls	r1, r5, #24
 8003da2:	d506      	bpl.n	8003db2 <HAL_TIM_IRQHandler+0xc8>
 8003da4:	6823      	ldr	r3, [r4, #0]
 8003da6:	f46f 5202 	mvn.w	r2, #8320	@ 0x2080
 8003daa:	4620      	mov	r0, r4
 8003dac:	611a      	str	r2, [r3, #16]
 8003dae:	f000 fcb6 	bl	800471e <HAL_TIMEx_BreakCallback>
 8003db2:	05f2      	lsls	r2, r6, #23
 8003db4:	d508      	bpl.n	8003dc8 <HAL_TIM_IRQHandler+0xde>
 8003db6:	062b      	lsls	r3, r5, #24
 8003db8:	d506      	bpl.n	8003dc8 <HAL_TIM_IRQHandler+0xde>
 8003dba:	6823      	ldr	r3, [r4, #0]
 8003dbc:	f46f 7280 	mvn.w	r2, #256	@ 0x100
 8003dc0:	4620      	mov	r0, r4
 8003dc2:	611a      	str	r2, [r3, #16]
 8003dc4:	f000 fcac 	bl	8004720 <HAL_TIMEx_Break2Callback>
 8003dc8:	0670      	lsls	r0, r6, #25
 8003dca:	d508      	bpl.n	8003dde <HAL_TIM_IRQHandler+0xf4>
 8003dcc:	0669      	lsls	r1, r5, #25
 8003dce:	d506      	bpl.n	8003dde <HAL_TIM_IRQHandler+0xf4>
 8003dd0:	6823      	ldr	r3, [r4, #0]
 8003dd2:	f06f 0240 	mvn.w	r2, #64	@ 0x40
 8003dd6:	4620      	mov	r0, r4
 8003dd8:	611a      	str	r2, [r3, #16]
 8003dda:	f7ff ff85 	bl	8003ce8 <HAL_TIM_TriggerCallback>
 8003dde:	06b2      	lsls	r2, r6, #26
 8003de0:	d522      	bpl.n	8003e28 <HAL_TIM_IRQHandler+0x13e>
 8003de2:	06ab      	lsls	r3, r5, #26
 8003de4:	d520      	bpl.n	8003e28 <HAL_TIM_IRQHandler+0x13e>
 8003de6:	6823      	ldr	r3, [r4, #0]
 8003de8:	f06f 0220 	mvn.w	r2, #32
 8003dec:	4620      	mov	r0, r4
 8003dee:	611a      	str	r2, [r3, #16]
 8003df0:	e8bd 4070 	ldmia.w	sp!, {r4, r5, r6, lr}
 8003df4:	f000 bc92 	b.w	800471c <HAL_TIMEx_CommutCallback>
 8003df8:	f7ff ff73 	bl	8003ce2 <HAL_TIM_OC_DelayElapsedCallback>
 8003dfc:	4620      	mov	r0, r4
 8003dfe:	f7ff ff72 	bl	8003ce6 <HAL_TIM_PWM_PulseFinishedCallback>
 8003e02:	e785      	b.n	8003d10 <HAL_TIM_IRQHandler+0x26>
 8003e04:	f7ff ff6d 	bl	8003ce2 <HAL_TIM_OC_DelayElapsedCallback>
 8003e08:	4620      	mov	r0, r4
 8003e0a:	f7ff ff6c 	bl	8003ce6 <HAL_TIM_PWM_PulseFinishedCallback>
 8003e0e:	e792      	b.n	8003d36 <HAL_TIM_IRQHandler+0x4c>
 8003e10:	f7ff ff67 	bl	8003ce2 <HAL_TIM_OC_DelayElapsedCallback>
 8003e14:	4620      	mov	r0, r4
 8003e16:	f7ff ff66 	bl	8003ce6 <HAL_TIM_PWM_PulseFinishedCallback>
 8003e1a:	e79e      	b.n	8003d5a <HAL_TIM_IRQHandler+0x70>
 8003e1c:	f7ff ff61 	bl	8003ce2 <HAL_TIM_OC_DelayElapsedCallback>
 8003e20:	4620      	mov	r0, r4
 8003e22:	f7ff ff60 	bl	8003ce6 <HAL_TIM_PWM_PulseFinishedCallback>
 8003e26:	e7ab      	b.n	8003d80 <HAL_TIM_IRQHandler+0x96>
 8003e28:	bd70      	pop	{r4, r5, r6, pc}
	...

08003e2c <TIM_Base_SetConfig>:
 8003e2c:	4a29      	ldr	r2, [pc, #164]	@ (8003ed4 <TIM_Base_SetConfig+0xa8>)
 8003e2e:	6803      	ldr	r3, [r0, #0]
 8003e30:	4290      	cmp	r0, r2
 8003e32:	d012      	beq.n	8003e5a <TIM_Base_SetConfig+0x2e>
 8003e34:	f1b0 4f80 	cmp.w	r0, #1073741824	@ 0x40000000
 8003e38:	d00f      	beq.n	8003e5a <TIM_Base_SetConfig+0x2e>
 8003e3a:	f5a2 427c 	sub.w	r2, r2, #64512	@ 0xfc00
 8003e3e:	4290      	cmp	r0, r2
 8003e40:	d00b      	beq.n	8003e5a <TIM_Base_SetConfig+0x2e>
 8003e42:	f502 6280 	add.w	r2, r2, #1024	@ 0x400
 8003e46:	4290      	cmp	r0, r2
 8003e48:	d007      	beq.n	8003e5a <TIM_Base_SetConfig+0x2e>
 8003e4a:	f502 6280 	add.w	r2, r2, #1024	@ 0x400
 8003e4e:	4290      	cmp	r0, r2
 8003e50:	d003      	beq.n	8003e5a <TIM_Base_SetConfig+0x2e>
 8003e52:	f502 4278 	add.w	r2, r2, #63488	@ 0xf800
 8003e56:	4290      	cmp	r0, r2
 8003e58:	d108      	bne.n	8003e6c <TIM_Base_SetConfig+0x40>
 8003e5a:	f023 0370 	bic.w	r3, r3, #112	@ 0x70
 8003e5e:	684a      	ldr	r2, [r1, #4]
 8003e60:	4313      	orrs	r3, r2
 8003e62:	f423 7340 	bic.w	r3, r3, #768	@ 0x300
 8003e66:	68ca      	ldr	r2, [r1, #12]
 8003e68:	4313      	orrs	r3, r2
 8003e6a:	e016      	b.n	8003e9a <TIM_Base_SetConfig+0x6e>
 8003e6c:	4a1a      	ldr	r2, [pc, #104]	@ (8003ed8 <TIM_Base_SetConfig+0xac>)
 8003e6e:	4290      	cmp	r0, r2
 8003e70:	d0f7      	beq.n	8003e62 <TIM_Base_SetConfig+0x36>
 8003e72:	f502 6280 	add.w	r2, r2, #1024	@ 0x400
 8003e76:	4290      	cmp	r0, r2
 8003e78:	d0f3      	beq.n	8003e62 <TIM_Base_SetConfig+0x36>
 8003e7a:	f502 6280 	add.w	r2, r2, #1024	@ 0x400
 8003e7e:	4290      	cmp	r0, r2
 8003e80:	d0ef      	beq.n	8003e62 <TIM_Base_SetConfig+0x36>
 8003e82:	f5a2 3298 	sub.w	r2, r2, #77824	@ 0x13000
 8003e86:	4290      	cmp	r0, r2
 8003e88:	d0eb      	beq.n	8003e62 <TIM_Base_SetConfig+0x36>
 8003e8a:	f502 6280 	add.w	r2, r2, #1024	@ 0x400
 8003e8e:	4290      	cmp	r0, r2
 8003e90:	d0e7      	beq.n	8003e62 <TIM_Base_SetConfig+0x36>
 8003e92:	f502 6280 	add.w	r2, r2, #1024	@ 0x400
 8003e96:	4290      	cmp	r0, r2
 8003e98:	d0e3      	beq.n	8003e62 <TIM_Base_SetConfig+0x36>
 8003e9a:	694a      	ldr	r2, [r1, #20]
 8003e9c:	f023 0380 	bic.w	r3, r3, #128	@ 0x80
 8003ea0:	4313      	orrs	r3, r2
 8003ea2:	6003      	str	r3, [r0, #0]
 8003ea4:	688b      	ldr	r3, [r1, #8]
 8003ea6:	62c3      	str	r3, [r0, #44]	@ 0x2c
 8003ea8:	680b      	ldr	r3, [r1, #0]
 8003eaa:	6283      	str	r3, [r0, #40]	@ 0x28
 8003eac:	4b09      	ldr	r3, [pc, #36]	@ (8003ed4 <TIM_Base_SetConfig+0xa8>)
 8003eae:	4298      	cmp	r0, r3
 8003eb0:	d003      	beq.n	8003eba <TIM_Base_SetConfig+0x8e>
 8003eb2:	f503 6380 	add.w	r3, r3, #1024	@ 0x400
 8003eb6:	4298      	cmp	r0, r3
 8003eb8:	d101      	bne.n	8003ebe <TIM_Base_SetConfig+0x92>
 8003eba:	690b      	ldr	r3, [r1, #16]
 8003ebc:	6303      	str	r3, [r0, #48]	@ 0x30
 8003ebe:	2301      	movs	r3, #1
 8003ec0:	6143      	str	r3, [r0, #20]
 8003ec2:	6903      	ldr	r3, [r0, #16]
 8003ec4:	07db      	lsls	r3, r3, #31
 8003ec6:	d503      	bpl.n	8003ed0 <TIM_Base_SetConfig+0xa4>
 8003ec8:	6903      	ldr	r3, [r0, #16]
 8003eca:	f023 0301 	bic.w	r3, r3, #1
 8003ece:	6103      	str	r3, [r0, #16]
 8003ed0:	4770      	bx	lr
 8003ed2:	bf00      	nop
 8003ed4:	40010000 	.word	0x40010000
 8003ed8:	40014000 	.word	0x40014000

08003edc <HAL_TIM_Base_Init>:
 8003edc:	b510      	push	{r4, lr}
 8003ede:	4604      	mov	r4, r0
 8003ee0:	b350      	cbz	r0, 8003f38 <HAL_TIM_Base_Init+0x5c>
 8003ee2:	f890 303d 	ldrb.w	r3, [r0, #61]	@ 0x3d
 8003ee6:	f003 02ff 	and.w	r2, r3, #255	@ 0xff
 8003eea:	b91b      	cbnz	r3, 8003ef4 <HAL_TIM_Base_Init+0x18>
 8003eec:	f880 203c 	strb.w	r2, [r0, #60]	@ 0x3c
 8003ef0:	f7fd fd0e 	bl	8001910 <HAL_TIM_Base_MspInit>
 8003ef4:	2302      	movs	r3, #2
 8003ef6:	6820      	ldr	r0, [r4, #0]
 8003ef8:	1d21      	adds	r1, r4, #4
 8003efa:	f884 303d 	strb.w	r3, [r4, #61]	@ 0x3d
 8003efe:	f7ff ff95 	bl	8003e2c <TIM_Base_SetConfig>
 8003f02:	2301      	movs	r3, #1
 8003f04:	2000      	movs	r0, #0
 8003f06:	f884 3048 	strb.w	r3, [r4, #72]	@ 0x48
 8003f0a:	f884 303e 	strb.w	r3, [r4, #62]	@ 0x3e
 8003f0e:	f884 303f 	strb.w	r3, [r4, #63]	@ 0x3f
 8003f12:	f884 3040 	strb.w	r3, [r4, #64]	@ 0x40
 8003f16:	f884 3041 	strb.w	r3, [r4, #65]	@ 0x41
 8003f1a:	f884 3042 	strb.w	r3, [r4, #66]	@ 0x42
 8003f1e:	f884 3043 	strb.w	r3, [r4, #67]	@ 0x43
 8003f22:	f884 3044 	strb.w	r3, [r4, #68]	@ 0x44
 8003f26:	f884 3045 	strb.w	r3, [r4, #69]	@ 0x45
 8003f2a:	f884 3046 	strb.w	r3, [r4, #70]	@ 0x46
 8003f2e:	f884 3047 	strb.w	r3, [r4, #71]	@ 0x47
 8003f32:	f884 303d 	strb.w	r3, [r4, #61]	@ 0x3d
 8003f36:	bd10      	pop	{r4, pc}
 8003f38:	2001      	movs	r0, #1
 8003f3a:	e7fc      	b.n	8003f36 <HAL_TIM_Base_Init+0x5a>

08003f3c <HAL_TIM_PWM_Init>:
 8003f3c:	b510      	push	{r4, lr}
 8003f3e:	4604      	mov	r4, r0
 8003f40:	b350      	cbz	r0, 8003f98 <HAL_TIM_PWM_Init+0x5c>
 8003f42:	f890 303d 	ldrb.w	r3, [r0, #61]	@ 0x3d
 8003f46:	f003 02ff 	and.w	r2, r3, #255	@ 0xff
 8003f4a:	b91b      	cbnz	r3, 8003f54 <HAL_TIM_PWM_Init+0x18>
 8003f4c:	f880 203c 	strb.w	r2, [r0, #60]	@ 0x3c
 8003f50:	f7fd fc92 	bl	8001878 <HAL_TIM_PWM_MspInit>
 8003f54:	2302      	movs	r3, #2
 8003f56:	6820      	ldr	r0, [r4, #0]
 8003f58:	1d21      	adds	r1, r4, #4
 8003f5a:	f884 303d 	strb.w	r3, [r4, #61]	@ 0x3d
 8003f5e:	f7ff ff65 	bl	8003e2c <TIM_Base_SetConfig>
 8003f62:	2301      	movs	r3, #1
 8003f64:	2000      	movs	r0, #0
 8003f66:	f884 3048 	strb.w	r3, [r4, #72]	@ 0x48
 8003f6a:	f884 303e 	strb.w	r3, [r4, #62]	@ 0x3e
 8003f6e:	f884 303f 	strb.w	r3, [r4, #63]	@ 0x3f
 8003f72:	f884 3040 	strb.w	r3, [r4, #64]	@ 0x40
 8003f76:	f884 3041 	strb.w	r3, [r4, #65]	@ 0x41
 8003f7a:	f884 3042 	strb.w	r3, [r4, #66]	@ 0x42
 8003f7e:	f884 3043 	strb.w	r3, [r4, #67]	@ 0x43
 8003f82:	f884 3044 	strb.w	r3, [r4, #68]	@ 0x44
 8003f86:	f884 3045 	strb.w	r3, [r4, #69]	@ 0x45
 8003f8a:	f884 3046 	strb.w	r3, [r4, #70]	@ 0x46
 8003f8e:	f884 3047 	strb.w	r3, [r4, #71]	@ 0x47
 8003f92:	f884 303d 	strb.w	r3, [r4, #61]	@ 0x3d
 8003f96:	bd10      	pop	{r4, pc}
 8003f98:	2001      	movs	r0, #1
 8003f9a:	e7fc      	b.n	8003f96 <HAL_TIM_PWM_Init+0x5a>

08003f9c <HAL_TIM_IC_Init>:
 8003f9c:	b510      	push	{r4, lr}
 8003f9e:	4604      	mov	r4, r0
 8003fa0:	b350      	cbz	r0, 8003ff8 <HAL_TIM_IC_Init+0x5c>
 8003fa2:	f890 303d 	ldrb.w	r3, [r0, #61]	@ 0x3d
 8003fa6:	f003 02ff 	and.w	r2, r3, #255	@ 0xff
 8003faa:	b91b      	cbnz	r3, 8003fb4 <HAL_TIM_IC_Init+0x18>
 8003fac:	f880 203c 	strb.w	r2, [r0, #60]	@ 0x3c
 8003fb0:	f7ff fe04 	bl	8003bbc <HAL_TIM_IC_MspInit>
 8003fb4:	2302      	movs	r3, #2
 8003fb6:	6820      	ldr	r0, [r4, #0]
 8003fb8:	1d21      	adds	r1, r4, #4
 8003fba:	f884 303d 	strb.w	r3, [r4, #61]	@ 0x3d
 8003fbe:	f7ff ff35 	bl	8003e2c <TIM_Base_SetConfig>
 8003fc2:	2301      	movs	r3, #1
 8003fc4:	2000      	movs	r0, #0
 8003fc6:	f884 3048 	strb.w	r3, [r4, #72]	@ 0x48
 8003fca:	f884 303e 	strb.w	r3, [r4, #62]	@ 0x3e
 8003fce:	f884 303f 	strb.w	r3, [r4, #63]	@ 0x3f
 8003fd2:	f884 3040 	strb.w	r3, [r4, #64]	@ 0x40
 8003fd6:	f884 3041 	strb.w	r3, [r4, #65]	@ 0x41
 8003fda:	f884 3042 	strb.w	r3, [r4, #66]	@ 0x42
 8003fde:	f884 3043 	strb.w	r3, [r4, #67]	@ 0x43
 8003fe2:	f884 3044 	strb.w	r3, [r4, #68]	@ 0x44
 8003fe6:	f884 3045 	strb.w	r3, [r4, #69]	@ 0x45
 8003fea:	f884 3046 	strb.w	r3, [r4, #70]	@ 0x46
 8003fee:	f884 3047 	strb.w	r3, [r4, #71]	@ 0x47
 8003ff2:	f884 303d 	strb.w	r3, [r4, #61]	@ 0x3d
 8003ff6:	bd10      	pop	{r4, pc}
 8003ff8:	2001      	movs	r0, #1
 8003ffa:	e7fc      	b.n	8003ff6 <HAL_TIM_IC_Init+0x5a>

08003ffc <HAL_TIM_Encoder_Init>:
 8003ffc:	b5f8      	push	{r3, r4, r5, r6, r7, lr}
 8003ffe:	460d      	mov	r5, r1
 8004000:	4604      	mov	r4, r0
 8004002:	2800      	cmp	r0, #0
 8004004:	d04c      	beq.n	80040a0 <HAL_TIM_Encoder_Init+0xa4>
 8004006:	f890 303d 	ldrb.w	r3, [r0, #61]	@ 0x3d
 800400a:	f003 02ff 	and.w	r2, r3, #255	@ 0xff
 800400e:	b91b      	cbnz	r3, 8004018 <HAL_TIM_Encoder_Init+0x1c>
 8004010:	f880 203c 	strb.w	r2, [r0, #60]	@ 0x3c
 8004014:	f7fd fb30 	bl	8001678 <HAL_TIM_Encoder_MspInit>
 8004018:	4621      	mov	r1, r4
 800401a:	2302      	movs	r3, #2
 800401c:	f884 303d 	strb.w	r3, [r4, #61]	@ 0x3d
 8004020:	f851 0b04 	ldr.w	r0, [r1], #4
 8004024:	6883      	ldr	r3, [r0, #8]
 8004026:	f423 33a0 	bic.w	r3, r3, #81920	@ 0x14000
 800402a:	f023 0307 	bic.w	r3, r3, #7
 800402e:	6083      	str	r3, [r0, #8]
 8004030:	f7ff fefc 	bl	8003e2c <TIM_Base_SetConfig>
 8004034:	6881      	ldr	r1, [r0, #8]
 8004036:	682a      	ldr	r2, [r5, #0]
 8004038:	6983      	ldr	r3, [r0, #24]
 800403a:	69ae      	ldr	r6, [r5, #24]
 800403c:	4311      	orrs	r1, r2
 800403e:	f423 7340 	bic.w	r3, r3, #768	@ 0x300
 8004042:	68aa      	ldr	r2, [r5, #8]
 8004044:	6a07      	ldr	r7, [r0, #32]
 8004046:	f023 0303 	bic.w	r3, r3, #3
 800404a:	ea42 2206 	orr.w	r2, r2, r6, lsl #8
 800404e:	69ee      	ldr	r6, [r5, #28]
 8004050:	f027 07aa 	bic.w	r7, r7, #170	@ 0xaa
 8004054:	431a      	orrs	r2, r3
 8004056:	692b      	ldr	r3, [r5, #16]
 8004058:	011b      	lsls	r3, r3, #4
 800405a:	f422 427c 	bic.w	r2, r2, #64512	@ 0xfc00
 800405e:	ea43 2306 	orr.w	r3, r3, r6, lsl #8
 8004062:	68ee      	ldr	r6, [r5, #12]
 8004064:	f022 02fc 	bic.w	r2, r2, #252	@ 0xfc
 8004068:	4333      	orrs	r3, r6
 800406a:	6a2e      	ldr	r6, [r5, #32]
 800406c:	ea43 3306 	orr.w	r3, r3, r6, lsl #12
 8004070:	696e      	ldr	r6, [r5, #20]
 8004072:	4313      	orrs	r3, r2
 8004074:	686a      	ldr	r2, [r5, #4]
 8004076:	6081      	str	r1, [r0, #8]
 8004078:	ea42 1206 	orr.w	r2, r2, r6, lsl #4
 800407c:	6183      	str	r3, [r0, #24]
 800407e:	2301      	movs	r3, #1
 8004080:	4317      	orrs	r7, r2
 8004082:	6207      	str	r7, [r0, #32]
 8004084:	2000      	movs	r0, #0
 8004086:	f884 3048 	strb.w	r3, [r4, #72]	@ 0x48
 800408a:	f884 303e 	strb.w	r3, [r4, #62]	@ 0x3e
 800408e:	f884 303f 	strb.w	r3, [r4, #63]	@ 0x3f
 8004092:	f884 3044 	strb.w	r3, [r4, #68]	@ 0x44
 8004096:	f884 3045 	strb.w	r3, [r4, #69]	@ 0x45
 800409a:	f884 303d 	strb.w	r3, [r4, #61]	@ 0x3d
 800409e:	bdf8      	pop	{r3, r4, r5, r6, r7, pc}
 80040a0:	2001      	movs	r0, #1
 80040a2:	e7fc      	b.n	800409e <HAL_TIM_Encoder_Init+0xa2>

080040a4 <TIM_OC2_SetConfig>:
 80040a4:	6a03      	ldr	r3, [r0, #32]
 80040a6:	6a02      	ldr	r2, [r0, #32]
 80040a8:	f023 0320 	bic.w	r3, r3, #32
 80040ac:	f022 0210 	bic.w	r2, r2, #16
 80040b0:	b570      	push	{r4, r5, r6, lr}
 80040b2:	6202      	str	r2, [r0, #32]
 80040b4:	6842      	ldr	r2, [r0, #4]
 80040b6:	6984      	ldr	r4, [r0, #24]
 80040b8:	680d      	ldr	r5, [r1, #0]
 80040ba:	f024 7480 	bic.w	r4, r4, #16777216	@ 0x1000000
 80040be:	f424 44e6 	bic.w	r4, r4, #29440	@ 0x7300
 80040c2:	ea44 2405 	orr.w	r4, r4, r5, lsl #8
 80040c6:	688d      	ldr	r5, [r1, #8]
 80040c8:	ea43 1305 	orr.w	r3, r3, r5, lsl #4
 80040cc:	4d0d      	ldr	r5, [pc, #52]	@ (8004104 <TIM_OC2_SetConfig+0x60>)
 80040ce:	42a8      	cmp	r0, r5
 80040d0:	d003      	beq.n	80040da <TIM_OC2_SetConfig+0x36>
 80040d2:	f505 6580 	add.w	r5, r5, #1024	@ 0x400
 80040d6:	42a8      	cmp	r0, r5
 80040d8:	d10d      	bne.n	80040f6 <TIM_OC2_SetConfig+0x52>
 80040da:	68cd      	ldr	r5, [r1, #12]
 80040dc:	f023 0380 	bic.w	r3, r3, #128	@ 0x80
 80040e0:	f422 6240 	bic.w	r2, r2, #3072	@ 0xc00
 80040e4:	ea43 1305 	orr.w	r3, r3, r5, lsl #4
 80040e8:	e9d1 5605 	ldrd	r5, r6, [r1, #20]
 80040ec:	f023 0340 	bic.w	r3, r3, #64	@ 0x40
 80040f0:	4335      	orrs	r5, r6
 80040f2:	ea42 0285 	orr.w	r2, r2, r5, lsl #2
 80040f6:	6042      	str	r2, [r0, #4]
 80040f8:	684a      	ldr	r2, [r1, #4]
 80040fa:	6184      	str	r4, [r0, #24]
 80040fc:	6382      	str	r2, [r0, #56]	@ 0x38
 80040fe:	6203      	str	r3, [r0, #32]
 8004100:	bd70      	pop	{r4, r5, r6, pc}
 8004102:	bf00      	nop
 8004104:	40010000 	.word	0x40010000

08004108 <HAL_TIM_PWM_ConfigChannel>:
 8004108:	b538      	push	{r3, r4, r5, lr}
 800410a:	f890 303c 	ldrb.w	r3, [r0, #60]	@ 0x3c
 800410e:	4604      	mov	r4, r0
 8004110:	2b01      	cmp	r3, #1
 8004112:	d073      	beq.n	80041fc <HAL_TIM_PWM_ConfigChannel+0xf4>
 8004114:	2001      	movs	r0, #1
 8004116:	2a0c      	cmp	r2, #12
 8004118:	f884 003c 	strb.w	r0, [r4, #60]	@ 0x3c
 800411c:	d04e      	beq.n	80041bc <HAL_TIM_PWM_ConfigChannel+0xb4>
 800411e:	d808      	bhi.n	8004132 <HAL_TIM_PWM_ConfigChannel+0x2a>
 8004120:	2a04      	cmp	r2, #4
 8004122:	d02b      	beq.n	800417c <HAL_TIM_PWM_ConfigChannel+0x74>
 8004124:	2a08      	cmp	r2, #8
 8004126:	d039      	beq.n	800419c <HAL_TIM_PWM_ConfigChannel+0x94>
 8004128:	b1ba      	cbz	r2, 800415a <HAL_TIM_PWM_ConfigChannel+0x52>
 800412a:	2300      	movs	r3, #0
 800412c:	f884 303c 	strb.w	r3, [r4, #60]	@ 0x3c
 8004130:	bd38      	pop	{r3, r4, r5, pc}
 8004132:	2a10      	cmp	r2, #16
 8004134:	d052      	beq.n	80041dc <HAL_TIM_PWM_ConfigChannel+0xd4>
 8004136:	2a14      	cmp	r2, #20
 8004138:	d1f7      	bne.n	800412a <HAL_TIM_PWM_ConfigChannel+0x22>
 800413a:	6820      	ldr	r0, [r4, #0]
 800413c:	f7ff fc86 	bl	8003a4c <TIM_OC6_SetConfig>
 8004140:	690a      	ldr	r2, [r1, #16]
 8004142:	6d43      	ldr	r3, [r0, #84]	@ 0x54
 8004144:	f443 6300 	orr.w	r3, r3, #2048	@ 0x800
 8004148:	6543      	str	r3, [r0, #84]	@ 0x54
 800414a:	6d43      	ldr	r3, [r0, #84]	@ 0x54
 800414c:	f423 6380 	bic.w	r3, r3, #1024	@ 0x400
 8004150:	6543      	str	r3, [r0, #84]	@ 0x54
 8004152:	6d43      	ldr	r3, [r0, #84]	@ 0x54
 8004154:	ea43 2302 	orr.w	r3, r3, r2, lsl #8
 8004158:	e04e      	b.n	80041f8 <HAL_TIM_PWM_ConfigChannel+0xf0>
 800415a:	6820      	ldr	r0, [r4, #0]
 800415c:	f7ff fbc8 	bl	80038f0 <TIM_OC1_SetConfig>
 8004160:	690a      	ldr	r2, [r1, #16]
 8004162:	6983      	ldr	r3, [r0, #24]
 8004164:	f043 0308 	orr.w	r3, r3, #8
 8004168:	6183      	str	r3, [r0, #24]
 800416a:	6983      	ldr	r3, [r0, #24]
 800416c:	f023 0304 	bic.w	r3, r3, #4
 8004170:	6183      	str	r3, [r0, #24]
 8004172:	6983      	ldr	r3, [r0, #24]
 8004174:	4313      	orrs	r3, r2
 8004176:	6183      	str	r3, [r0, #24]
 8004178:	2000      	movs	r0, #0
 800417a:	e7d6      	b.n	800412a <HAL_TIM_PWM_ConfigChannel+0x22>
 800417c:	6820      	ldr	r0, [r4, #0]
 800417e:	f7ff ff91 	bl	80040a4 <TIM_OC2_SetConfig>
 8004182:	690a      	ldr	r2, [r1, #16]
 8004184:	6983      	ldr	r3, [r0, #24]
 8004186:	f443 6300 	orr.w	r3, r3, #2048	@ 0x800
 800418a:	6183      	str	r3, [r0, #24]
 800418c:	6983      	ldr	r3, [r0, #24]
 800418e:	f423 6380 	bic.w	r3, r3, #1024	@ 0x400
 8004192:	6183      	str	r3, [r0, #24]
 8004194:	6983      	ldr	r3, [r0, #24]
 8004196:	ea43 2302 	orr.w	r3, r3, r2, lsl #8
 800419a:	e7ec      	b.n	8004176 <HAL_TIM_PWM_ConfigChannel+0x6e>
 800419c:	6820      	ldr	r0, [r4, #0]
 800419e:	f7ff fbd5 	bl	800394c <TIM_OC3_SetConfig>
 80041a2:	690a      	ldr	r2, [r1, #16]
 80041a4:	69c3      	ldr	r3, [r0, #28]
 80041a6:	f043 0308 	orr.w	r3, r3, #8
 80041aa:	61c3      	str	r3, [r0, #28]
 80041ac:	69c3      	ldr	r3, [r0, #28]
 80041ae:	f023 0304 	bic.w	r3, r3, #4
 80041b2:	61c3      	str	r3, [r0, #28]
 80041b4:	69c3      	ldr	r3, [r0, #28]
 80041b6:	4313      	orrs	r3, r2
 80041b8:	61c3      	str	r3, [r0, #28]
 80041ba:	e7dd      	b.n	8004178 <HAL_TIM_PWM_ConfigChannel+0x70>
 80041bc:	6820      	ldr	r0, [r4, #0]
 80041be:	f7ff fbf5 	bl	80039ac <TIM_OC4_SetConfig>
 80041c2:	690a      	ldr	r2, [r1, #16]
 80041c4:	69c3      	ldr	r3, [r0, #28]
 80041c6:	f443 6300 	orr.w	r3, r3, #2048	@ 0x800
 80041ca:	61c3      	str	r3, [r0, #28]
 80041cc:	69c3      	ldr	r3, [r0, #28]
 80041ce:	f423 6380 	bic.w	r3, r3, #1024	@ 0x400
 80041d2:	61c3      	str	r3, [r0, #28]
 80041d4:	69c3      	ldr	r3, [r0, #28]
 80041d6:	ea43 2302 	orr.w	r3, r3, r2, lsl #8
 80041da:	e7ed      	b.n	80041b8 <HAL_TIM_PWM_ConfigChannel+0xb0>
 80041dc:	6820      	ldr	r0, [r4, #0]
 80041de:	f7ff fc0d 	bl	80039fc <TIM_OC5_SetConfig>
 80041e2:	690a      	ldr	r2, [r1, #16]
 80041e4:	6d43      	ldr	r3, [r0, #84]	@ 0x54
 80041e6:	f043 0308 	orr.w	r3, r3, #8
 80041ea:	6543      	str	r3, [r0, #84]	@ 0x54
 80041ec:	6d43      	ldr	r3, [r0, #84]	@ 0x54
 80041ee:	f023 0304 	bic.w	r3, r3, #4
 80041f2:	6543      	str	r3, [r0, #84]	@ 0x54
 80041f4:	6d43      	ldr	r3, [r0, #84]	@ 0x54
 80041f6:	4313      	orrs	r3, r2
 80041f8:	6543      	str	r3, [r0, #84]	@ 0x54
 80041fa:	e7bd      	b.n	8004178 <HAL_TIM_PWM_ConfigChannel+0x70>
 80041fc:	2002      	movs	r0, #2
 80041fe:	e797      	b.n	8004130 <HAL_TIM_PWM_ConfigChannel+0x28>

08004200 <TIM_TI1_SetConfig>:
 8004200:	b570      	push	{r4, r5, r6, lr}
 8004202:	6a05      	ldr	r5, [r0, #32]
 8004204:	4e19      	ldr	r6, [pc, #100]	@ (800426c <TIM_TI1_SetConfig+0x6c>)
 8004206:	6a04      	ldr	r4, [r0, #32]
 8004208:	42b0      	cmp	r0, r6
 800420a:	f024 0401 	bic.w	r4, r4, #1
 800420e:	6204      	str	r4, [r0, #32]
 8004210:	6984      	ldr	r4, [r0, #24]
 8004212:	d026      	beq.n	8004262 <TIM_TI1_SetConfig+0x62>
 8004214:	f1b0 4f80 	cmp.w	r0, #1073741824	@ 0x40000000
 8004218:	d023      	beq.n	8004262 <TIM_TI1_SetConfig+0x62>
 800421a:	f5a6 467c 	sub.w	r6, r6, #64512	@ 0xfc00
 800421e:	42b0      	cmp	r0, r6
 8004220:	d01f      	beq.n	8004262 <TIM_TI1_SetConfig+0x62>
 8004222:	f506 6680 	add.w	r6, r6, #1024	@ 0x400
 8004226:	42b0      	cmp	r0, r6
 8004228:	d01b      	beq.n	8004262 <TIM_TI1_SetConfig+0x62>
 800422a:	f506 6680 	add.w	r6, r6, #1024	@ 0x400
 800422e:	42b0      	cmp	r0, r6
 8004230:	d017      	beq.n	8004262 <TIM_TI1_SetConfig+0x62>
 8004232:	f506 4678 	add.w	r6, r6, #63488	@ 0xf800
 8004236:	42b0      	cmp	r0, r6
 8004238:	d013      	beq.n	8004262 <TIM_TI1_SetConfig+0x62>
 800423a:	f506 5670 	add.w	r6, r6, #15360	@ 0x3c00
 800423e:	42b0      	cmp	r0, r6
 8004240:	d00f      	beq.n	8004262 <TIM_TI1_SetConfig+0x62>
 8004242:	f5a6 3694 	sub.w	r6, r6, #75776	@ 0x12800
 8004246:	42b0      	cmp	r0, r6
 8004248:	d00b      	beq.n	8004262 <TIM_TI1_SetConfig+0x62>
 800424a:	f044 0201 	orr.w	r2, r4, #1
 800424e:	f363 1207 	bfi	r2, r3, #4, #4
 8004252:	f001 010a 	and.w	r1, r1, #10
 8004256:	f025 030a 	bic.w	r3, r5, #10
 800425a:	6182      	str	r2, [r0, #24]
 800425c:	4319      	orrs	r1, r3
 800425e:	6201      	str	r1, [r0, #32]
 8004260:	bd70      	pop	{r4, r5, r6, pc}
 8004262:	f024 0403 	bic.w	r4, r4, #3
 8004266:	4322      	orrs	r2, r4
 8004268:	e7f1      	b.n	800424e <TIM_TI1_SetConfig+0x4e>
 800426a:	bf00      	nop
 800426c:	40010000 	.word	0x40010000

08004270 <HAL_TIM_IC_ConfigChannel>:
 8004270:	b5f8      	push	{r3, r4, r5, r6, r7, lr}
 8004272:	f890 303c 	ldrb.w	r3, [r0, #60]	@ 0x3c
 8004276:	4605      	mov	r5, r0
 8004278:	460c      	mov	r4, r1
 800427a:	2b01      	cmp	r3, #1
 800427c:	f000 8082 	beq.w	8004384 <HAL_TIM_IC_ConfigChannel+0x114>
 8004280:	2001      	movs	r0, #1
 8004282:	2a08      	cmp	r2, #8
 8004284:	f885 003c 	strb.w	r0, [r5, #60]	@ 0x3c
 8004288:	d05c      	beq.n	8004344 <HAL_TIM_IC_ConfigChannel+0xd4>
 800428a:	d806      	bhi.n	800429a <HAL_TIM_IC_ConfigChannel+0x2a>
 800428c:	b342      	cbz	r2, 80042e0 <HAL_TIM_IC_ConfigChannel+0x70>
 800428e:	2a04      	cmp	r2, #4
 8004290:	d036      	beq.n	8004300 <HAL_TIM_IC_ConfigChannel+0x90>
 8004292:	2300      	movs	r3, #0
 8004294:	f885 303c 	strb.w	r3, [r5, #60]	@ 0x3c
 8004298:	bdf8      	pop	{r3, r4, r5, r6, r7, pc}
 800429a:	2a0c      	cmp	r2, #12
 800429c:	d1f9      	bne.n	8004292 <HAL_TIM_IC_ConfigChannel+0x22>
 800429e:	682b      	ldr	r3, [r5, #0]
 80042a0:	68ce      	ldr	r6, [r1, #12]
 80042a2:	6a18      	ldr	r0, [r3, #32]
 80042a4:	e9d1 2700 	ldrd	r2, r7, [r1]
 80042a8:	6a19      	ldr	r1, [r3, #32]
 80042aa:	f420 4020 	bic.w	r0, r0, #40960	@ 0xa000
 80042ae:	0312      	lsls	r2, r2, #12
 80042b0:	f421 5180 	bic.w	r1, r1, #4096	@ 0x1000
 80042b4:	f402 4220 	and.w	r2, r2, #40960	@ 0xa000
 80042b8:	6219      	str	r1, [r3, #32]
 80042ba:	69d9      	ldr	r1, [r3, #28]
 80042bc:	4302      	orrs	r2, r0
 80042be:	f421 7140 	bic.w	r1, r1, #768	@ 0x300
 80042c2:	ea41 2107 	orr.w	r1, r1, r7, lsl #8
 80042c6:	f366 310f 	bfi	r1, r6, #12, #4
 80042ca:	61d9      	str	r1, [r3, #28]
 80042cc:	621a      	str	r2, [r3, #32]
 80042ce:	69da      	ldr	r2, [r3, #28]
 80042d0:	68a1      	ldr	r1, [r4, #8]
 80042d2:	f422 6240 	bic.w	r2, r2, #3072	@ 0xc00
 80042d6:	61da      	str	r2, [r3, #28]
 80042d8:	69da      	ldr	r2, [r3, #28]
 80042da:	ea42 2201 	orr.w	r2, r2, r1, lsl #8
 80042de:	e04f      	b.n	8004380 <HAL_TIM_IC_ConfigChannel+0x110>
 80042e0:	6828      	ldr	r0, [r5, #0]
 80042e2:	68cb      	ldr	r3, [r1, #12]
 80042e4:	e9d1 1200 	ldrd	r1, r2, [r1]
 80042e8:	f7ff ff8a 	bl	8004200 <TIM_TI1_SetConfig>
 80042ec:	6983      	ldr	r3, [r0, #24]
 80042ee:	68a2      	ldr	r2, [r4, #8]
 80042f0:	f023 030c 	bic.w	r3, r3, #12
 80042f4:	6183      	str	r3, [r0, #24]
 80042f6:	6983      	ldr	r3, [r0, #24]
 80042f8:	4313      	orrs	r3, r2
 80042fa:	6183      	str	r3, [r0, #24]
 80042fc:	2000      	movs	r0, #0
 80042fe:	e7c8      	b.n	8004292 <HAL_TIM_IC_ConfigChannel+0x22>
 8004300:	682b      	ldr	r3, [r5, #0]
 8004302:	68ce      	ldr	r6, [r1, #12]
 8004304:	6a18      	ldr	r0, [r3, #32]
 8004306:	e9d1 2700 	ldrd	r2, r7, [r1]
 800430a:	6a19      	ldr	r1, [r3, #32]
 800430c:	f020 00a0 	bic.w	r0, r0, #160	@ 0xa0
 8004310:	0112      	lsls	r2, r2, #4
 8004312:	f021 0110 	bic.w	r1, r1, #16
 8004316:	f002 02a0 	and.w	r2, r2, #160	@ 0xa0
 800431a:	6219      	str	r1, [r3, #32]
 800431c:	6999      	ldr	r1, [r3, #24]
 800431e:	4302      	orrs	r2, r0
 8004320:	f421 7140 	bic.w	r1, r1, #768	@ 0x300
 8004324:	ea41 2107 	orr.w	r1, r1, r7, lsl #8
 8004328:	f366 310f 	bfi	r1, r6, #12, #4
 800432c:	6199      	str	r1, [r3, #24]
 800432e:	621a      	str	r2, [r3, #32]
 8004330:	699a      	ldr	r2, [r3, #24]
 8004332:	68a1      	ldr	r1, [r4, #8]
 8004334:	f422 6240 	bic.w	r2, r2, #3072	@ 0xc00
 8004338:	619a      	str	r2, [r3, #24]
 800433a:	699a      	ldr	r2, [r3, #24]
 800433c:	ea42 2201 	orr.w	r2, r2, r1, lsl #8
 8004340:	619a      	str	r2, [r3, #24]
 8004342:	e7db      	b.n	80042fc <HAL_TIM_IC_ConfigChannel+0x8c>
 8004344:	682b      	ldr	r3, [r5, #0]
 8004346:	68e7      	ldr	r7, [r4, #12]
 8004348:	6a18      	ldr	r0, [r3, #32]
 800434a:	6a1e      	ldr	r6, [r3, #32]
 800434c:	f420 6020 	bic.w	r0, r0, #2560	@ 0xa00
 8004350:	f426 7680 	bic.w	r6, r6, #256	@ 0x100
 8004354:	e9d1 2100 	ldrd	r2, r1, [r1]
 8004358:	621e      	str	r6, [r3, #32]
 800435a:	69de      	ldr	r6, [r3, #28]
 800435c:	0212      	lsls	r2, r2, #8
 800435e:	f026 0603 	bic.w	r6, r6, #3
 8004362:	f402 6220 	and.w	r2, r2, #2560	@ 0xa00
 8004366:	4331      	orrs	r1, r6
 8004368:	4302      	orrs	r2, r0
 800436a:	f367 1107 	bfi	r1, r7, #4, #4
 800436e:	61d9      	str	r1, [r3, #28]
 8004370:	621a      	str	r2, [r3, #32]
 8004372:	69da      	ldr	r2, [r3, #28]
 8004374:	68a1      	ldr	r1, [r4, #8]
 8004376:	f022 020c 	bic.w	r2, r2, #12
 800437a:	61da      	str	r2, [r3, #28]
 800437c:	69da      	ldr	r2, [r3, #28]
 800437e:	430a      	orrs	r2, r1
 8004380:	61da      	str	r2, [r3, #28]
 8004382:	e7bb      	b.n	80042fc <HAL_TIM_IC_ConfigChannel+0x8c>
 8004384:	2002      	movs	r0, #2
 8004386:	e787      	b.n	8004298 <HAL_TIM_IC_ConfigChannel+0x28>

08004388 <TIM_ETR_SetConfig>:
 8004388:	b510      	push	{r4, lr}
 800438a:	430a      	orrs	r2, r1
 800438c:	6884      	ldr	r4, [r0, #8]
 800438e:	ea42 2203 	orr.w	r2, r2, r3, lsl #8
 8004392:	f424 447f 	bic.w	r4, r4, #65280	@ 0xff00
 8004396:	4322      	orrs	r2, r4
 8004398:	6082      	str	r2, [r0, #8]
 800439a:	bd10      	pop	{r4, pc}

0800439c <HAL_TIM_ConfigClockSource>:
 800439c:	b538      	push	{r3, r4, r5, lr}
 800439e:	f890 303c 	ldrb.w	r3, [r0, #60]	@ 0x3c
 80043a2:	4604      	mov	r4, r0
 80043a4:	2002      	movs	r0, #2
 80043a6:	2b01      	cmp	r3, #1
 80043a8:	f000 808c 	beq.w	80044c4 <HAL_TIM_ConfigClockSource+0x128>
 80043ac:	f884 003d 	strb.w	r0, [r4, #61]	@ 0x3d
 80043b0:	2201      	movs	r2, #1
 80043b2:	6820      	ldr	r0, [r4, #0]
 80043b4:	f884 203c 	strb.w	r2, [r4, #60]	@ 0x3c
 80043b8:	4b43      	ldr	r3, [pc, #268]	@ (80044c8 <HAL_TIM_ConfigClockSource+0x12c>)
 80043ba:	6885      	ldr	r5, [r0, #8]
 80043bc:	402b      	ands	r3, r5
 80043be:	6083      	str	r3, [r0, #8]
 80043c0:	680b      	ldr	r3, [r1, #0]
 80043c2:	2b60      	cmp	r3, #96	@ 0x60
 80043c4:	d04f      	beq.n	8004466 <HAL_TIM_ConfigClockSource+0xca>
 80043c6:	d832      	bhi.n	800442e <HAL_TIM_ConfigClockSource+0x92>
 80043c8:	2b40      	cmp	r3, #64	@ 0x40
 80043ca:	d064      	beq.n	8004496 <HAL_TIM_ConfigClockSource+0xfa>
 80043cc:	d816      	bhi.n	80043fc <HAL_TIM_ConfigClockSource+0x60>
 80043ce:	2b20      	cmp	r3, #32
 80043d0:	d00d      	beq.n	80043ee <HAL_TIM_ConfigClockSource+0x52>
 80043d2:	d80a      	bhi.n	80043ea <HAL_TIM_ConfigClockSource+0x4e>
 80043d4:	f033 0110 	bics.w	r1, r3, #16
 80043d8:	d009      	beq.n	80043ee <HAL_TIM_ConfigClockSource+0x52>
 80043da:	2301      	movs	r3, #1
 80043dc:	f884 303d 	strb.w	r3, [r4, #61]	@ 0x3d
 80043e0:	2300      	movs	r3, #0
 80043e2:	f884 303c 	strb.w	r3, [r4, #60]	@ 0x3c
 80043e6:	4610      	mov	r0, r2
 80043e8:	bd38      	pop	{r3, r4, r5, pc}
 80043ea:	2b30      	cmp	r3, #48	@ 0x30
 80043ec:	d1f5      	bne.n	80043da <HAL_TIM_ConfigClockSource+0x3e>
 80043ee:	6882      	ldr	r2, [r0, #8]
 80043f0:	f022 0270 	bic.w	r2, r2, #112	@ 0x70
 80043f4:	4313      	orrs	r3, r2
 80043f6:	f043 0307 	orr.w	r3, r3, #7
 80043fa:	e028      	b.n	800444e <HAL_TIM_ConfigClockSource+0xb2>
 80043fc:	2b50      	cmp	r3, #80	@ 0x50
 80043fe:	d1ec      	bne.n	80043da <HAL_TIM_ConfigClockSource+0x3e>
 8004400:	684a      	ldr	r2, [r1, #4]
 8004402:	68cd      	ldr	r5, [r1, #12]
 8004404:	6a01      	ldr	r1, [r0, #32]
 8004406:	6a03      	ldr	r3, [r0, #32]
 8004408:	f021 010a 	bic.w	r1, r1, #10
 800440c:	f023 0301 	bic.w	r3, r3, #1
 8004410:	430a      	orrs	r2, r1
 8004412:	6203      	str	r3, [r0, #32]
 8004414:	6983      	ldr	r3, [r0, #24]
 8004416:	f023 03f0 	bic.w	r3, r3, #240	@ 0xf0
 800441a:	ea43 1305 	orr.w	r3, r3, r5, lsl #4
 800441e:	6183      	str	r3, [r0, #24]
 8004420:	6202      	str	r2, [r0, #32]
 8004422:	6883      	ldr	r3, [r0, #8]
 8004424:	f023 0370 	bic.w	r3, r3, #112	@ 0x70
 8004428:	f043 0357 	orr.w	r3, r3, #87	@ 0x57
 800442c:	e00f      	b.n	800444e <HAL_TIM_ConfigClockSource+0xb2>
 800442e:	f5b3 5f80 	cmp.w	r3, #4096	@ 0x1000
 8004432:	d00d      	beq.n	8004450 <HAL_TIM_ConfigClockSource+0xb4>
 8004434:	f5b3 5f00 	cmp.w	r3, #8192	@ 0x2000
 8004438:	d00c      	beq.n	8004454 <HAL_TIM_ConfigClockSource+0xb8>
 800443a:	2b70      	cmp	r3, #112	@ 0x70
 800443c:	d1cd      	bne.n	80043da <HAL_TIM_ConfigClockSource+0x3e>
 800443e:	68cb      	ldr	r3, [r1, #12]
 8004440:	e9d1 2101 	ldrd	r2, r1, [r1, #4]
 8004444:	f7ff ffa0 	bl	8004388 <TIM_ETR_SetConfig>
 8004448:	6883      	ldr	r3, [r0, #8]
 800444a:	f043 0377 	orr.w	r3, r3, #119	@ 0x77
 800444e:	6083      	str	r3, [r0, #8]
 8004450:	2200      	movs	r2, #0
 8004452:	e7c2      	b.n	80043da <HAL_TIM_ConfigClockSource+0x3e>
 8004454:	68cb      	ldr	r3, [r1, #12]
 8004456:	e9d1 2101 	ldrd	r2, r1, [r1, #4]
 800445a:	f7ff ff95 	bl	8004388 <TIM_ETR_SetConfig>
 800445e:	6883      	ldr	r3, [r0, #8]
 8004460:	f443 4380 	orr.w	r3, r3, #16384	@ 0x4000
 8004464:	e7f3      	b.n	800444e <HAL_TIM_ConfigClockSource+0xb2>
 8004466:	6a03      	ldr	r3, [r0, #32]
 8004468:	6a02      	ldr	r2, [r0, #32]
 800446a:	684d      	ldr	r5, [r1, #4]
 800446c:	f023 03a0 	bic.w	r3, r3, #160	@ 0xa0
 8004470:	f022 0210 	bic.w	r2, r2, #16
 8004474:	68c9      	ldr	r1, [r1, #12]
 8004476:	ea43 1305 	orr.w	r3, r3, r5, lsl #4
 800447a:	6202      	str	r2, [r0, #32]
 800447c:	6982      	ldr	r2, [r0, #24]
 800447e:	f422 4270 	bic.w	r2, r2, #61440	@ 0xf000
 8004482:	ea42 3201 	orr.w	r2, r2, r1, lsl #12
 8004486:	6182      	str	r2, [r0, #24]
 8004488:	6203      	str	r3, [r0, #32]
 800448a:	6883      	ldr	r3, [r0, #8]
 800448c:	f023 0370 	bic.w	r3, r3, #112	@ 0x70
 8004490:	f043 0367 	orr.w	r3, r3, #103	@ 0x67
 8004494:	e7db      	b.n	800444e <HAL_TIM_ConfigClockSource+0xb2>
 8004496:	684a      	ldr	r2, [r1, #4]
 8004498:	68cd      	ldr	r5, [r1, #12]
 800449a:	6a01      	ldr	r1, [r0, #32]
 800449c:	6a03      	ldr	r3, [r0, #32]
 800449e:	f021 010a 	bic.w	r1, r1, #10
 80044a2:	f023 0301 	bic.w	r3, r3, #1
 80044a6:	430a      	orrs	r2, r1
 80044a8:	6203      	str	r3, [r0, #32]
 80044aa:	6983      	ldr	r3, [r0, #24]
 80044ac:	f023 03f0 	bic.w	r3, r3, #240	@ 0xf0
 80044b0:	ea43 1305 	orr.w	r3, r3, r5, lsl #4
 80044b4:	6183      	str	r3, [r0, #24]
 80044b6:	6202      	str	r2, [r0, #32]
 80044b8:	6883      	ldr	r3, [r0, #8]
 80044ba:	f023 0370 	bic.w	r3, r3, #112	@ 0x70
 80044be:	f043 0347 	orr.w	r3, r3, #71	@ 0x47
 80044c2:	e7c4      	b.n	800444e <HAL_TIM_ConfigClockSource+0xb2>
 80044c4:	4602      	mov	r2, r0
 80044c6:	e78e      	b.n	80043e6 <HAL_TIM_ConfigClockSource+0x4a>
 80044c8:	fffe0088 	.word	0xfffe0088

080044cc <TIM_CCxChannelCmd>:
 80044cc:	b510      	push	{r4, lr}
 80044ce:	f001 011f 	and.w	r1, r1, #31
 80044d2:	2401      	movs	r4, #1
 80044d4:	6a03      	ldr	r3, [r0, #32]
 80044d6:	408c      	lsls	r4, r1
 80044d8:	408a      	lsls	r2, r1
 80044da:	ea23 0304 	bic.w	r3, r3, r4
 80044de:	6203      	str	r3, [r0, #32]
 80044e0:	6a03      	ldr	r3, [r0, #32]
 80044e2:	431a      	orrs	r2, r3
 80044e4:	6202      	str	r2, [r0, #32]
 80044e6:	bd10      	pop	{r4, pc}

080044e8 <HAL_TIM_OC_Start>:
 80044e8:	2908      	cmp	r1, #8
 80044ea:	b508      	push	{r3, lr}
 80044ec:	d028      	beq.n	8004540 <HAL_TIM_OC_Start+0x58>
 80044ee:	d812      	bhi.n	8004516 <HAL_TIM_OC_Start+0x2e>
 80044f0:	b1c1      	cbz	r1, 8004524 <HAL_TIM_OC_Start+0x3c>
 80044f2:	2904      	cmp	r1, #4
 80044f4:	d01c      	beq.n	8004530 <HAL_TIM_OC_Start+0x48>
 80044f6:	f890 3043 	ldrb.w	r3, [r0, #67]	@ 0x43
 80044fa:	2b01      	cmp	r3, #1
 80044fc:	d116      	bne.n	800452c <HAL_TIM_OC_Start+0x44>
 80044fe:	2908      	cmp	r1, #8
 8004500:	d905      	bls.n	800450e <HAL_TIM_OC_Start+0x26>
 8004502:	290c      	cmp	r1, #12
 8004504:	f04f 0302 	mov.w	r3, #2
 8004508:	d046      	beq.n	8004598 <HAL_TIM_OC_Start+0xb0>
 800450a:	2910      	cmp	r1, #16
 800450c:	d047      	beq.n	800459e <HAL_TIM_OC_Start+0xb6>
 800450e:	2302      	movs	r3, #2
 8004510:	f880 3043 	strb.w	r3, [r0, #67]	@ 0x43
 8004514:	e027      	b.n	8004566 <HAL_TIM_OC_Start+0x7e>
 8004516:	290c      	cmp	r1, #12
 8004518:	d01f      	beq.n	800455a <HAL_TIM_OC_Start+0x72>
 800451a:	2910      	cmp	r1, #16
 800451c:	d1eb      	bne.n	80044f6 <HAL_TIM_OC_Start+0xe>
 800451e:	f890 3042 	ldrb.w	r3, [r0, #66]	@ 0x42
 8004522:	e00f      	b.n	8004544 <HAL_TIM_OC_Start+0x5c>
 8004524:	f890 303e 	ldrb.w	r3, [r0, #62]	@ 0x3e
 8004528:	2b01      	cmp	r3, #1
 800452a:	d019      	beq.n	8004560 <HAL_TIM_OC_Start+0x78>
 800452c:	2001      	movs	r0, #1
 800452e:	e032      	b.n	8004596 <HAL_TIM_OC_Start+0xae>
 8004530:	f890 303f 	ldrb.w	r3, [r0, #63]	@ 0x3f
 8004534:	2b01      	cmp	r3, #1
 8004536:	d1f9      	bne.n	800452c <HAL_TIM_OC_Start+0x44>
 8004538:	2302      	movs	r3, #2
 800453a:	f880 303f 	strb.w	r3, [r0, #63]	@ 0x3f
 800453e:	e012      	b.n	8004566 <HAL_TIM_OC_Start+0x7e>
 8004540:	f890 3040 	ldrb.w	r3, [r0, #64]	@ 0x40
 8004544:	3b01      	subs	r3, #1
 8004546:	bf18      	it	ne
 8004548:	2301      	movne	r3, #1
 800454a:	2b00      	cmp	r3, #0
 800454c:	d1ee      	bne.n	800452c <HAL_TIM_OC_Start+0x44>
 800454e:	2908      	cmp	r1, #8
 8004550:	d1d7      	bne.n	8004502 <HAL_TIM_OC_Start+0x1a>
 8004552:	2302      	movs	r3, #2
 8004554:	f880 3040 	strb.w	r3, [r0, #64]	@ 0x40
 8004558:	e005      	b.n	8004566 <HAL_TIM_OC_Start+0x7e>
 800455a:	f890 3041 	ldrb.w	r3, [r0, #65]	@ 0x41
 800455e:	e7f1      	b.n	8004544 <HAL_TIM_OC_Start+0x5c>
 8004560:	2302      	movs	r3, #2
 8004562:	f880 303e 	strb.w	r3, [r0, #62]	@ 0x3e
 8004566:	6800      	ldr	r0, [r0, #0]
 8004568:	2201      	movs	r2, #1
 800456a:	f7ff ffaf 	bl	80044cc <TIM_CCxChannelCmd>
 800456e:	4b1b      	ldr	r3, [pc, #108]	@ (80045dc <HAL_TIM_OC_Start+0xf4>)
 8004570:	4298      	cmp	r0, r3
 8004572:	d003      	beq.n	800457c <HAL_TIM_OC_Start+0x94>
 8004574:	f503 6380 	add.w	r3, r3, #1024	@ 0x400
 8004578:	4298      	cmp	r0, r3
 800457a:	d113      	bne.n	80045a4 <HAL_TIM_OC_Start+0xbc>
 800457c:	6c43      	ldr	r3, [r0, #68]	@ 0x44
 800457e:	f443 4300 	orr.w	r3, r3, #32768	@ 0x8000
 8004582:	6443      	str	r3, [r0, #68]	@ 0x44
 8004584:	6882      	ldr	r2, [r0, #8]
 8004586:	4b16      	ldr	r3, [pc, #88]	@ (80045e0 <HAL_TIM_OC_Start+0xf8>)
 8004588:	4013      	ands	r3, r2
 800458a:	2b06      	cmp	r3, #6
 800458c:	d002      	beq.n	8004594 <HAL_TIM_OC_Start+0xac>
 800458e:	f5b3 3f80 	cmp.w	r3, #65536	@ 0x10000
 8004592:	d11d      	bne.n	80045d0 <HAL_TIM_OC_Start+0xe8>
 8004594:	2000      	movs	r0, #0
 8004596:	bd08      	pop	{r3, pc}
 8004598:	f880 3041 	strb.w	r3, [r0, #65]	@ 0x41
 800459c:	e7e3      	b.n	8004566 <HAL_TIM_OC_Start+0x7e>
 800459e:	f880 3042 	strb.w	r3, [r0, #66]	@ 0x42
 80045a2:	e7e0      	b.n	8004566 <HAL_TIM_OC_Start+0x7e>
 80045a4:	f1b0 4f80 	cmp.w	r0, #1073741824	@ 0x40000000
 80045a8:	d0ec      	beq.n	8004584 <HAL_TIM_OC_Start+0x9c>
 80045aa:	4b0e      	ldr	r3, [pc, #56]	@ (80045e4 <HAL_TIM_OC_Start+0xfc>)
 80045ac:	4298      	cmp	r0, r3
 80045ae:	d0e9      	beq.n	8004584 <HAL_TIM_OC_Start+0x9c>
 80045b0:	f503 6380 	add.w	r3, r3, #1024	@ 0x400
 80045b4:	4298      	cmp	r0, r3
 80045b6:	d0e5      	beq.n	8004584 <HAL_TIM_OC_Start+0x9c>
 80045b8:	f503 6380 	add.w	r3, r3, #1024	@ 0x400
 80045bc:	4298      	cmp	r0, r3
 80045be:	d0e1      	beq.n	8004584 <HAL_TIM_OC_Start+0x9c>
 80045c0:	f503 339a 	add.w	r3, r3, #78848	@ 0x13400
 80045c4:	4298      	cmp	r0, r3
 80045c6:	d0dd      	beq.n	8004584 <HAL_TIM_OC_Start+0x9c>
 80045c8:	f5a3 3394 	sub.w	r3, r3, #75776	@ 0x12800
 80045cc:	4298      	cmp	r0, r3
 80045ce:	d0d9      	beq.n	8004584 <HAL_TIM_OC_Start+0x9c>
 80045d0:	6803      	ldr	r3, [r0, #0]
 80045d2:	f043 0301 	orr.w	r3, r3, #1
 80045d6:	6003      	str	r3, [r0, #0]
 80045d8:	e7dc      	b.n	8004594 <HAL_TIM_OC_Start+0xac>
 80045da:	bf00      	nop
 80045dc:	40010000 	.word	0x40010000
 80045e0:	00010007 	.word	0x00010007
 80045e4:	40000400 	.word	0x40000400

080045e8 <HAL_TIM_PWM_Start>:
 80045e8:	f7ff bf7e 	b.w	80044e8 <HAL_TIM_OC_Start>

080045ec <HAL_TIM_OC_Stop>:
 80045ec:	b538      	push	{r3, r4, r5, lr}
 80045ee:	2200      	movs	r2, #0
 80045f0:	4604      	mov	r4, r0
 80045f2:	6800      	ldr	r0, [r0, #0]
 80045f4:	460d      	mov	r5, r1
 80045f6:	f7ff ff69 	bl	80044cc <TIM_CCxChannelCmd>
 80045fa:	4b21      	ldr	r3, [pc, #132]	@ (8004680 <HAL_TIM_OC_Stop+0x94>)
 80045fc:	4298      	cmp	r0, r3
 80045fe:	d003      	beq.n	8004608 <HAL_TIM_OC_Stop+0x1c>
 8004600:	f503 6380 	add.w	r3, r3, #1024	@ 0x400
 8004604:	4298      	cmp	r0, r3
 8004606:	d10d      	bne.n	8004624 <HAL_TIM_OC_Stop+0x38>
 8004608:	6a02      	ldr	r2, [r0, #32]
 800460a:	f241 1311 	movw	r3, #4369	@ 0x1111
 800460e:	421a      	tst	r2, r3
 8004610:	d108      	bne.n	8004624 <HAL_TIM_OC_Stop+0x38>
 8004612:	6a02      	ldr	r2, [r0, #32]
 8004614:	f240 4344 	movw	r3, #1092	@ 0x444
 8004618:	421a      	tst	r2, r3
 800461a:	d103      	bne.n	8004624 <HAL_TIM_OC_Stop+0x38>
 800461c:	6c43      	ldr	r3, [r0, #68]	@ 0x44
 800461e:	f423 4300 	bic.w	r3, r3, #32768	@ 0x8000
 8004622:	6443      	str	r3, [r0, #68]	@ 0x44
 8004624:	6a02      	ldr	r2, [r0, #32]
 8004626:	f241 1311 	movw	r3, #4369	@ 0x1111
 800462a:	421a      	tst	r2, r3
 800462c:	d108      	bne.n	8004640 <HAL_TIM_OC_Stop+0x54>
 800462e:	6a02      	ldr	r2, [r0, #32]
 8004630:	f240 4344 	movw	r3, #1092	@ 0x444
 8004634:	421a      	tst	r2, r3
 8004636:	d103      	bne.n	8004640 <HAL_TIM_OC_Stop+0x54>
 8004638:	6803      	ldr	r3, [r0, #0]
 800463a:	f023 0301 	bic.w	r3, r3, #1
 800463e:	6003      	str	r3, [r0, #0]
 8004640:	2d08      	cmp	r5, #8
 8004642:	f04f 0301 	mov.w	r3, #1
 8004646:	d015      	beq.n	8004674 <HAL_TIM_OC_Stop+0x88>
 8004648:	d806      	bhi.n	8004658 <HAL_TIM_OC_Stop+0x6c>
 800464a:	b165      	cbz	r5, 8004666 <HAL_TIM_OC_Stop+0x7a>
 800464c:	2d04      	cmp	r5, #4
 800464e:	d00e      	beq.n	800466e <HAL_TIM_OC_Stop+0x82>
 8004650:	2301      	movs	r3, #1
 8004652:	f884 3043 	strb.w	r3, [r4, #67]	@ 0x43
 8004656:	e008      	b.n	800466a <HAL_TIM_OC_Stop+0x7e>
 8004658:	2d0c      	cmp	r5, #12
 800465a:	d00e      	beq.n	800467a <HAL_TIM_OC_Stop+0x8e>
 800465c:	2d10      	cmp	r5, #16
 800465e:	d1f7      	bne.n	8004650 <HAL_TIM_OC_Stop+0x64>
 8004660:	f884 3042 	strb.w	r3, [r4, #66]	@ 0x42
 8004664:	e001      	b.n	800466a <HAL_TIM_OC_Stop+0x7e>
 8004666:	f884 303e 	strb.w	r3, [r4, #62]	@ 0x3e
 800466a:	2000      	movs	r0, #0
 800466c:	bd38      	pop	{r3, r4, r5, pc}
 800466e:	f884 303f 	strb.w	r3, [r4, #63]	@ 0x3f
 8004672:	e7fa      	b.n	800466a <HAL_TIM_OC_Stop+0x7e>
 8004674:	f884 3040 	strb.w	r3, [r4, #64]	@ 0x40
 8004678:	e7f7      	b.n	800466a <HAL_TIM_OC_Stop+0x7e>
 800467a:	f884 3041 	strb.w	r3, [r4, #65]	@ 0x41
 800467e:	e7f4      	b.n	800466a <HAL_TIM_OC_Stop+0x7e>
 8004680:	40010000 	.word	0x40010000

08004684 <HAL_TIM_PWM_Stop>:
 8004684:	f7ff bfb2 	b.w	80045ec <HAL_TIM_OC_Stop>

08004688 <HAL_TIMEx_MasterConfigSynchronization>:
 8004688:	b570      	push	{r4, r5, r6, lr}
 800468a:	f890 303c 	ldrb.w	r3, [r0, #60]	@ 0x3c
 800468e:	4604      	mov	r4, r0
 8004690:	2002      	movs	r0, #2
 8004692:	2b01      	cmp	r3, #1
 8004694:	d03b      	beq.n	800470e <HAL_TIMEx_MasterConfigSynchronization+0x86>
 8004696:	6823      	ldr	r3, [r4, #0]
 8004698:	4d1d      	ldr	r5, [pc, #116]	@ (8004710 <HAL_TIMEx_MasterConfigSynchronization+0x88>)
 800469a:	f884 003d 	strb.w	r0, [r4, #61]	@ 0x3d
 800469e:	42ab      	cmp	r3, r5
 80046a0:	685a      	ldr	r2, [r3, #4]
 80046a2:	6898      	ldr	r0, [r3, #8]
 80046a4:	d002      	beq.n	80046ac <HAL_TIMEx_MasterConfigSynchronization+0x24>
 80046a6:	4e1b      	ldr	r6, [pc, #108]	@ (8004714 <HAL_TIMEx_MasterConfigSynchronization+0x8c>)
 80046a8:	42b3      	cmp	r3, r6
 80046aa:	d103      	bne.n	80046b4 <HAL_TIMEx_MasterConfigSynchronization+0x2c>
 80046ac:	f422 0270 	bic.w	r2, r2, #15728640	@ 0xf00000
 80046b0:	684e      	ldr	r6, [r1, #4]
 80046b2:	4332      	orrs	r2, r6
 80046b4:	680e      	ldr	r6, [r1, #0]
 80046b6:	f022 0270 	bic.w	r2, r2, #112	@ 0x70
 80046ba:	42ab      	cmp	r3, r5
 80046bc:	ea42 0206 	orr.w	r2, r2, r6
 80046c0:	605a      	str	r2, [r3, #4]
 80046c2:	d019      	beq.n	80046f8 <HAL_TIMEx_MasterConfigSynchronization+0x70>
 80046c4:	f1b3 4f80 	cmp.w	r3, #1073741824	@ 0x40000000
 80046c8:	d016      	beq.n	80046f8 <HAL_TIMEx_MasterConfigSynchronization+0x70>
 80046ca:	4a13      	ldr	r2, [pc, #76]	@ (8004718 <HAL_TIMEx_MasterConfigSynchronization+0x90>)
 80046cc:	4293      	cmp	r3, r2
 80046ce:	d013      	beq.n	80046f8 <HAL_TIMEx_MasterConfigSynchronization+0x70>
 80046d0:	f502 6280 	add.w	r2, r2, #1024	@ 0x400
 80046d4:	4293      	cmp	r3, r2
 80046d6:	d00f      	beq.n	80046f8 <HAL_TIMEx_MasterConfigSynchronization+0x70>
 80046d8:	f502 6280 	add.w	r2, r2, #1024	@ 0x400
 80046dc:	4293      	cmp	r3, r2
 80046de:	d00b      	beq.n	80046f8 <HAL_TIMEx_MasterConfigSynchronization+0x70>
 80046e0:	f502 4278 	add.w	r2, r2, #63488	@ 0xf800
 80046e4:	4293      	cmp	r3, r2
 80046e6:	d007      	beq.n	80046f8 <HAL_TIMEx_MasterConfigSynchronization+0x70>
 80046e8:	f502 5270 	add.w	r2, r2, #15360	@ 0x3c00
 80046ec:	4293      	cmp	r3, r2
 80046ee:	d003      	beq.n	80046f8 <HAL_TIMEx_MasterConfigSynchronization+0x70>
 80046f0:	f5a2 3294 	sub.w	r2, r2, #75776	@ 0x12800
 80046f4:	4293      	cmp	r3, r2
 80046f6:	d104      	bne.n	8004702 <HAL_TIMEx_MasterConfigSynchronization+0x7a>
 80046f8:	6889      	ldr	r1, [r1, #8]
 80046fa:	f020 0280 	bic.w	r2, r0, #128	@ 0x80
 80046fe:	430a      	orrs	r2, r1
 8004700:	609a      	str	r2, [r3, #8]
 8004702:	2301      	movs	r3, #1
 8004704:	2000      	movs	r0, #0
 8004706:	f884 303d 	strb.w	r3, [r4, #61]	@ 0x3d
 800470a:	f884 003c 	strb.w	r0, [r4, #60]	@ 0x3c
 800470e:	bd70      	pop	{r4, r5, r6, pc}
 8004710:	40010000 	.word	0x40010000
 8004714:	40010400 	.word	0x40010400
 8004718:	40000400 	.word	0x40000400

0800471c <HAL_TIMEx_CommutCallback>:
 800471c:	4770      	bx	lr

0800471e <HAL_TIMEx_BreakCallback>:
 800471e:	4770      	bx	lr

08004720 <HAL_TIMEx_Break2Callback>:
 8004720:	4770      	bx	lr

08004722 <UART_EndRxTransfer>:
 8004722:	6802      	ldr	r2, [r0, #0]
 8004724:	e852 3f00 	ldrex	r3, [r2]
 8004728:	f423 7390 	bic.w	r3, r3, #288	@ 0x120
 800472c:	e842 3100 	strex	r1, r3, [r2]
 8004730:	6802      	ldr	r2, [r0, #0]
 8004732:	2900      	cmp	r1, #0
 8004734:	d1f5      	bne.n	8004722 <UART_EndRxTransfer>
 8004736:	f102 0308 	add.w	r3, r2, #8
 800473a:	e853 3f00 	ldrex	r3, [r3]
 800473e:	f023 0301 	bic.w	r3, r3, #1
 8004742:	f102 0c08 	add.w	ip, r2, #8
 8004746:	e84c 3100 	strex	r1, r3, [ip]
 800474a:	2900      	cmp	r1, #0
 800474c:	d1f3      	bne.n	8004736 <UART_EndRxTransfer+0x14>
 800474e:	6e03      	ldr	r3, [r0, #96]	@ 0x60
 8004750:	2b01      	cmp	r3, #1
 8004752:	d107      	bne.n	8004764 <UART_EndRxTransfer+0x42>
 8004754:	e852 3f00 	ldrex	r3, [r2]
 8004758:	f023 0310 	bic.w	r3, r3, #16
 800475c:	e842 3100 	strex	r1, r3, [r2]
 8004760:	2900      	cmp	r1, #0
 8004762:	d1f7      	bne.n	8004754 <UART_EndRxTransfer+0x32>
 8004764:	2320      	movs	r3, #32
 8004766:	f8c0 3080 	str.w	r3, [r0, #128]	@ 0x80
 800476a:	2300      	movs	r3, #0
 800476c:	6603      	str	r3, [r0, #96]	@ 0x60
 800476e:	6683      	str	r3, [r0, #104]	@ 0x68
 8004770:	4770      	bx	lr

08004772 <HAL_UART_TxCpltCallback>:
 8004772:	4770      	bx	lr

08004774 <HAL_UART_ErrorCallback>:
 8004774:	4770      	bx	lr

08004776 <UART_DMAAbortOnError>:
 8004776:	b508      	push	{r3, lr}
 8004778:	6b80      	ldr	r0, [r0, #56]	@ 0x38
 800477a:	2300      	movs	r3, #0
 800477c:	f8a0 305a 	strh.w	r3, [r0, #90]	@ 0x5a
 8004780:	f8a0 3052 	strh.w	r3, [r0, #82]	@ 0x52
 8004784:	f7ff fff6 	bl	8004774 <HAL_UART_ErrorCallback>
 8004788:	bd08      	pop	{r3, pc}

0800478a <HAL_UARTEx_RxEventCallback>:
 800478a:	4770      	bx	lr

0800478c <HAL_UARTEx_WakeupCallback>:
 800478c:	4770      	bx	lr
	...

08004790 <HAL_UART_IRQHandler>:
 8004790:	6803      	ldr	r3, [r0, #0]
 8004792:	b570      	push	{r4, r5, r6, lr}
 8004794:	69da      	ldr	r2, [r3, #28]
 8004796:	f640 060f 	movw	r6, #2063	@ 0x80f
 800479a:	6819      	ldr	r1, [r3, #0]
 800479c:	4604      	mov	r4, r0
 800479e:	4232      	tst	r2, r6
 80047a0:	689d      	ldr	r5, [r3, #8]
 80047a2:	d10b      	bne.n	80047bc <HAL_UART_IRQHandler+0x2c>
 80047a4:	0696      	lsls	r6, r2, #26
 80047a6:	f140 8088 	bpl.w	80048ba <HAL_UART_IRQHandler+0x12a>
 80047aa:	068e      	lsls	r6, r1, #26
 80047ac:	f140 8085 	bpl.w	80048ba <HAL_UART_IRQHandler+0x12a>
 80047b0:	6e83      	ldr	r3, [r0, #104]	@ 0x68
 80047b2:	2b00      	cmp	r3, #0
 80047b4:	d07b      	beq.n	80048ae <HAL_UART_IRQHandler+0x11e>
 80047b6:	e8bd 4070 	ldmia.w	sp!, {r4, r5, r6, lr}
 80047ba:	4718      	bx	r3
 80047bc:	4e9a      	ldr	r6, [pc, #616]	@ (8004a28 <HAL_UART_IRQHandler+0x298>)
 80047be:	f005 0001 	and.w	r0, r5, #1
 80047c2:	400e      	ands	r6, r1
 80047c4:	4306      	orrs	r6, r0
 80047c6:	d078      	beq.n	80048ba <HAL_UART_IRQHandler+0x12a>
 80047c8:	07d5      	lsls	r5, r2, #31
 80047ca:	d509      	bpl.n	80047e0 <HAL_UART_IRQHandler+0x50>
 80047cc:	05ce      	lsls	r6, r1, #23
 80047ce:	d507      	bpl.n	80047e0 <HAL_UART_IRQHandler+0x50>
 80047d0:	2501      	movs	r5, #1
 80047d2:	621d      	str	r5, [r3, #32]
 80047d4:	f8d4 5084 	ldr.w	r5, [r4, #132]	@ 0x84
 80047d8:	f045 0501 	orr.w	r5, r5, #1
 80047dc:	f8c4 5084 	str.w	r5, [r4, #132]	@ 0x84
 80047e0:	0795      	lsls	r5, r2, #30
 80047e2:	d508      	bpl.n	80047f6 <HAL_UART_IRQHandler+0x66>
 80047e4:	b138      	cbz	r0, 80047f6 <HAL_UART_IRQHandler+0x66>
 80047e6:	2502      	movs	r5, #2
 80047e8:	621d      	str	r5, [r3, #32]
 80047ea:	f8d4 5084 	ldr.w	r5, [r4, #132]	@ 0x84
 80047ee:	f045 0504 	orr.w	r5, r5, #4
 80047f2:	f8c4 5084 	str.w	r5, [r4, #132]	@ 0x84
 80047f6:	0756      	lsls	r6, r2, #29
 80047f8:	d508      	bpl.n	800480c <HAL_UART_IRQHandler+0x7c>
 80047fa:	b138      	cbz	r0, 800480c <HAL_UART_IRQHandler+0x7c>
 80047fc:	2504      	movs	r5, #4
 80047fe:	621d      	str	r5, [r3, #32]
 8004800:	f8d4 5084 	ldr.w	r5, [r4, #132]	@ 0x84
 8004804:	f045 0502 	orr.w	r5, r5, #2
 8004808:	f8c4 5084 	str.w	r5, [r4, #132]	@ 0x84
 800480c:	0715      	lsls	r5, r2, #28
 800480e:	d50b      	bpl.n	8004828 <HAL_UART_IRQHandler+0x98>
 8004810:	f001 0520 	and.w	r5, r1, #32
 8004814:	4305      	orrs	r5, r0
 8004816:	d007      	beq.n	8004828 <HAL_UART_IRQHandler+0x98>
 8004818:	2008      	movs	r0, #8
 800481a:	6218      	str	r0, [r3, #32]
 800481c:	f8d4 0084 	ldr.w	r0, [r4, #132]	@ 0x84
 8004820:	f040 0008 	orr.w	r0, r0, #8
 8004824:	f8c4 0084 	str.w	r0, [r4, #132]	@ 0x84
 8004828:	0516      	lsls	r6, r2, #20
 800482a:	d50a      	bpl.n	8004842 <HAL_UART_IRQHandler+0xb2>
 800482c:	014d      	lsls	r5, r1, #5
 800482e:	d508      	bpl.n	8004842 <HAL_UART_IRQHandler+0xb2>
 8004830:	f44f 6000 	mov.w	r0, #2048	@ 0x800
 8004834:	6218      	str	r0, [r3, #32]
 8004836:	f8d4 3084 	ldr.w	r3, [r4, #132]	@ 0x84
 800483a:	f043 0320 	orr.w	r3, r3, #32
 800483e:	f8c4 3084 	str.w	r3, [r4, #132]	@ 0x84
 8004842:	f8d4 3084 	ldr.w	r3, [r4, #132]	@ 0x84
 8004846:	2b00      	cmp	r3, #0
 8004848:	d031      	beq.n	80048ae <HAL_UART_IRQHandler+0x11e>
 800484a:	0690      	lsls	r0, r2, #26
 800484c:	d505      	bpl.n	800485a <HAL_UART_IRQHandler+0xca>
 800484e:	068a      	lsls	r2, r1, #26
 8004850:	d503      	bpl.n	800485a <HAL_UART_IRQHandler+0xca>
 8004852:	6ea3      	ldr	r3, [r4, #104]	@ 0x68
 8004854:	b10b      	cbz	r3, 800485a <HAL_UART_IRQHandler+0xca>
 8004856:	4620      	mov	r0, r4
 8004858:	4798      	blx	r3
 800485a:	6826      	ldr	r6, [r4, #0]
 800485c:	4620      	mov	r0, r4
 800485e:	f8d4 2084 	ldr.w	r2, [r4, #132]	@ 0x84
 8004862:	68b3      	ldr	r3, [r6, #8]
 8004864:	f002 0228 	and.w	r2, r2, #40	@ 0x28
 8004868:	f003 0340 	and.w	r3, r3, #64	@ 0x40
 800486c:	ea53 0502 	orrs.w	r5, r3, r2
 8004870:	d01e      	beq.n	80048b0 <HAL_UART_IRQHandler+0x120>
 8004872:	f7ff ff56 	bl	8004722 <UART_EndRxTransfer>
 8004876:	68b3      	ldr	r3, [r6, #8]
 8004878:	065b      	lsls	r3, r3, #25
 800487a:	d515      	bpl.n	80048a8 <HAL_UART_IRQHandler+0x118>
 800487c:	6822      	ldr	r2, [r4, #0]
 800487e:	f102 0308 	add.w	r3, r2, #8
 8004882:	e853 3f00 	ldrex	r3, [r3]
 8004886:	f023 0340 	bic.w	r3, r3, #64	@ 0x40
 800488a:	3208      	adds	r2, #8
 800488c:	e842 3100 	strex	r1, r3, [r2]
 8004890:	2900      	cmp	r1, #0
 8004892:	d1f3      	bne.n	800487c <HAL_UART_IRQHandler+0xec>
 8004894:	6f60      	ldr	r0, [r4, #116]	@ 0x74
 8004896:	b138      	cbz	r0, 80048a8 <HAL_UART_IRQHandler+0x118>
 8004898:	4b64      	ldr	r3, [pc, #400]	@ (8004a2c <HAL_UART_IRQHandler+0x29c>)
 800489a:	6503      	str	r3, [r0, #80]	@ 0x50
 800489c:	f7fe f82e 	bl	80028fc <HAL_DMA_Abort_IT>
 80048a0:	b128      	cbz	r0, 80048ae <HAL_UART_IRQHandler+0x11e>
 80048a2:	6f60      	ldr	r0, [r4, #116]	@ 0x74
 80048a4:	6d03      	ldr	r3, [r0, #80]	@ 0x50
 80048a6:	e786      	b.n	80047b6 <HAL_UART_IRQHandler+0x26>
 80048a8:	4620      	mov	r0, r4
 80048aa:	f7ff ff63 	bl	8004774 <HAL_UART_ErrorCallback>
 80048ae:	bd70      	pop	{r4, r5, r6, pc}
 80048b0:	f7ff ff60 	bl	8004774 <HAL_UART_ErrorCallback>
 80048b4:	f8c4 5084 	str.w	r5, [r4, #132]	@ 0x84
 80048b8:	e7f9      	b.n	80048ae <HAL_UART_IRQHandler+0x11e>
 80048ba:	6e20      	ldr	r0, [r4, #96]	@ 0x60
 80048bc:	2801      	cmp	r0, #1
 80048be:	f040 8088 	bne.w	80049d2 <HAL_UART_IRQHandler+0x242>
 80048c2:	06d6      	lsls	r6, r2, #27
 80048c4:	f140 8085 	bpl.w	80049d2 <HAL_UART_IRQHandler+0x242>
 80048c8:	06c8      	lsls	r0, r1, #27
 80048ca:	f140 8082 	bpl.w	80049d2 <HAL_UART_IRQHandler+0x242>
 80048ce:	2210      	movs	r2, #16
 80048d0:	621a      	str	r2, [r3, #32]
 80048d2:	689a      	ldr	r2, [r3, #8]
 80048d4:	0652      	lsls	r2, r2, #25
 80048d6:	d54a      	bpl.n	800496e <HAL_UART_IRQHandler+0x1de>
 80048d8:	6f61      	ldr	r1, [r4, #116]	@ 0x74
 80048da:	680a      	ldr	r2, [r1, #0]
 80048dc:	6852      	ldr	r2, [r2, #4]
 80048de:	b292      	uxth	r2, r2
 80048e0:	2a00      	cmp	r2, #0
 80048e2:	d0e4      	beq.n	80048ae <HAL_UART_IRQHandler+0x11e>
 80048e4:	f8b4 0058 	ldrh.w	r0, [r4, #88]	@ 0x58
 80048e8:	4290      	cmp	r0, r2
 80048ea:	d9e0      	bls.n	80048ae <HAL_UART_IRQHandler+0x11e>
 80048ec:	f8a4 205a 	strh.w	r2, [r4, #90]	@ 0x5a
 80048f0:	69ca      	ldr	r2, [r1, #28]
 80048f2:	f5b2 7f80 	cmp.w	r2, #256	@ 0x100
 80048f6:	d02e      	beq.n	8004956 <HAL_UART_IRQHandler+0x1c6>
 80048f8:	e853 2f00 	ldrex	r2, [r3]
 80048fc:	f422 7280 	bic.w	r2, r2, #256	@ 0x100
 8004900:	e843 2100 	strex	r1, r2, [r3]
 8004904:	2900      	cmp	r1, #0
 8004906:	d1f7      	bne.n	80048f8 <HAL_UART_IRQHandler+0x168>
 8004908:	f103 0208 	add.w	r2, r3, #8
 800490c:	e852 2f00 	ldrex	r2, [r2]
 8004910:	f022 0201 	bic.w	r2, r2, #1
 8004914:	f103 0008 	add.w	r0, r3, #8
 8004918:	e840 2100 	strex	r1, r2, [r0]
 800491c:	2900      	cmp	r1, #0
 800491e:	d1f3      	bne.n	8004908 <HAL_UART_IRQHandler+0x178>
 8004920:	f103 0208 	add.w	r2, r3, #8
 8004924:	e852 2f00 	ldrex	r2, [r2]
 8004928:	f022 0240 	bic.w	r2, r2, #64	@ 0x40
 800492c:	f103 0008 	add.w	r0, r3, #8
 8004930:	e840 2100 	strex	r1, r2, [r0]
 8004934:	2900      	cmp	r1, #0
 8004936:	d1f3      	bne.n	8004920 <HAL_UART_IRQHandler+0x190>
 8004938:	2220      	movs	r2, #32
 800493a:	f8c4 2080 	str.w	r2, [r4, #128]	@ 0x80
 800493e:	6621      	str	r1, [r4, #96]	@ 0x60
 8004940:	e853 2f00 	ldrex	r2, [r3]
 8004944:	f022 0210 	bic.w	r2, r2, #16
 8004948:	e843 2100 	strex	r1, r2, [r3]
 800494c:	2900      	cmp	r1, #0
 800494e:	d1f7      	bne.n	8004940 <HAL_UART_IRQHandler+0x1b0>
 8004950:	6f60      	ldr	r0, [r4, #116]	@ 0x74
 8004952:	f7fd ff95 	bl	8002880 <HAL_DMA_Abort>
 8004956:	2302      	movs	r3, #2
 8004958:	f8b4 1058 	ldrh.w	r1, [r4, #88]	@ 0x58
 800495c:	6663      	str	r3, [r4, #100]	@ 0x64
 800495e:	f8b4 305a 	ldrh.w	r3, [r4, #90]	@ 0x5a
 8004962:	1ac9      	subs	r1, r1, r3
 8004964:	b289      	uxth	r1, r1
 8004966:	4620      	mov	r0, r4
 8004968:	f7ff ff0f 	bl	800478a <HAL_UARTEx_RxEventCallback>
 800496c:	e79f      	b.n	80048ae <HAL_UART_IRQHandler+0x11e>
 800496e:	f8b4 205a 	ldrh.w	r2, [r4, #90]	@ 0x5a
 8004972:	f8b4 005a 	ldrh.w	r0, [r4, #90]	@ 0x5a
 8004976:	f8b4 1058 	ldrh.w	r1, [r4, #88]	@ 0x58
 800497a:	b292      	uxth	r2, r2
 800497c:	b280      	uxth	r0, r0
 800497e:	2800      	cmp	r0, #0
 8004980:	d095      	beq.n	80048ae <HAL_UART_IRQHandler+0x11e>
 8004982:	1a89      	subs	r1, r1, r2
 8004984:	b289      	uxth	r1, r1
 8004986:	2900      	cmp	r1, #0
 8004988:	d091      	beq.n	80048ae <HAL_UART_IRQHandler+0x11e>
 800498a:	e853 2f00 	ldrex	r2, [r3]
 800498e:	f422 7290 	bic.w	r2, r2, #288	@ 0x120
 8004992:	e843 2000 	strex	r0, r2, [r3]
 8004996:	2800      	cmp	r0, #0
 8004998:	d1f7      	bne.n	800498a <HAL_UART_IRQHandler+0x1fa>
 800499a:	f103 0208 	add.w	r2, r3, #8
 800499e:	e852 2f00 	ldrex	r2, [r2]
 80049a2:	f022 0201 	bic.w	r2, r2, #1
 80049a6:	f103 0508 	add.w	r5, r3, #8
 80049aa:	e845 2000 	strex	r0, r2, [r5]
 80049ae:	2800      	cmp	r0, #0
 80049b0:	d1f3      	bne.n	800499a <HAL_UART_IRQHandler+0x20a>
 80049b2:	2220      	movs	r2, #32
 80049b4:	66a0      	str	r0, [r4, #104]	@ 0x68
 80049b6:	f8c4 2080 	str.w	r2, [r4, #128]	@ 0x80
 80049ba:	6620      	str	r0, [r4, #96]	@ 0x60
 80049bc:	e853 2f00 	ldrex	r2, [r3]
 80049c0:	f022 0210 	bic.w	r2, r2, #16
 80049c4:	e843 2000 	strex	r0, r2, [r3]
 80049c8:	2800      	cmp	r0, #0
 80049ca:	d1f7      	bne.n	80049bc <HAL_UART_IRQHandler+0x22c>
 80049cc:	2302      	movs	r3, #2
 80049ce:	6663      	str	r3, [r4, #100]	@ 0x64
 80049d0:	e7c9      	b.n	8004966 <HAL_UART_IRQHandler+0x1d6>
 80049d2:	02d6      	lsls	r6, r2, #11
 80049d4:	d508      	bpl.n	80049e8 <HAL_UART_IRQHandler+0x258>
 80049d6:	0268      	lsls	r0, r5, #9
 80049d8:	d506      	bpl.n	80049e8 <HAL_UART_IRQHandler+0x258>
 80049da:	f44f 1280 	mov.w	r2, #1048576	@ 0x100000
 80049de:	4620      	mov	r0, r4
 80049e0:	621a      	str	r2, [r3, #32]
 80049e2:	f7ff fed3 	bl	800478c <HAL_UARTEx_WakeupCallback>
 80049e6:	e762      	b.n	80048ae <HAL_UART_IRQHandler+0x11e>
 80049e8:	0616      	lsls	r6, r2, #24
 80049ea:	d507      	bpl.n	80049fc <HAL_UART_IRQHandler+0x26c>
 80049ec:	060d      	lsls	r5, r1, #24
 80049ee:	d505      	bpl.n	80049fc <HAL_UART_IRQHandler+0x26c>
 80049f0:	6ee3      	ldr	r3, [r4, #108]	@ 0x6c
 80049f2:	2b00      	cmp	r3, #0
 80049f4:	f43f af5b 	beq.w	80048ae <HAL_UART_IRQHandler+0x11e>
 80049f8:	4620      	mov	r0, r4
 80049fa:	e6dc      	b.n	80047b6 <HAL_UART_IRQHandler+0x26>
 80049fc:	0650      	lsls	r0, r2, #25
 80049fe:	f57f af56 	bpl.w	80048ae <HAL_UART_IRQHandler+0x11e>
 8004a02:	064a      	lsls	r2, r1, #25
 8004a04:	f57f af53 	bpl.w	80048ae <HAL_UART_IRQHandler+0x11e>
 8004a08:	e853 2f00 	ldrex	r2, [r3]
 8004a0c:	f022 0240 	bic.w	r2, r2, #64	@ 0x40
 8004a10:	e843 2100 	strex	r1, r2, [r3]
 8004a14:	2900      	cmp	r1, #0
 8004a16:	d1f7      	bne.n	8004a08 <HAL_UART_IRQHandler+0x278>
 8004a18:	2320      	movs	r3, #32
 8004a1a:	4620      	mov	r0, r4
 8004a1c:	66e1      	str	r1, [r4, #108]	@ 0x6c
 8004a1e:	67e3      	str	r3, [r4, #124]	@ 0x7c
 8004a20:	f7ff fea7 	bl	8004772 <HAL_UART_TxCpltCallback>
 8004a24:	e743      	b.n	80048ae <HAL_UART_IRQHandler+0x11e>
 8004a26:	bf00      	nop
 8004a28:	04000120 	.word	0x04000120
 8004a2c:	08004777 	.word	0x08004777

08004a30 <UART_SetConfig>:
 8004a30:	b538      	push	{r3, r4, r5, lr}
 8004a32:	4604      	mov	r4, r0
 8004a34:	69c0      	ldr	r0, [r0, #28]
 8004a36:	6921      	ldr	r1, [r4, #16]
 8004a38:	68a2      	ldr	r2, [r4, #8]
 8004a3a:	6823      	ldr	r3, [r4, #0]
 8004a3c:	430a      	orrs	r2, r1
 8004a3e:	6961      	ldr	r1, [r4, #20]
 8004a40:	681d      	ldr	r5, [r3, #0]
 8004a42:	430a      	orrs	r2, r1
 8004a44:	496e      	ldr	r1, [pc, #440]	@ (8004c00 <UART_SetConfig+0x1d0>)
 8004a46:	4302      	orrs	r2, r0
 8004a48:	4029      	ands	r1, r5
 8004a4a:	6a25      	ldr	r5, [r4, #32]
 8004a4c:	430a      	orrs	r2, r1
 8004a4e:	68e1      	ldr	r1, [r4, #12]
 8004a50:	601a      	str	r2, [r3, #0]
 8004a52:	685a      	ldr	r2, [r3, #4]
 8004a54:	f422 5240 	bic.w	r2, r2, #12288	@ 0x3000
 8004a58:	430a      	orrs	r2, r1
 8004a5a:	605a      	str	r2, [r3, #4]
 8004a5c:	69a2      	ldr	r2, [r4, #24]
 8004a5e:	6899      	ldr	r1, [r3, #8]
 8004a60:	432a      	orrs	r2, r5
 8004a62:	f421 6130 	bic.w	r1, r1, #2816	@ 0xb00
 8004a66:	430a      	orrs	r2, r1
 8004a68:	609a      	str	r2, [r3, #8]
 8004a6a:	4a66      	ldr	r2, [pc, #408]	@ (8004c04 <UART_SetConfig+0x1d4>)
 8004a6c:	4293      	cmp	r3, r2
 8004a6e:	d113      	bne.n	8004a98 <UART_SetConfig+0x68>
 8004a70:	4b65      	ldr	r3, [pc, #404]	@ (8004c08 <UART_SetConfig+0x1d8>)
 8004a72:	f8d3 3090 	ldr.w	r3, [r3, #144]	@ 0x90
 8004a76:	f003 0303 	and.w	r3, r3, #3
 8004a7a:	2b02      	cmp	r3, #2
 8004a7c:	f000 80a5 	beq.w	8004bca <UART_SetConfig+0x19a>
 8004a80:	2b03      	cmp	r3, #3
 8004a82:	f000 809c 	beq.w	8004bbe <UART_SetConfig+0x18e>
 8004a86:	2b01      	cmp	r3, #1
 8004a88:	d067      	beq.n	8004b5a <UART_SetConfig+0x12a>
 8004a8a:	f5b0 4f00 	cmp.w	r0, #32768	@ 0x8000
 8004a8e:	f000 8090 	beq.w	8004bb2 <UART_SetConfig+0x182>
 8004a92:	f7fe fc6f 	bl	8003374 <HAL_RCC_GetPCLK2Freq>
 8004a96:	e012      	b.n	8004abe <UART_SetConfig+0x8e>
 8004a98:	4a5c      	ldr	r2, [pc, #368]	@ (8004c0c <UART_SetConfig+0x1dc>)
 8004a9a:	4293      	cmp	r3, r2
 8004a9c:	d126      	bne.n	8004aec <UART_SetConfig+0xbc>
 8004a9e:	4b5a      	ldr	r3, [pc, #360]	@ (8004c08 <UART_SetConfig+0x1d8>)
 8004aa0:	f8d3 3090 	ldr.w	r3, [r3, #144]	@ 0x90
 8004aa4:	f003 030c 	and.w	r3, r3, #12
 8004aa8:	2b08      	cmp	r3, #8
 8004aaa:	f000 808e 	beq.w	8004bca <UART_SetConfig+0x19a>
 8004aae:	d816      	bhi.n	8004ade <UART_SetConfig+0xae>
 8004ab0:	2b00      	cmp	r3, #0
 8004ab2:	d152      	bne.n	8004b5a <UART_SetConfig+0x12a>
 8004ab4:	f5b0 4f00 	cmp.w	r0, #32768	@ 0x8000
 8004ab8:	d076      	beq.n	8004ba8 <UART_SetConfig+0x178>
 8004aba:	f7fe fc4b 	bl	8003354 <HAL_RCC_GetPCLK1Freq>
 8004abe:	2800      	cmp	r0, #0
 8004ac0:	d075      	beq.n	8004bae <UART_SetConfig+0x17e>
 8004ac2:	6862      	ldr	r2, [r4, #4]
 8004ac4:	eb00 0352 	add.w	r3, r0, r2, lsr #1
 8004ac8:	fbb3 f3f2 	udiv	r3, r3, r2
 8004acc:	f64f 72ef 	movw	r2, #65519	@ 0xffef
 8004ad0:	f1a3 0110 	sub.w	r1, r3, #16
 8004ad4:	4291      	cmp	r1, r2
 8004ad6:	d804      	bhi.n	8004ae2 <UART_SetConfig+0xb2>
 8004ad8:	6822      	ldr	r2, [r4, #0]
 8004ada:	60d3      	str	r3, [r2, #12]
 8004adc:	e067      	b.n	8004bae <UART_SetConfig+0x17e>
 8004ade:	2b0c      	cmp	r3, #12
 8004ae0:	d06d      	beq.n	8004bbe <UART_SetConfig+0x18e>
 8004ae2:	2001      	movs	r0, #1
 8004ae4:	2300      	movs	r3, #0
 8004ae6:	e9c4 331a 	strd	r3, r3, [r4, #104]	@ 0x68
 8004aea:	bd38      	pop	{r3, r4, r5, pc}
 8004aec:	4a48      	ldr	r2, [pc, #288]	@ (8004c10 <UART_SetConfig+0x1e0>)
 8004aee:	4293      	cmp	r3, r2
 8004af0:	d109      	bne.n	8004b06 <UART_SetConfig+0xd6>
 8004af2:	4b45      	ldr	r3, [pc, #276]	@ (8004c08 <UART_SetConfig+0x1d8>)
 8004af4:	f8d3 3090 	ldr.w	r3, [r3, #144]	@ 0x90
 8004af8:	f003 0330 	and.w	r3, r3, #48	@ 0x30
 8004afc:	2b20      	cmp	r3, #32
 8004afe:	d064      	beq.n	8004bca <UART_SetConfig+0x19a>
 8004b00:	d9d6      	bls.n	8004ab0 <UART_SetConfig+0x80>
 8004b02:	2b30      	cmp	r3, #48	@ 0x30
 8004b04:	e7ec      	b.n	8004ae0 <UART_SetConfig+0xb0>
 8004b06:	4a43      	ldr	r2, [pc, #268]	@ (8004c14 <UART_SetConfig+0x1e4>)
 8004b08:	4293      	cmp	r3, r2
 8004b0a:	d109      	bne.n	8004b20 <UART_SetConfig+0xf0>
 8004b0c:	4b3e      	ldr	r3, [pc, #248]	@ (8004c08 <UART_SetConfig+0x1d8>)
 8004b0e:	f8d3 3090 	ldr.w	r3, [r3, #144]	@ 0x90
 8004b12:	f003 03c0 	and.w	r3, r3, #192	@ 0xc0
 8004b16:	2b80      	cmp	r3, #128	@ 0x80
 8004b18:	d057      	beq.n	8004bca <UART_SetConfig+0x19a>
 8004b1a:	d9c9      	bls.n	8004ab0 <UART_SetConfig+0x80>
 8004b1c:	2bc0      	cmp	r3, #192	@ 0xc0
 8004b1e:	e7df      	b.n	8004ae0 <UART_SetConfig+0xb0>
 8004b20:	4a3d      	ldr	r2, [pc, #244]	@ (8004c18 <UART_SetConfig+0x1e8>)
 8004b22:	4293      	cmp	r3, r2
 8004b24:	d10b      	bne.n	8004b3e <UART_SetConfig+0x10e>
 8004b26:	4b38      	ldr	r3, [pc, #224]	@ (8004c08 <UART_SetConfig+0x1d8>)
 8004b28:	f8d3 3090 	ldr.w	r3, [r3, #144]	@ 0x90
 8004b2c:	f403 7340 	and.w	r3, r3, #768	@ 0x300
 8004b30:	f5b3 7f00 	cmp.w	r3, #512	@ 0x200
 8004b34:	d049      	beq.n	8004bca <UART_SetConfig+0x19a>
 8004b36:	d9bb      	bls.n	8004ab0 <UART_SetConfig+0x80>
 8004b38:	f5b3 7f40 	cmp.w	r3, #768	@ 0x300
 8004b3c:	e7d0      	b.n	8004ae0 <UART_SetConfig+0xb0>
 8004b3e:	4a37      	ldr	r2, [pc, #220]	@ (8004c1c <UART_SetConfig+0x1ec>)
 8004b40:	4293      	cmp	r3, r2
 8004b42:	d113      	bne.n	8004b6c <UART_SetConfig+0x13c>
 8004b44:	4b30      	ldr	r3, [pc, #192]	@ (8004c08 <UART_SetConfig+0x1d8>)
 8004b46:	f8d3 3090 	ldr.w	r3, [r3, #144]	@ 0x90
 8004b4a:	f403 6340 	and.w	r3, r3, #3072	@ 0xc00
 8004b4e:	f5b3 6f00 	cmp.w	r3, #2048	@ 0x800
 8004b52:	d03a      	beq.n	8004bca <UART_SetConfig+0x19a>
 8004b54:	d807      	bhi.n	8004b66 <UART_SetConfig+0x136>
 8004b56:	2b00      	cmp	r3, #0
 8004b58:	d097      	beq.n	8004a8a <UART_SetConfig+0x5a>
 8004b5a:	f5b0 4f00 	cmp.w	r0, #32768	@ 0x8000
 8004b5e:	d12b      	bne.n	8004bb8 <UART_SetConfig+0x188>
 8004b60:	f7fe fb2c 	bl	80031bc <HAL_RCC_GetSysClockFreq>
 8004b64:	e022      	b.n	8004bac <UART_SetConfig+0x17c>
 8004b66:	f5b3 6f40 	cmp.w	r3, #3072	@ 0xc00
 8004b6a:	e7b9      	b.n	8004ae0 <UART_SetConfig+0xb0>
 8004b6c:	4a2c      	ldr	r2, [pc, #176]	@ (8004c20 <UART_SetConfig+0x1f0>)
 8004b6e:	4293      	cmp	r3, r2
 8004b70:	d10b      	bne.n	8004b8a <UART_SetConfig+0x15a>
 8004b72:	4b25      	ldr	r3, [pc, #148]	@ (8004c08 <UART_SetConfig+0x1d8>)
 8004b74:	f8d3 3090 	ldr.w	r3, [r3, #144]	@ 0x90
 8004b78:	f403 5340 	and.w	r3, r3, #12288	@ 0x3000
 8004b7c:	f5b3 5f00 	cmp.w	r3, #8192	@ 0x2000
 8004b80:	d023      	beq.n	8004bca <UART_SetConfig+0x19a>
 8004b82:	d995      	bls.n	8004ab0 <UART_SetConfig+0x80>
 8004b84:	f5b3 5f40 	cmp.w	r3, #12288	@ 0x3000
 8004b88:	e7aa      	b.n	8004ae0 <UART_SetConfig+0xb0>
 8004b8a:	4a26      	ldr	r2, [pc, #152]	@ (8004c24 <UART_SetConfig+0x1f4>)
 8004b8c:	4293      	cmp	r3, r2
 8004b8e:	d1a8      	bne.n	8004ae2 <UART_SetConfig+0xb2>
 8004b90:	4b1d      	ldr	r3, [pc, #116]	@ (8004c08 <UART_SetConfig+0x1d8>)
 8004b92:	f8d3 3090 	ldr.w	r3, [r3, #144]	@ 0x90
 8004b96:	f403 4340 	and.w	r3, r3, #49152	@ 0xc000
 8004b9a:	f5b3 4f00 	cmp.w	r3, #32768	@ 0x8000
 8004b9e:	d014      	beq.n	8004bca <UART_SetConfig+0x19a>
 8004ba0:	d986      	bls.n	8004ab0 <UART_SetConfig+0x80>
 8004ba2:	f5b3 4f40 	cmp.w	r3, #49152	@ 0xc000
 8004ba6:	e79b      	b.n	8004ae0 <UART_SetConfig+0xb0>
 8004ba8:	f7fe fbd4 	bl	8003354 <HAL_RCC_GetPCLK1Freq>
 8004bac:	b990      	cbnz	r0, 8004bd4 <UART_SetConfig+0x1a4>
 8004bae:	2000      	movs	r0, #0
 8004bb0:	e798      	b.n	8004ae4 <UART_SetConfig+0xb4>
 8004bb2:	f7fe fbdf 	bl	8003374 <HAL_RCC_GetPCLK2Freq>
 8004bb6:	e7f9      	b.n	8004bac <UART_SetConfig+0x17c>
 8004bb8:	f7fe fb00 	bl	80031bc <HAL_RCC_GetSysClockFreq>
 8004bbc:	e77f      	b.n	8004abe <UART_SetConfig+0x8e>
 8004bbe:	f5b0 4f00 	cmp.w	r0, #32768	@ 0x8000
 8004bc2:	d007      	beq.n	8004bd4 <UART_SetConfig+0x1a4>
 8004bc4:	f44f 4000 	mov.w	r0, #32768	@ 0x8000
 8004bc8:	e77b      	b.n	8004ac2 <UART_SetConfig+0x92>
 8004bca:	f5b0 4f00 	cmp.w	r0, #32768	@ 0x8000
 8004bce:	4816      	ldr	r0, [pc, #88]	@ (8004c28 <UART_SetConfig+0x1f8>)
 8004bd0:	f47f af77 	bne.w	8004ac2 <UART_SetConfig+0x92>
 8004bd4:	6862      	ldr	r2, [r4, #4]
 8004bd6:	0853      	lsrs	r3, r2, #1
 8004bd8:	eb03 0340 	add.w	r3, r3, r0, lsl #1
 8004bdc:	fbb3 f3f2 	udiv	r3, r3, r2
 8004be0:	f64f 72ef 	movw	r2, #65519	@ 0xffef
 8004be4:	f1a3 0110 	sub.w	r1, r3, #16
 8004be8:	4291      	cmp	r1, r2
 8004bea:	f63f af7a 	bhi.w	8004ae2 <UART_SetConfig+0xb2>
 8004bee:	f023 020f 	bic.w	r2, r3, #15
 8004bf2:	f3c3 0342 	ubfx	r3, r3, #1, #3
 8004bf6:	6821      	ldr	r1, [r4, #0]
 8004bf8:	b292      	uxth	r2, r2
 8004bfa:	4313      	orrs	r3, r2
 8004bfc:	60cb      	str	r3, [r1, #12]
 8004bfe:	e7d6      	b.n	8004bae <UART_SetConfig+0x17e>
 8004c00:	efff69f3 	.word	0xefff69f3
 8004c04:	40011000 	.word	0x40011000
 8004c08:	40023800 	.word	0x40023800
 8004c0c:	40004400 	.word	0x40004400
 8004c10:	40004800 	.word	0x40004800
 8004c14:	40004c00 	.word	0x40004c00
 8004c18:	40005000 	.word	0x40005000
 8004c1c:	40011400 	.word	0x40011400
 8004c20:	40007800 	.word	0x40007800
 8004c24:	40007c00 	.word	0x40007c00
 8004c28:	00f42400 	.word	0x00f42400

08004c2c <UART_AdvFeatureConfig>:
 8004c2c:	6a43      	ldr	r3, [r0, #36]	@ 0x24
 8004c2e:	071a      	lsls	r2, r3, #28
 8004c30:	b510      	push	{r4, lr}
 8004c32:	d506      	bpl.n	8004c42 <UART_AdvFeatureConfig+0x16>
 8004c34:	6801      	ldr	r1, [r0, #0]
 8004c36:	6b44      	ldr	r4, [r0, #52]	@ 0x34
 8004c38:	684a      	ldr	r2, [r1, #4]
 8004c3a:	f422 4200 	bic.w	r2, r2, #32768	@ 0x8000
 8004c3e:	4322      	orrs	r2, r4
 8004c40:	604a      	str	r2, [r1, #4]
 8004c42:	07dc      	lsls	r4, r3, #31
 8004c44:	d506      	bpl.n	8004c54 <UART_AdvFeatureConfig+0x28>
 8004c46:	6801      	ldr	r1, [r0, #0]
 8004c48:	6a84      	ldr	r4, [r0, #40]	@ 0x28
 8004c4a:	684a      	ldr	r2, [r1, #4]
 8004c4c:	f422 3200 	bic.w	r2, r2, #131072	@ 0x20000
 8004c50:	4322      	orrs	r2, r4
 8004c52:	604a      	str	r2, [r1, #4]
 8004c54:	0799      	lsls	r1, r3, #30
 8004c56:	d506      	bpl.n	8004c66 <UART_AdvFeatureConfig+0x3a>
 8004c58:	6801      	ldr	r1, [r0, #0]
 8004c5a:	6ac4      	ldr	r4, [r0, #44]	@ 0x2c
 8004c5c:	684a      	ldr	r2, [r1, #4]
 8004c5e:	f422 3280 	bic.w	r2, r2, #65536	@ 0x10000
 8004c62:	4322      	orrs	r2, r4
 8004c64:	604a      	str	r2, [r1, #4]
 8004c66:	075a      	lsls	r2, r3, #29
 8004c68:	d506      	bpl.n	8004c78 <UART_AdvFeatureConfig+0x4c>
 8004c6a:	6801      	ldr	r1, [r0, #0]
 8004c6c:	6b04      	ldr	r4, [r0, #48]	@ 0x30
 8004c6e:	684a      	ldr	r2, [r1, #4]
 8004c70:	f422 2280 	bic.w	r2, r2, #262144	@ 0x40000
 8004c74:	4322      	orrs	r2, r4
 8004c76:	604a      	str	r2, [r1, #4]
 8004c78:	06dc      	lsls	r4, r3, #27
 8004c7a:	d506      	bpl.n	8004c8a <UART_AdvFeatureConfig+0x5e>
 8004c7c:	6801      	ldr	r1, [r0, #0]
 8004c7e:	6b84      	ldr	r4, [r0, #56]	@ 0x38
 8004c80:	688a      	ldr	r2, [r1, #8]
 8004c82:	f422 5280 	bic.w	r2, r2, #4096	@ 0x1000
 8004c86:	4322      	orrs	r2, r4
 8004c88:	608a      	str	r2, [r1, #8]
 8004c8a:	0699      	lsls	r1, r3, #26
 8004c8c:	d506      	bpl.n	8004c9c <UART_AdvFeatureConfig+0x70>
 8004c8e:	6801      	ldr	r1, [r0, #0]
 8004c90:	6bc4      	ldr	r4, [r0, #60]	@ 0x3c
 8004c92:	688a      	ldr	r2, [r1, #8]
 8004c94:	f422 5200 	bic.w	r2, r2, #8192	@ 0x2000
 8004c98:	4322      	orrs	r2, r4
 8004c9a:	608a      	str	r2, [r1, #8]
 8004c9c:	065a      	lsls	r2, r3, #25
 8004c9e:	d510      	bpl.n	8004cc2 <UART_AdvFeatureConfig+0x96>
 8004ca0:	6801      	ldr	r1, [r0, #0]
 8004ca2:	6c04      	ldr	r4, [r0, #64]	@ 0x40
 8004ca4:	684a      	ldr	r2, [r1, #4]
 8004ca6:	f5b4 1f80 	cmp.w	r4, #1048576	@ 0x100000
 8004caa:	f422 1280 	bic.w	r2, r2, #1048576	@ 0x100000
 8004cae:	ea42 0204 	orr.w	r2, r2, r4
 8004cb2:	604a      	str	r2, [r1, #4]
 8004cb4:	d105      	bne.n	8004cc2 <UART_AdvFeatureConfig+0x96>
 8004cb6:	684a      	ldr	r2, [r1, #4]
 8004cb8:	6c44      	ldr	r4, [r0, #68]	@ 0x44
 8004cba:	f422 02c0 	bic.w	r2, r2, #6291456	@ 0x600000
 8004cbe:	4322      	orrs	r2, r4
 8004cc0:	604a      	str	r2, [r1, #4]
 8004cc2:	061b      	lsls	r3, r3, #24
 8004cc4:	d506      	bpl.n	8004cd4 <UART_AdvFeatureConfig+0xa8>
 8004cc6:	6802      	ldr	r2, [r0, #0]
 8004cc8:	6c81      	ldr	r1, [r0, #72]	@ 0x48
 8004cca:	6853      	ldr	r3, [r2, #4]
 8004ccc:	f423 2300 	bic.w	r3, r3, #524288	@ 0x80000
 8004cd0:	430b      	orrs	r3, r1
 8004cd2:	6053      	str	r3, [r2, #4]
 8004cd4:	bd10      	pop	{r4, pc}

08004cd6 <UART_WaitOnFlagUntilTimeout>:
 8004cd6:	e92d 43f8 	stmdb	sp!, {r3, r4, r5, r6, r7, r8, r9, lr}
 8004cda:	f8dd 9020 	ldr.w	r9, [sp, #32]
 8004cde:	4604      	mov	r4, r0
 8004ce0:	460d      	mov	r5, r1
 8004ce2:	4617      	mov	r7, r2
 8004ce4:	4698      	mov	r8, r3
 8004ce6:	6822      	ldr	r2, [r4, #0]
 8004ce8:	69d3      	ldr	r3, [r2, #28]
 8004cea:	ea35 0303 	bics.w	r3, r5, r3
 8004cee:	bf0c      	ite	eq
 8004cf0:	2301      	moveq	r3, #1
 8004cf2:	2300      	movne	r3, #0
 8004cf4:	42bb      	cmp	r3, r7
 8004cf6:	d001      	beq.n	8004cfc <UART_WaitOnFlagUntilTimeout+0x26>
 8004cf8:	2000      	movs	r0, #0
 8004cfa:	e022      	b.n	8004d42 <UART_WaitOnFlagUntilTimeout+0x6c>
 8004cfc:	f1b9 3fff 	cmp.w	r9, #4294967295
 8004d00:	d0f2      	beq.n	8004ce8 <UART_WaitOnFlagUntilTimeout+0x12>
 8004d02:	f7fd fcab 	bl	800265c <HAL_GetTick>
 8004d06:	eba0 0008 	sub.w	r0, r0, r8
 8004d0a:	4548      	cmp	r0, r9
 8004d0c:	d829      	bhi.n	8004d62 <UART_WaitOnFlagUntilTimeout+0x8c>
 8004d0e:	f1b9 0f00 	cmp.w	r9, #0
 8004d12:	d026      	beq.n	8004d62 <UART_WaitOnFlagUntilTimeout+0x8c>
 8004d14:	6821      	ldr	r1, [r4, #0]
 8004d16:	680b      	ldr	r3, [r1, #0]
 8004d18:	075a      	lsls	r2, r3, #29
 8004d1a:	d5e4      	bpl.n	8004ce6 <UART_WaitOnFlagUntilTimeout+0x10>
 8004d1c:	2d80      	cmp	r5, #128	@ 0x80
 8004d1e:	d0e2      	beq.n	8004ce6 <UART_WaitOnFlagUntilTimeout+0x10>
 8004d20:	2d40      	cmp	r5, #64	@ 0x40
 8004d22:	d0e0      	beq.n	8004ce6 <UART_WaitOnFlagUntilTimeout+0x10>
 8004d24:	69ce      	ldr	r6, [r1, #28]
 8004d26:	f016 0608 	ands.w	r6, r6, #8
 8004d2a:	d00c      	beq.n	8004d46 <UART_WaitOnFlagUntilTimeout+0x70>
 8004d2c:	2508      	movs	r5, #8
 8004d2e:	4620      	mov	r0, r4
 8004d30:	620d      	str	r5, [r1, #32]
 8004d32:	f7ff fcf6 	bl	8004722 <UART_EndRxTransfer>
 8004d36:	2300      	movs	r3, #0
 8004d38:	2001      	movs	r0, #1
 8004d3a:	f8c4 5084 	str.w	r5, [r4, #132]	@ 0x84
 8004d3e:	f884 3078 	strb.w	r3, [r4, #120]	@ 0x78
 8004d42:	e8bd 83f8 	ldmia.w	sp!, {r3, r4, r5, r6, r7, r8, r9, pc}
 8004d46:	69cb      	ldr	r3, [r1, #28]
 8004d48:	051b      	lsls	r3, r3, #20
 8004d4a:	d5cc      	bpl.n	8004ce6 <UART_WaitOnFlagUntilTimeout+0x10>
 8004d4c:	f44f 6300 	mov.w	r3, #2048	@ 0x800
 8004d50:	4620      	mov	r0, r4
 8004d52:	620b      	str	r3, [r1, #32]
 8004d54:	f7ff fce5 	bl	8004722 <UART_EndRxTransfer>
 8004d58:	2320      	movs	r3, #32
 8004d5a:	f884 6078 	strb.w	r6, [r4, #120]	@ 0x78
 8004d5e:	f8c4 3084 	str.w	r3, [r4, #132]	@ 0x84
 8004d62:	2003      	movs	r0, #3
 8004d64:	e7ed      	b.n	8004d42 <UART_WaitOnFlagUntilTimeout+0x6c>

08004d66 <HAL_UART_Transmit>:
 8004d66:	e92d 43f7 	stmdb	sp!, {r0, r1, r2, r4, r5, r6, r7, r8, r9, lr}
 8004d6a:	4698      	mov	r8, r3
 8004d6c:	6fc3      	ldr	r3, [r0, #124]	@ 0x7c
 8004d6e:	4604      	mov	r4, r0
 8004d70:	460e      	mov	r6, r1
 8004d72:	2b20      	cmp	r3, #32
 8004d74:	4617      	mov	r7, r2
 8004d76:	d143      	bne.n	8004e00 <HAL_UART_Transmit+0x9a>
 8004d78:	2900      	cmp	r1, #0
 8004d7a:	d043      	beq.n	8004e04 <HAL_UART_Transmit+0x9e>
 8004d7c:	2a00      	cmp	r2, #0
 8004d7e:	d041      	beq.n	8004e04 <HAL_UART_Transmit+0x9e>
 8004d80:	2321      	movs	r3, #33	@ 0x21
 8004d82:	2500      	movs	r5, #0
 8004d84:	f8c0 5084 	str.w	r5, [r0, #132]	@ 0x84
 8004d88:	67c3      	str	r3, [r0, #124]	@ 0x7c
 8004d8a:	f7fd fc67 	bl	800265c <HAL_GetTick>
 8004d8e:	68a3      	ldr	r3, [r4, #8]
 8004d90:	4681      	mov	r9, r0
 8004d92:	f8a4 7050 	strh.w	r7, [r4, #80]	@ 0x50
 8004d96:	f5b3 5f80 	cmp.w	r3, #4096	@ 0x1000
 8004d9a:	f8a4 7052 	strh.w	r7, [r4, #82]	@ 0x52
 8004d9e:	d103      	bne.n	8004da8 <HAL_UART_Transmit+0x42>
 8004da0:	6923      	ldr	r3, [r4, #16]
 8004da2:	b90b      	cbnz	r3, 8004da8 <HAL_UART_Transmit+0x42>
 8004da4:	4635      	mov	r5, r6
 8004da6:	461e      	mov	r6, r3
 8004da8:	f8b4 2052 	ldrh.w	r2, [r4, #82]	@ 0x52
 8004dac:	464b      	mov	r3, r9
 8004dae:	f8cd 8000 	str.w	r8, [sp]
 8004db2:	b292      	uxth	r2, r2
 8004db4:	b93a      	cbnz	r2, 8004dc6 <HAL_UART_Transmit+0x60>
 8004db6:	2140      	movs	r1, #64	@ 0x40
 8004db8:	4620      	mov	r0, r4
 8004dba:	f7ff ff8c 	bl	8004cd6 <UART_WaitOnFlagUntilTimeout>
 8004dbe:	2320      	movs	r3, #32
 8004dc0:	b940      	cbnz	r0, 8004dd4 <HAL_UART_Transmit+0x6e>
 8004dc2:	67e3      	str	r3, [r4, #124]	@ 0x7c
 8004dc4:	e008      	b.n	8004dd8 <HAL_UART_Transmit+0x72>
 8004dc6:	2200      	movs	r2, #0
 8004dc8:	2180      	movs	r1, #128	@ 0x80
 8004dca:	4620      	mov	r0, r4
 8004dcc:	f7ff ff83 	bl	8004cd6 <UART_WaitOnFlagUntilTimeout>
 8004dd0:	b128      	cbz	r0, 8004dde <HAL_UART_Transmit+0x78>
 8004dd2:	2320      	movs	r3, #32
 8004dd4:	2003      	movs	r0, #3
 8004dd6:	67e3      	str	r3, [r4, #124]	@ 0x7c
 8004dd8:	b003      	add	sp, #12
 8004dda:	e8bd 83f0 	ldmia.w	sp!, {r4, r5, r6, r7, r8, r9, pc}
 8004dde:	6822      	ldr	r2, [r4, #0]
 8004de0:	b95e      	cbnz	r6, 8004dfa <HAL_UART_Transmit+0x94>
 8004de2:	f835 3b02 	ldrh.w	r3, [r5], #2
 8004de6:	f3c3 0308 	ubfx	r3, r3, #0, #9
 8004dea:	6293      	str	r3, [r2, #40]	@ 0x28
 8004dec:	f8b4 2052 	ldrh.w	r2, [r4, #82]	@ 0x52
 8004df0:	3a01      	subs	r2, #1
 8004df2:	b292      	uxth	r2, r2
 8004df4:	f8a4 2052 	strh.w	r2, [r4, #82]	@ 0x52
 8004df8:	e7d6      	b.n	8004da8 <HAL_UART_Transmit+0x42>
 8004dfa:	f816 3b01 	ldrb.w	r3, [r6], #1
 8004dfe:	e7f4      	b.n	8004dea <HAL_UART_Transmit+0x84>
 8004e00:	2002      	movs	r0, #2
 8004e02:	e7e9      	b.n	8004dd8 <HAL_UART_Transmit+0x72>
 8004e04:	2001      	movs	r0, #1
 8004e06:	e7e7      	b.n	8004dd8 <HAL_UART_Transmit+0x72>

08004e08 <HAL_UART_Receive>:
 8004e08:	e92d 43f7 	stmdb	sp!, {r0, r1, r2, r4, r5, r6, r7, r8, r9, lr}
 8004e0c:	4698      	mov	r8, r3
 8004e0e:	f8d0 3080 	ldr.w	r3, [r0, #128]	@ 0x80
 8004e12:	4604      	mov	r4, r0
 8004e14:	460f      	mov	r7, r1
 8004e16:	2b20      	cmp	r3, #32
 8004e18:	4616      	mov	r6, r2
 8004e1a:	d15c      	bne.n	8004ed6 <HAL_UART_Receive+0xce>
 8004e1c:	2900      	cmp	r1, #0
 8004e1e:	d05c      	beq.n	8004eda <HAL_UART_Receive+0xd2>
 8004e20:	2a00      	cmp	r2, #0
 8004e22:	d05a      	beq.n	8004eda <HAL_UART_Receive+0xd2>
 8004e24:	2322      	movs	r3, #34	@ 0x22
 8004e26:	2500      	movs	r5, #0
 8004e28:	f8c0 5084 	str.w	r5, [r0, #132]	@ 0x84
 8004e2c:	f8c0 3080 	str.w	r3, [r0, #128]	@ 0x80
 8004e30:	6605      	str	r5, [r0, #96]	@ 0x60
 8004e32:	f7fd fc13 	bl	800265c <HAL_GetTick>
 8004e36:	68a3      	ldr	r3, [r4, #8]
 8004e38:	4681      	mov	r9, r0
 8004e3a:	f8a4 6058 	strh.w	r6, [r4, #88]	@ 0x58
 8004e3e:	f5b3 5f80 	cmp.w	r3, #4096	@ 0x1000
 8004e42:	f8a4 605a 	strh.w	r6, [r4, #90]	@ 0x5a
 8004e46:	d10d      	bne.n	8004e64 <HAL_UART_Receive+0x5c>
 8004e48:	6923      	ldr	r3, [r4, #16]
 8004e4a:	b1db      	cbz	r3, 8004e84 <HAL_UART_Receive+0x7c>
 8004e4c:	22ff      	movs	r2, #255	@ 0xff
 8004e4e:	4616      	mov	r6, r2
 8004e50:	f8a4 205c 	strh.w	r2, [r4, #92]	@ 0x5c
 8004e54:	f8b4 005a 	ldrh.w	r0, [r4, #90]	@ 0x5a
 8004e58:	b280      	uxth	r0, r0
 8004e5a:	b9e0      	cbnz	r0, 8004e96 <HAL_UART_Receive+0x8e>
 8004e5c:	2320      	movs	r3, #32
 8004e5e:	f8c4 3080 	str.w	r3, [r4, #128]	@ 0x80
 8004e62:	e025      	b.n	8004eb0 <HAL_UART_Receive+0xa8>
 8004e64:	b933      	cbnz	r3, 8004e74 <HAL_UART_Receive+0x6c>
 8004e66:	6925      	ldr	r5, [r4, #16]
 8004e68:	2d00      	cmp	r5, #0
 8004e6a:	d0ef      	beq.n	8004e4c <HAL_UART_Receive+0x44>
 8004e6c:	227f      	movs	r2, #127	@ 0x7f
 8004e6e:	461d      	mov	r5, r3
 8004e70:	4616      	mov	r6, r2
 8004e72:	e7ed      	b.n	8004e50 <HAL_UART_Receive+0x48>
 8004e74:	f1b3 5f80 	cmp.w	r3, #268435456	@ 0x10000000
 8004e78:	d10a      	bne.n	8004e90 <HAL_UART_Receive+0x88>
 8004e7a:	6923      	ldr	r3, [r4, #16]
 8004e7c:	2b00      	cmp	r3, #0
 8004e7e:	d0f5      	beq.n	8004e6c <HAL_UART_Receive+0x64>
 8004e80:	223f      	movs	r2, #63	@ 0x3f
 8004e82:	e7e4      	b.n	8004e4e <HAL_UART_Receive+0x46>
 8004e84:	f240 12ff 	movw	r2, #511	@ 0x1ff
 8004e88:	463d      	mov	r5, r7
 8004e8a:	461f      	mov	r7, r3
 8004e8c:	4616      	mov	r6, r2
 8004e8e:	e7df      	b.n	8004e50 <HAL_UART_Receive+0x48>
 8004e90:	462a      	mov	r2, r5
 8004e92:	462e      	mov	r6, r5
 8004e94:	e7dc      	b.n	8004e50 <HAL_UART_Receive+0x48>
 8004e96:	464b      	mov	r3, r9
 8004e98:	2200      	movs	r2, #0
 8004e9a:	2120      	movs	r1, #32
 8004e9c:	4620      	mov	r0, r4
 8004e9e:	f8cd 8000 	str.w	r8, [sp]
 8004ea2:	f7ff ff18 	bl	8004cd6 <UART_WaitOnFlagUntilTimeout>
 8004ea6:	b130      	cbz	r0, 8004eb6 <HAL_UART_Receive+0xae>
 8004ea8:	2320      	movs	r3, #32
 8004eaa:	2003      	movs	r0, #3
 8004eac:	f8c4 3080 	str.w	r3, [r4, #128]	@ 0x80
 8004eb0:	b003      	add	sp, #12
 8004eb2:	e8bd 83f0 	ldmia.w	sp!, {r4, r5, r6, r7, r8, r9, pc}
 8004eb6:	6823      	ldr	r3, [r4, #0]
 8004eb8:	6a5b      	ldr	r3, [r3, #36]	@ 0x24
 8004eba:	4033      	ands	r3, r6
 8004ebc:	b947      	cbnz	r7, 8004ed0 <HAL_UART_Receive+0xc8>
 8004ebe:	f825 3b02 	strh.w	r3, [r5], #2
 8004ec2:	f8b4 305a 	ldrh.w	r3, [r4, #90]	@ 0x5a
 8004ec6:	3b01      	subs	r3, #1
 8004ec8:	b29b      	uxth	r3, r3
 8004eca:	f8a4 305a 	strh.w	r3, [r4, #90]	@ 0x5a
 8004ece:	e7c1      	b.n	8004e54 <HAL_UART_Receive+0x4c>
 8004ed0:	f807 3b01 	strb.w	r3, [r7], #1
 8004ed4:	e7f5      	b.n	8004ec2 <HAL_UART_Receive+0xba>
 8004ed6:	2002      	movs	r0, #2
 8004ed8:	e7ea      	b.n	8004eb0 <HAL_UART_Receive+0xa8>
 8004eda:	2001      	movs	r0, #1
 8004edc:	e7e8      	b.n	8004eb0 <HAL_UART_Receive+0xa8>

08004ede <UART_CheckIdleState>:
 8004ede:	b573      	push	{r0, r1, r4, r5, r6, lr}
 8004ee0:	2600      	movs	r6, #0
 8004ee2:	4604      	mov	r4, r0
 8004ee4:	f8c0 6084 	str.w	r6, [r0, #132]	@ 0x84
 8004ee8:	f7fd fbb8 	bl	800265c <HAL_GetTick>
 8004eec:	6823      	ldr	r3, [r4, #0]
 8004eee:	4605      	mov	r5, r0
 8004ef0:	681b      	ldr	r3, [r3, #0]
 8004ef2:	071a      	lsls	r2, r3, #28
 8004ef4:	d51b      	bpl.n	8004f2e <UART_CheckIdleState+0x50>
 8004ef6:	f06f 437e 	mvn.w	r3, #4261412864	@ 0xfe000000
 8004efa:	4632      	mov	r2, r6
 8004efc:	f44f 1100 	mov.w	r1, #2097152	@ 0x200000
 8004f00:	9300      	str	r3, [sp, #0]
 8004f02:	4603      	mov	r3, r0
 8004f04:	4620      	mov	r0, r4
 8004f06:	f7ff fee6 	bl	8004cd6 <UART_WaitOnFlagUntilTimeout>
 8004f0a:	b180      	cbz	r0, 8004f2e <UART_CheckIdleState+0x50>
 8004f0c:	6822      	ldr	r2, [r4, #0]
 8004f0e:	e852 3f00 	ldrex	r3, [r2]
 8004f12:	f023 0380 	bic.w	r3, r3, #128	@ 0x80
 8004f16:	e842 3100 	strex	r1, r3, [r2]
 8004f1a:	2900      	cmp	r1, #0
 8004f1c:	d1f6      	bne.n	8004f0c <UART_CheckIdleState+0x2e>
 8004f1e:	2320      	movs	r3, #32
 8004f20:	67e3      	str	r3, [r4, #124]	@ 0x7c
 8004f22:	2003      	movs	r0, #3
 8004f24:	2300      	movs	r3, #0
 8004f26:	f884 3078 	strb.w	r3, [r4, #120]	@ 0x78
 8004f2a:	b002      	add	sp, #8
 8004f2c:	bd70      	pop	{r4, r5, r6, pc}
 8004f2e:	6823      	ldr	r3, [r4, #0]
 8004f30:	681b      	ldr	r3, [r3, #0]
 8004f32:	075b      	lsls	r3, r3, #29
 8004f34:	d524      	bpl.n	8004f80 <UART_CheckIdleState+0xa2>
 8004f36:	f06f 437e 	mvn.w	r3, #4261412864	@ 0xfe000000
 8004f3a:	2200      	movs	r2, #0
 8004f3c:	f44f 0180 	mov.w	r1, #4194304	@ 0x400000
 8004f40:	4620      	mov	r0, r4
 8004f42:	9300      	str	r3, [sp, #0]
 8004f44:	462b      	mov	r3, r5
 8004f46:	f7ff fec6 	bl	8004cd6 <UART_WaitOnFlagUntilTimeout>
 8004f4a:	b1c8      	cbz	r0, 8004f80 <UART_CheckIdleState+0xa2>
 8004f4c:	6822      	ldr	r2, [r4, #0]
 8004f4e:	e852 3f00 	ldrex	r3, [r2]
 8004f52:	f423 7390 	bic.w	r3, r3, #288	@ 0x120
 8004f56:	e842 3100 	strex	r1, r3, [r2]
 8004f5a:	6822      	ldr	r2, [r4, #0]
 8004f5c:	2900      	cmp	r1, #0
 8004f5e:	d1f5      	bne.n	8004f4c <UART_CheckIdleState+0x6e>
 8004f60:	f102 0308 	add.w	r3, r2, #8
 8004f64:	e853 3f00 	ldrex	r3, [r3]
 8004f68:	f023 0301 	bic.w	r3, r3, #1
 8004f6c:	f102 0008 	add.w	r0, r2, #8
 8004f70:	e840 3100 	strex	r1, r3, [r0]
 8004f74:	2900      	cmp	r1, #0
 8004f76:	d1f3      	bne.n	8004f60 <UART_CheckIdleState+0x82>
 8004f78:	2320      	movs	r3, #32
 8004f7a:	f8c4 3080 	str.w	r3, [r4, #128]	@ 0x80
 8004f7e:	e7d0      	b.n	8004f22 <UART_CheckIdleState+0x44>
 8004f80:	2320      	movs	r3, #32
 8004f82:	2000      	movs	r0, #0
 8004f84:	67e3      	str	r3, [r4, #124]	@ 0x7c
 8004f86:	f8c4 3080 	str.w	r3, [r4, #128]	@ 0x80
 8004f8a:	6620      	str	r0, [r4, #96]	@ 0x60
 8004f8c:	6660      	str	r0, [r4, #100]	@ 0x64
 8004f8e:	e7c9      	b.n	8004f24 <UART_CheckIdleState+0x46>

08004f90 <HAL_UART_Init>:
 8004f90:	b510      	push	{r4, lr}
 8004f92:	4604      	mov	r4, r0
 8004f94:	b340      	cbz	r0, 8004fe8 <HAL_UART_Init+0x58>
 8004f96:	6fc3      	ldr	r3, [r0, #124]	@ 0x7c
 8004f98:	b91b      	cbnz	r3, 8004fa2 <HAL_UART_Init+0x12>
 8004f9a:	f880 3078 	strb.w	r3, [r0, #120]	@ 0x78
 8004f9e:	f7fc fe67 	bl	8001c70 <HAL_UART_MspInit>
 8004fa2:	2324      	movs	r3, #36	@ 0x24
 8004fa4:	6822      	ldr	r2, [r4, #0]
 8004fa6:	67e3      	str	r3, [r4, #124]	@ 0x7c
 8004fa8:	6813      	ldr	r3, [r2, #0]
 8004faa:	f023 0301 	bic.w	r3, r3, #1
 8004fae:	6013      	str	r3, [r2, #0]
 8004fb0:	6a63      	ldr	r3, [r4, #36]	@ 0x24
 8004fb2:	b113      	cbz	r3, 8004fba <HAL_UART_Init+0x2a>
 8004fb4:	4620      	mov	r0, r4
 8004fb6:	f7ff fe39 	bl	8004c2c <UART_AdvFeatureConfig>
 8004fba:	4620      	mov	r0, r4
 8004fbc:	f7ff fd38 	bl	8004a30 <UART_SetConfig>
 8004fc0:	2801      	cmp	r0, #1
 8004fc2:	d011      	beq.n	8004fe8 <HAL_UART_Init+0x58>
 8004fc4:	6823      	ldr	r3, [r4, #0]
 8004fc6:	4620      	mov	r0, r4
 8004fc8:	685a      	ldr	r2, [r3, #4]
 8004fca:	f422 4290 	bic.w	r2, r2, #18432	@ 0x4800
 8004fce:	605a      	str	r2, [r3, #4]
 8004fd0:	689a      	ldr	r2, [r3, #8]
 8004fd2:	f022 022a 	bic.w	r2, r2, #42	@ 0x2a
 8004fd6:	609a      	str	r2, [r3, #8]
 8004fd8:	681a      	ldr	r2, [r3, #0]
 8004fda:	f042 0201 	orr.w	r2, r2, #1
 8004fde:	e8bd 4010 	ldmia.w	sp!, {r4, lr}
 8004fe2:	601a      	str	r2, [r3, #0]
 8004fe4:	f7ff bf7b 	b.w	8004ede <UART_CheckIdleState>
 8004fe8:	2001      	movs	r0, #1
 8004fea:	bd10      	pop	{r4, pc}

08004fec <USB_CoreReset>:
 8004fec:	b082      	sub	sp, #8
 8004fee:	2300      	movs	r3, #0
 8004ff0:	4602      	mov	r2, r0
 8004ff2:	9301      	str	r3, [sp, #4]
 8004ff4:	9b01      	ldr	r3, [sp, #4]
 8004ff6:	3301      	adds	r3, #1
 8004ff8:	9301      	str	r3, [sp, #4]
 8004ffa:	9b01      	ldr	r3, [sp, #4]
 8004ffc:	f1b3 6f70 	cmp.w	r3, #251658240	@ 0xf000000
 8005000:	d815      	bhi.n	800502e <USB_CoreReset+0x42>
 8005002:	6913      	ldr	r3, [r2, #16]
 8005004:	2b00      	cmp	r3, #0
 8005006:	daf5      	bge.n	8004ff4 <USB_CoreReset+0x8>
 8005008:	2300      	movs	r3, #0
 800500a:	9301      	str	r3, [sp, #4]
 800500c:	6913      	ldr	r3, [r2, #16]
 800500e:	f043 0301 	orr.w	r3, r3, #1
 8005012:	6113      	str	r3, [r2, #16]
 8005014:	9b01      	ldr	r3, [sp, #4]
 8005016:	3301      	adds	r3, #1
 8005018:	9301      	str	r3, [sp, #4]
 800501a:	9b01      	ldr	r3, [sp, #4]
 800501c:	f1b3 6f70 	cmp.w	r3, #251658240	@ 0xf000000
 8005020:	d805      	bhi.n	800502e <USB_CoreReset+0x42>
 8005022:	6910      	ldr	r0, [r2, #16]
 8005024:	f010 0001 	ands.w	r0, r0, #1
 8005028:	d1f4      	bne.n	8005014 <USB_CoreReset+0x28>
 800502a:	b002      	add	sp, #8
 800502c:	4770      	bx	lr
 800502e:	2003      	movs	r0, #3
 8005030:	e7fb      	b.n	800502a <USB_CoreReset+0x3e>

08005032 <USB_CoreInit>:
 8005032:	b084      	sub	sp, #16
 8005034:	b538      	push	{r3, r4, r5, lr}
 8005036:	ad05      	add	r5, sp, #20
 8005038:	4604      	mov	r4, r0
 800503a:	e885 000e 	stmia.w	r5, {r1, r2, r3}
 800503e:	f89d 3019 	ldrb.w	r3, [sp, #25]
 8005042:	2b01      	cmp	r3, #1
 8005044:	d128      	bne.n	8005098 <USB_CoreInit+0x66>
 8005046:	6b83      	ldr	r3, [r0, #56]	@ 0x38
 8005048:	f423 3380 	bic.w	r3, r3, #65536	@ 0x10000
 800504c:	6383      	str	r3, [r0, #56]	@ 0x38
 800504e:	68c3      	ldr	r3, [r0, #12]
 8005050:	f423 0384 	bic.w	r3, r3, #4325376	@ 0x420000
 8005054:	f023 0340 	bic.w	r3, r3, #64	@ 0x40
 8005058:	60c3      	str	r3, [r0, #12]
 800505a:	68c3      	ldr	r3, [r0, #12]
 800505c:	f423 1340 	bic.w	r3, r3, #3145728	@ 0x300000
 8005060:	60c3      	str	r3, [r0, #12]
 8005062:	f89d 3020 	ldrb.w	r3, [sp, #32]
 8005066:	2b01      	cmp	r3, #1
 8005068:	d103      	bne.n	8005072 <USB_CoreInit+0x40>
 800506a:	68c3      	ldr	r3, [r0, #12]
 800506c:	f443 1380 	orr.w	r3, r3, #1048576	@ 0x100000
 8005070:	60c3      	str	r3, [r0, #12]
 8005072:	4620      	mov	r0, r4
 8005074:	f7ff ffba 	bl	8004fec <USB_CoreReset>
 8005078:	f89d 3016 	ldrb.w	r3, [sp, #22]
 800507c:	2b01      	cmp	r3, #1
 800507e:	d107      	bne.n	8005090 <USB_CoreInit+0x5e>
 8005080:	68a3      	ldr	r3, [r4, #8]
 8005082:	f043 0306 	orr.w	r3, r3, #6
 8005086:	60a3      	str	r3, [r4, #8]
 8005088:	68a3      	ldr	r3, [r4, #8]
 800508a:	f043 0320 	orr.w	r3, r3, #32
 800508e:	60a3      	str	r3, [r4, #8]
 8005090:	e8bd 4038 	ldmia.w	sp!, {r3, r4, r5, lr}
 8005094:	b004      	add	sp, #16
 8005096:	4770      	bx	lr
 8005098:	68c3      	ldr	r3, [r0, #12]
 800509a:	f043 0340 	orr.w	r3, r3, #64	@ 0x40
 800509e:	60c3      	str	r3, [r0, #12]
 80050a0:	f7ff ffa4 	bl	8004fec <USB_CoreReset>
 80050a4:	6ba3      	ldr	r3, [r4, #56]	@ 0x38
 80050a6:	f443 3380 	orr.w	r3, r3, #65536	@ 0x10000
 80050aa:	63a3      	str	r3, [r4, #56]	@ 0x38
 80050ac:	e7e4      	b.n	8005078 <USB_CoreInit+0x46>

080050ae <USB_DisableGlobalInt>:
 80050ae:	6883      	ldr	r3, [r0, #8]
 80050b0:	f023 0301 	bic.w	r3, r3, #1
 80050b4:	6083      	str	r3, [r0, #8]
 80050b6:	2000      	movs	r0, #0
 80050b8:	4770      	bx	lr

080050ba <USB_SetCurrentMode>:
 80050ba:	b538      	push	{r3, r4, r5, lr}
 80050bc:	68c3      	ldr	r3, [r0, #12]
 80050be:	2901      	cmp	r1, #1
 80050c0:	4605      	mov	r5, r0
 80050c2:	460c      	mov	r4, r1
 80050c4:	f023 43c0 	bic.w	r3, r3, #1610612736	@ 0x60000000
 80050c8:	60c3      	str	r3, [r0, #12]
 80050ca:	d113      	bne.n	80050f4 <USB_SetCurrentMode+0x3a>
 80050cc:	68c3      	ldr	r3, [r0, #12]
 80050ce:	2400      	movs	r4, #0
 80050d0:	f043 5300 	orr.w	r3, r3, #536870912	@ 0x20000000
 80050d4:	60c3      	str	r3, [r0, #12]
 80050d6:	200a      	movs	r0, #10
 80050d8:	340a      	adds	r4, #10
 80050da:	f7fd fac5 	bl	8002668 <HAL_Delay>
 80050de:	696b      	ldr	r3, [r5, #20]
 80050e0:	07d9      	lsls	r1, r3, #31
 80050e2:	d402      	bmi.n	80050ea <USB_SetCurrentMode+0x30>
 80050e4:	2cc8      	cmp	r4, #200	@ 0xc8
 80050e6:	d1f6      	bne.n	80050d6 <USB_SetCurrentMode+0x1c>
 80050e8:	24c8      	movs	r4, #200	@ 0xc8
 80050ea:	f1a4 03c8 	sub.w	r3, r4, #200	@ 0xc8
 80050ee:	4258      	negs	r0, r3
 80050f0:	4158      	adcs	r0, r3
 80050f2:	bd38      	pop	{r3, r4, r5, pc}
 80050f4:	b969      	cbnz	r1, 8005112 <USB_SetCurrentMode+0x58>
 80050f6:	68c3      	ldr	r3, [r0, #12]
 80050f8:	f043 4380 	orr.w	r3, r3, #1073741824	@ 0x40000000
 80050fc:	60c3      	str	r3, [r0, #12]
 80050fe:	200a      	movs	r0, #10
 8005100:	340a      	adds	r4, #10
 8005102:	f7fd fab1 	bl	8002668 <HAL_Delay>
 8005106:	696b      	ldr	r3, [r5, #20]
 8005108:	07da      	lsls	r2, r3, #31
 800510a:	d5ee      	bpl.n	80050ea <USB_SetCurrentMode+0x30>
 800510c:	2cc8      	cmp	r4, #200	@ 0xc8
 800510e:	d1f6      	bne.n	80050fe <USB_SetCurrentMode+0x44>
 8005110:	e7ea      	b.n	80050e8 <USB_SetCurrentMode+0x2e>
 8005112:	2001      	movs	r0, #1
 8005114:	e7ed      	b.n	80050f2 <USB_SetCurrentMode+0x38>

08005116 <USB_FlushTxFifo>:
 8005116:	b082      	sub	sp, #8
 8005118:	2300      	movs	r3, #0
 800511a:	4602      	mov	r2, r0
 800511c:	9301      	str	r3, [sp, #4]
 800511e:	9b01      	ldr	r3, [sp, #4]
 8005120:	3301      	adds	r3, #1
 8005122:	9301      	str	r3, [sp, #4]
 8005124:	9b01      	ldr	r3, [sp, #4]
 8005126:	f1b3 6f70 	cmp.w	r3, #251658240	@ 0xf000000
 800512a:	d815      	bhi.n	8005158 <USB_FlushTxFifo+0x42>
 800512c:	6913      	ldr	r3, [r2, #16]
 800512e:	2b00      	cmp	r3, #0
 8005130:	daf5      	bge.n	800511e <USB_FlushTxFifo+0x8>
 8005132:	0189      	lsls	r1, r1, #6
 8005134:	2300      	movs	r3, #0
 8005136:	f041 0120 	orr.w	r1, r1, #32
 800513a:	9301      	str	r3, [sp, #4]
 800513c:	6111      	str	r1, [r2, #16]
 800513e:	9b01      	ldr	r3, [sp, #4]
 8005140:	3301      	adds	r3, #1
 8005142:	9301      	str	r3, [sp, #4]
 8005144:	9b01      	ldr	r3, [sp, #4]
 8005146:	f1b3 6f70 	cmp.w	r3, #251658240	@ 0xf000000
 800514a:	d805      	bhi.n	8005158 <USB_FlushTxFifo+0x42>
 800514c:	6910      	ldr	r0, [r2, #16]
 800514e:	f010 0020 	ands.w	r0, r0, #32
 8005152:	d1f4      	bne.n	800513e <USB_FlushTxFifo+0x28>
 8005154:	b002      	add	sp, #8
 8005156:	4770      	bx	lr
 8005158:	2003      	movs	r0, #3
 800515a:	e7fb      	b.n	8005154 <USB_FlushTxFifo+0x3e>

0800515c <USB_FlushRxFifo>:
 800515c:	b082      	sub	sp, #8
 800515e:	2300      	movs	r3, #0
 8005160:	4602      	mov	r2, r0
 8005162:	9301      	str	r3, [sp, #4]
 8005164:	9b01      	ldr	r3, [sp, #4]
 8005166:	3301      	adds	r3, #1
 8005168:	9301      	str	r3, [sp, #4]
 800516a:	9b01      	ldr	r3, [sp, #4]
 800516c:	f1b3 6f70 	cmp.w	r3, #251658240	@ 0xf000000
 8005170:	d813      	bhi.n	800519a <USB_FlushRxFifo+0x3e>
 8005172:	6913      	ldr	r3, [r2, #16]
 8005174:	2b00      	cmp	r3, #0
 8005176:	daf5      	bge.n	8005164 <USB_FlushRxFifo+0x8>
 8005178:	2300      	movs	r3, #0
 800517a:	9301      	str	r3, [sp, #4]
 800517c:	2310      	movs	r3, #16
 800517e:	6113      	str	r3, [r2, #16]
 8005180:	9b01      	ldr	r3, [sp, #4]
 8005182:	3301      	adds	r3, #1
 8005184:	9301      	str	r3, [sp, #4]
 8005186:	9b01      	ldr	r3, [sp, #4]
 8005188:	f1b3 6f70 	cmp.w	r3, #251658240	@ 0xf000000
 800518c:	d805      	bhi.n	800519a <USB_FlushRxFifo+0x3e>
 800518e:	6910      	ldr	r0, [r2, #16]
 8005190:	f010 0010 	ands.w	r0, r0, #16
 8005194:	d1f4      	bne.n	8005180 <USB_FlushRxFifo+0x24>
 8005196:	b002      	add	sp, #8
 8005198:	4770      	bx	lr
 800519a:	2003      	movs	r0, #3
 800519c:	e7fb      	b.n	8005196 <USB_FlushRxFifo+0x3a>

0800519e <USB_SetDevSpeed>:
 800519e:	f8d0 3800 	ldr.w	r3, [r0, #2048]	@ 0x800
 80051a2:	4319      	orrs	r1, r3
 80051a4:	f8c0 1800 	str.w	r1, [r0, #2048]	@ 0x800
 80051a8:	2000      	movs	r0, #0
 80051aa:	4770      	bx	lr

080051ac <USB_DevInit>:
 80051ac:	b084      	sub	sp, #16
 80051ae:	e92d 43f8 	stmdb	sp!, {r3, r4, r5, r6, r7, r8, r9, lr}
 80051b2:	4604      	mov	r4, r0
 80051b4:	a809      	add	r0, sp, #36	@ 0x24
 80051b6:	e880 000e 	stmia.w	r0, {r1, r2, r3}
 80051ba:	2300      	movs	r3, #0
 80051bc:	f89d 6024 	ldrb.w	r6, [sp, #36]	@ 0x24
 80051c0:	f89d 502e 	ldrb.w	r5, [sp, #46]	@ 0x2e
 80051c4:	4619      	mov	r1, r3
 80051c6:	f103 0240 	add.w	r2, r3, #64	@ 0x40
 80051ca:	3301      	adds	r3, #1
 80051cc:	eb04 0282 	add.w	r2, r4, r2, lsl #2
 80051d0:	2b0f      	cmp	r3, #15
 80051d2:	6051      	str	r1, [r2, #4]
 80051d4:	d1f7      	bne.n	80051c6 <USB_DevInit+0x1a>
 80051d6:	f504 6700 	add.w	r7, r4, #2048	@ 0x800
 80051da:	2d00      	cmp	r5, #0
 80051dc:	d16c      	bne.n	80052b8 <USB_DevInit+0x10c>
 80051de:	687b      	ldr	r3, [r7, #4]
 80051e0:	f043 0302 	orr.w	r3, r3, #2
 80051e4:	607b      	str	r3, [r7, #4]
 80051e6:	6ba3      	ldr	r3, [r4, #56]	@ 0x38
 80051e8:	f423 1300 	bic.w	r3, r3, #2097152	@ 0x200000
 80051ec:	63a3      	str	r3, [r4, #56]	@ 0x38
 80051ee:	6823      	ldr	r3, [r4, #0]
 80051f0:	f043 0340 	orr.w	r3, r3, #64	@ 0x40
 80051f4:	6023      	str	r3, [r4, #0]
 80051f6:	6823      	ldr	r3, [r4, #0]
 80051f8:	f043 0380 	orr.w	r3, r3, #128	@ 0x80
 80051fc:	6023      	str	r3, [r4, #0]
 80051fe:	2300      	movs	r3, #0
 8005200:	f8c4 3e00 	str.w	r3, [r4, #3584]	@ 0xe00
 8005204:	f89d 3029 	ldrb.w	r3, [sp, #41]	@ 0x29
 8005208:	2b01      	cmp	r3, #1
 800520a:	d15c      	bne.n	80052c6 <USB_DevInit+0x11a>
 800520c:	f89d 1027 	ldrb.w	r1, [sp, #39]	@ 0x27
 8005210:	2900      	cmp	r1, #0
 8005212:	d156      	bne.n	80052c2 <USB_DevInit+0x116>
 8005214:	4620      	mov	r0, r4
 8005216:	f64f 387f 	movw	r8, #64383	@ 0xfb7f
 800521a:	f7ff ffc0 	bl	800519e <USB_SetDevSpeed>
 800521e:	2110      	movs	r1, #16
 8005220:	4620      	mov	r0, r4
 8005222:	f7ff ff78 	bl	8005116 <USB_FlushTxFifo>
 8005226:	4601      	mov	r1, r0
 8005228:	4620      	mov	r0, r4
 800522a:	f7ff ff97 	bl	800515c <USB_FlushRxFifo>
 800522e:	4308      	orrs	r0, r1
 8005230:	2300      	movs	r3, #0
 8005232:	f504 6210 	add.w	r2, r4, #2304	@ 0x900
 8005236:	b2c0      	uxtb	r0, r0
 8005238:	f04f 4c90 	mov.w	ip, #1207959552	@ 0x48000000
 800523c:	4619      	mov	r1, r3
 800523e:	f04f 6e00 	mov.w	lr, #134217728	@ 0x8000000
 8005242:	3800      	subs	r0, #0
 8005244:	613b      	str	r3, [r7, #16]
 8005246:	617b      	str	r3, [r7, #20]
 8005248:	bf18      	it	ne
 800524a:	2001      	movne	r0, #1
 800524c:	61fb      	str	r3, [r7, #28]
 800524e:	429e      	cmp	r6, r3
 8005250:	d83b      	bhi.n	80052ca <USB_DevInit+0x11e>
 8005252:	2200      	movs	r2, #0
 8005254:	f504 6330 	add.w	r3, r4, #2816	@ 0xb00
 8005258:	f04f 4c90 	mov.w	ip, #1207959552	@ 0x48000000
 800525c:	f04f 6e00 	mov.w	lr, #134217728	@ 0x8000000
 8005260:	4611      	mov	r1, r2
 8005262:	f64f 387f 	movw	r8, #64383	@ 0xfb7f
 8005266:	4296      	cmp	r6, r2
 8005268:	d842      	bhi.n	80052f0 <USB_DevInit+0x144>
 800526a:	693b      	ldr	r3, [r7, #16]
 800526c:	f423 7380 	bic.w	r3, r3, #256	@ 0x100
 8005270:	613b      	str	r3, [r7, #16]
 8005272:	2300      	movs	r3, #0
 8005274:	61a3      	str	r3, [r4, #24]
 8005276:	f06f 4380 	mvn.w	r3, #1073741824	@ 0x40000000
 800527a:	6163      	str	r3, [r4, #20]
 800527c:	f89d 3026 	ldrb.w	r3, [sp, #38]	@ 0x26
 8005280:	b91b      	cbnz	r3, 800528a <USB_DevInit+0xde>
 8005282:	69a3      	ldr	r3, [r4, #24]
 8005284:	f043 0310 	orr.w	r3, r3, #16
 8005288:	61a3      	str	r3, [r4, #24]
 800528a:	69a2      	ldr	r2, [r4, #24]
 800528c:	4b22      	ldr	r3, [pc, #136]	@ (8005318 <USB_DevInit+0x16c>)
 800528e:	4313      	orrs	r3, r2
 8005290:	61a3      	str	r3, [r4, #24]
 8005292:	f89d 302a 	ldrb.w	r3, [sp, #42]	@ 0x2a
 8005296:	b11b      	cbz	r3, 80052a0 <USB_DevInit+0xf4>
 8005298:	69a3      	ldr	r3, [r4, #24]
 800529a:	f043 0308 	orr.w	r3, r3, #8
 800529e:	61a3      	str	r3, [r4, #24]
 80052a0:	2d01      	cmp	r5, #1
 80052a2:	d105      	bne.n	80052b0 <USB_DevInit+0x104>
 80052a4:	69a3      	ldr	r3, [r4, #24]
 80052a6:	f043 4380 	orr.w	r3, r3, #1073741824	@ 0x40000000
 80052aa:	f043 0304 	orr.w	r3, r3, #4
 80052ae:	61a3      	str	r3, [r4, #24]
 80052b0:	e8bd 43f8 	ldmia.w	sp!, {r3, r4, r5, r6, r7, r8, r9, lr}
 80052b4:	b004      	add	sp, #16
 80052b6:	4770      	bx	lr
 80052b8:	6ba3      	ldr	r3, [r4, #56]	@ 0x38
 80052ba:	f443 1300 	orr.w	r3, r3, #2097152	@ 0x200000
 80052be:	63a3      	str	r3, [r4, #56]	@ 0x38
 80052c0:	e79d      	b.n	80051fe <USB_DevInit+0x52>
 80052c2:	4619      	mov	r1, r3
 80052c4:	e7a6      	b.n	8005214 <USB_DevInit+0x68>
 80052c6:	2103      	movs	r1, #3
 80052c8:	e7a4      	b.n	8005214 <USB_DevInit+0x68>
 80052ca:	f8d2 9000 	ldr.w	r9, [r2]
 80052ce:	f1b9 0f00 	cmp.w	r9, #0
 80052d2:	da0b      	bge.n	80052ec <USB_DevInit+0x140>
 80052d4:	b93b      	cbnz	r3, 80052e6 <USB_DevInit+0x13a>
 80052d6:	f8c2 e000 	str.w	lr, [r2]
 80052da:	6111      	str	r1, [r2, #16]
 80052dc:	3301      	adds	r3, #1
 80052de:	f8c2 8008 	str.w	r8, [r2, #8]
 80052e2:	3220      	adds	r2, #32
 80052e4:	e7b3      	b.n	800524e <USB_DevInit+0xa2>
 80052e6:	f8c2 c000 	str.w	ip, [r2]
 80052ea:	e7f6      	b.n	80052da <USB_DevInit+0x12e>
 80052ec:	6011      	str	r1, [r2, #0]
 80052ee:	e7f4      	b.n	80052da <USB_DevInit+0x12e>
 80052f0:	f8d3 9000 	ldr.w	r9, [r3]
 80052f4:	f1b9 0f00 	cmp.w	r9, #0
 80052f8:	da0b      	bge.n	8005312 <USB_DevInit+0x166>
 80052fa:	b93a      	cbnz	r2, 800530c <USB_DevInit+0x160>
 80052fc:	f8c3 e000 	str.w	lr, [r3]
 8005300:	6119      	str	r1, [r3, #16]
 8005302:	3201      	adds	r2, #1
 8005304:	f8c3 8008 	str.w	r8, [r3, #8]
 8005308:	3320      	adds	r3, #32
 800530a:	e7ac      	b.n	8005266 <USB_DevInit+0xba>
 800530c:	f8c3 c000 	str.w	ip, [r3]
 8005310:	e7f6      	b.n	8005300 <USB_DevInit+0x154>
 8005312:	6019      	str	r1, [r3, #0]
 8005314:	e7f4      	b.n	8005300 <USB_DevInit+0x154>
 8005316:	bf00      	nop
 8005318:	803c3800 	.word	0x803c3800

0800531c <USB_DevDisconnect>:
 800531c:	f8d0 3e00 	ldr.w	r3, [r0, #3584]	@ 0xe00
 8005320:	f023 0303 	bic.w	r3, r3, #3
 8005324:	f8c0 3e00 	str.w	r3, [r0, #3584]	@ 0xe00
 8005328:	f8d0 3804 	ldr.w	r3, [r0, #2052]	@ 0x804
 800532c:	f043 0302 	orr.w	r3, r3, #2
 8005330:	f8c0 3804 	str.w	r3, [r0, #2052]	@ 0x804
 8005334:	2000      	movs	r0, #0
 8005336:	4770      	bx	lr

08005338 <atoi>:
 8005338:	220a      	movs	r2, #10
 800533a:	2100      	movs	r1, #0
 800533c:	f000 b928 	b.w	8005590 <strtol>

08005340 <sbrk_aligned>:
 8005340:	b570      	push	{r4, r5, r6, lr}
 8005342:	4e0f      	ldr	r6, [pc, #60]	@ (8005380 <sbrk_aligned+0x40>)
 8005344:	460c      	mov	r4, r1
 8005346:	6831      	ldr	r1, [r6, #0]
 8005348:	4605      	mov	r5, r0
 800534a:	b911      	cbnz	r1, 8005352 <sbrk_aligned+0x12>
 800534c:	f000 f9da 	bl	8005704 <_sbrk_r>
 8005350:	6030      	str	r0, [r6, #0]
 8005352:	4621      	mov	r1, r4
 8005354:	4628      	mov	r0, r5
 8005356:	f000 f9d5 	bl	8005704 <_sbrk_r>
 800535a:	1c43      	adds	r3, r0, #1
 800535c:	d103      	bne.n	8005366 <sbrk_aligned+0x26>
 800535e:	f04f 34ff 	mov.w	r4, #4294967295
 8005362:	4620      	mov	r0, r4
 8005364:	bd70      	pop	{r4, r5, r6, pc}
 8005366:	1cc4      	adds	r4, r0, #3
 8005368:	f024 0403 	bic.w	r4, r4, #3
 800536c:	42a0      	cmp	r0, r4
 800536e:	d0f8      	beq.n	8005362 <sbrk_aligned+0x22>
 8005370:	1a21      	subs	r1, r4, r0
 8005372:	4628      	mov	r0, r5
 8005374:	f000 f9c6 	bl	8005704 <_sbrk_r>
 8005378:	3001      	adds	r0, #1
 800537a:	d1f2      	bne.n	8005362 <sbrk_aligned+0x22>
 800537c:	e7ef      	b.n	800535e <sbrk_aligned+0x1e>
 800537e:	bf00      	nop
 8005380:	20002a2c 	.word	0x20002a2c

08005384 <_malloc_r>:
 8005384:	e92d 43f8 	stmdb	sp!, {r3, r4, r5, r6, r7, r8, r9, lr}
 8005388:	1ccd      	adds	r5, r1, #3
 800538a:	f025 0503 	bic.w	r5, r5, #3
 800538e:	3508      	adds	r5, #8
 8005390:	2d0c      	cmp	r5, #12
 8005392:	bf38      	it	cc
 8005394:	250c      	movcc	r5, #12
 8005396:	2d00      	cmp	r5, #0
 8005398:	4606      	mov	r6, r0
 800539a:	db01      	blt.n	80053a0 <_malloc_r+0x1c>
 800539c:	42a9      	cmp	r1, r5
 800539e:	d904      	bls.n	80053aa <_malloc_r+0x26>
 80053a0:	230c      	movs	r3, #12
 80053a2:	6033      	str	r3, [r6, #0]
 80053a4:	2000      	movs	r0, #0
 80053a6:	e8bd 83f8 	ldmia.w	sp!, {r3, r4, r5, r6, r7, r8, r9, pc}
 80053aa:	f8df 80d4 	ldr.w	r8, [pc, #212]	@ 8005480 <_malloc_r+0xfc>
 80053ae:	f000 f869 	bl	8005484 <__malloc_lock>
 80053b2:	f8d8 3000 	ldr.w	r3, [r8]
 80053b6:	461c      	mov	r4, r3
 80053b8:	bb44      	cbnz	r4, 800540c <_malloc_r+0x88>
 80053ba:	4629      	mov	r1, r5
 80053bc:	4630      	mov	r0, r6
 80053be:	f7ff ffbf 	bl	8005340 <sbrk_aligned>
 80053c2:	1c43      	adds	r3, r0, #1
 80053c4:	4604      	mov	r4, r0
 80053c6:	d158      	bne.n	800547a <_malloc_r+0xf6>
 80053c8:	f8d8 4000 	ldr.w	r4, [r8]
 80053cc:	4627      	mov	r7, r4
 80053ce:	2f00      	cmp	r7, #0
 80053d0:	d143      	bne.n	800545a <_malloc_r+0xd6>
 80053d2:	2c00      	cmp	r4, #0
 80053d4:	d04b      	beq.n	800546e <_malloc_r+0xea>
 80053d6:	6823      	ldr	r3, [r4, #0]
 80053d8:	4639      	mov	r1, r7
 80053da:	4630      	mov	r0, r6
 80053dc:	eb04 0903 	add.w	r9, r4, r3
 80053e0:	f000 f990 	bl	8005704 <_sbrk_r>
 80053e4:	4581      	cmp	r9, r0
 80053e6:	d142      	bne.n	800546e <_malloc_r+0xea>
 80053e8:	6821      	ldr	r1, [r4, #0]
 80053ea:	1a6d      	subs	r5, r5, r1
 80053ec:	4629      	mov	r1, r5
 80053ee:	4630      	mov	r0, r6
 80053f0:	f7ff ffa6 	bl	8005340 <sbrk_aligned>
 80053f4:	3001      	adds	r0, #1
 80053f6:	d03a      	beq.n	800546e <_malloc_r+0xea>
 80053f8:	6823      	ldr	r3, [r4, #0]
 80053fa:	442b      	add	r3, r5
 80053fc:	6023      	str	r3, [r4, #0]
 80053fe:	f8d8 3000 	ldr.w	r3, [r8]
 8005402:	685a      	ldr	r2, [r3, #4]
 8005404:	bb62      	cbnz	r2, 8005460 <_malloc_r+0xdc>
 8005406:	f8c8 7000 	str.w	r7, [r8]
 800540a:	e00f      	b.n	800542c <_malloc_r+0xa8>
 800540c:	6822      	ldr	r2, [r4, #0]
 800540e:	1b52      	subs	r2, r2, r5
 8005410:	d420      	bmi.n	8005454 <_malloc_r+0xd0>
 8005412:	2a0b      	cmp	r2, #11
 8005414:	d917      	bls.n	8005446 <_malloc_r+0xc2>
 8005416:	1961      	adds	r1, r4, r5
 8005418:	42a3      	cmp	r3, r4
 800541a:	6025      	str	r5, [r4, #0]
 800541c:	bf18      	it	ne
 800541e:	6059      	strne	r1, [r3, #4]
 8005420:	6863      	ldr	r3, [r4, #4]
 8005422:	bf08      	it	eq
 8005424:	f8c8 1000 	streq.w	r1, [r8]
 8005428:	5162      	str	r2, [r4, r5]
 800542a:	604b      	str	r3, [r1, #4]
 800542c:	4630      	mov	r0, r6
 800542e:	f000 f82f 	bl	8005490 <__malloc_unlock>
 8005432:	f104 000b 	add.w	r0, r4, #11
 8005436:	1d23      	adds	r3, r4, #4
 8005438:	f020 0007 	bic.w	r0, r0, #7
 800543c:	1ac2      	subs	r2, r0, r3
 800543e:	bf1c      	itt	ne
 8005440:	1a1b      	subne	r3, r3, r0
 8005442:	50a3      	strne	r3, [r4, r2]
 8005444:	e7af      	b.n	80053a6 <_malloc_r+0x22>
 8005446:	6862      	ldr	r2, [r4, #4]
 8005448:	42a3      	cmp	r3, r4
 800544a:	bf0c      	ite	eq
 800544c:	f8c8 2000 	streq.w	r2, [r8]
 8005450:	605a      	strne	r2, [r3, #4]
 8005452:	e7eb      	b.n	800542c <_malloc_r+0xa8>
 8005454:	4623      	mov	r3, r4
 8005456:	6864      	ldr	r4, [r4, #4]
 8005458:	e7ae      	b.n	80053b8 <_malloc_r+0x34>
 800545a:	463c      	mov	r4, r7
 800545c:	687f      	ldr	r7, [r7, #4]
 800545e:	e7b6      	b.n	80053ce <_malloc_r+0x4a>
 8005460:	461a      	mov	r2, r3
 8005462:	685b      	ldr	r3, [r3, #4]
 8005464:	42a3      	cmp	r3, r4
 8005466:	d1fb      	bne.n	8005460 <_malloc_r+0xdc>
 8005468:	2300      	movs	r3, #0
 800546a:	6053      	str	r3, [r2, #4]
 800546c:	e7de      	b.n	800542c <_malloc_r+0xa8>
 800546e:	230c      	movs	r3, #12
 8005470:	6033      	str	r3, [r6, #0]
 8005472:	4630      	mov	r0, r6
 8005474:	f000 f80c 	bl	8005490 <__malloc_unlock>
 8005478:	e794      	b.n	80053a4 <_malloc_r+0x20>
 800547a:	6005      	str	r5, [r0, #0]
 800547c:	e7d6      	b.n	800542c <_malloc_r+0xa8>
 800547e:	bf00      	nop
 8005480:	20002a30 	.word	0x20002a30

08005484 <__malloc_lock>:
 8005484:	4801      	ldr	r0, [pc, #4]	@ (800548c <__malloc_lock+0x8>)
 8005486:	f000 b977 	b.w	8005778 <__retarget_lock_acquire_recursive>
 800548a:	bf00      	nop
 800548c:	20002b70 	.word	0x20002b70

08005490 <__malloc_unlock>:
 8005490:	4801      	ldr	r0, [pc, #4]	@ (8005498 <__malloc_unlock+0x8>)
 8005492:	f000 b972 	b.w	800577a <__retarget_lock_release_recursive>
 8005496:	bf00      	nop
 8005498:	20002b70 	.word	0x20002b70

0800549c <_strtol_l.isra.0>:
 800549c:	2b24      	cmp	r3, #36	@ 0x24
 800549e:	e92d 47f0 	stmdb	sp!, {r4, r5, r6, r7, r8, r9, sl, lr}
 80054a2:	4686      	mov	lr, r0
 80054a4:	4690      	mov	r8, r2
 80054a6:	d801      	bhi.n	80054ac <_strtol_l.isra.0+0x10>
 80054a8:	2b01      	cmp	r3, #1
 80054aa:	d106      	bne.n	80054ba <_strtol_l.isra.0+0x1e>
 80054ac:	f000 f93a 	bl	8005724 <__errno>
 80054b0:	2316      	movs	r3, #22
 80054b2:	6003      	str	r3, [r0, #0]
 80054b4:	2000      	movs	r0, #0
 80054b6:	e8bd 87f0 	ldmia.w	sp!, {r4, r5, r6, r7, r8, r9, sl, pc}
 80054ba:	4834      	ldr	r0, [pc, #208]	@ (800558c <_strtol_l.isra.0+0xf0>)
 80054bc:	460d      	mov	r5, r1
 80054be:	462a      	mov	r2, r5
 80054c0:	f815 4b01 	ldrb.w	r4, [r5], #1
 80054c4:	5d06      	ldrb	r6, [r0, r4]
 80054c6:	f016 0608 	ands.w	r6, r6, #8
 80054ca:	d1f8      	bne.n	80054be <_strtol_l.isra.0+0x22>
 80054cc:	2c2d      	cmp	r4, #45	@ 0x2d
 80054ce:	d110      	bne.n	80054f2 <_strtol_l.isra.0+0x56>
 80054d0:	782c      	ldrb	r4, [r5, #0]
 80054d2:	2601      	movs	r6, #1
 80054d4:	1c95      	adds	r5, r2, #2
 80054d6:	f033 0210 	bics.w	r2, r3, #16
 80054da:	d115      	bne.n	8005508 <_strtol_l.isra.0+0x6c>
 80054dc:	2c30      	cmp	r4, #48	@ 0x30
 80054de:	d10d      	bne.n	80054fc <_strtol_l.isra.0+0x60>
 80054e0:	782a      	ldrb	r2, [r5, #0]
 80054e2:	f002 02df 	and.w	r2, r2, #223	@ 0xdf
 80054e6:	2a58      	cmp	r2, #88	@ 0x58
 80054e8:	d108      	bne.n	80054fc <_strtol_l.isra.0+0x60>
 80054ea:	786c      	ldrb	r4, [r5, #1]
 80054ec:	3502      	adds	r5, #2
 80054ee:	2310      	movs	r3, #16
 80054f0:	e00a      	b.n	8005508 <_strtol_l.isra.0+0x6c>
 80054f2:	2c2b      	cmp	r4, #43	@ 0x2b
 80054f4:	bf04      	itt	eq
 80054f6:	782c      	ldrbeq	r4, [r5, #0]
 80054f8:	1c95      	addeq	r5, r2, #2
 80054fa:	e7ec      	b.n	80054d6 <_strtol_l.isra.0+0x3a>
 80054fc:	2b00      	cmp	r3, #0
 80054fe:	d1f6      	bne.n	80054ee <_strtol_l.isra.0+0x52>
 8005500:	2c30      	cmp	r4, #48	@ 0x30
 8005502:	bf14      	ite	ne
 8005504:	230a      	movne	r3, #10
 8005506:	2308      	moveq	r3, #8
 8005508:	f106 4c00 	add.w	ip, r6, #2147483648	@ 0x80000000
 800550c:	f10c 3cff 	add.w	ip, ip, #4294967295
 8005510:	2200      	movs	r2, #0
 8005512:	fbbc f9f3 	udiv	r9, ip, r3
 8005516:	4610      	mov	r0, r2
 8005518:	fb03 ca19 	mls	sl, r3, r9, ip
 800551c:	f1a4 0730 	sub.w	r7, r4, #48	@ 0x30
 8005520:	2f09      	cmp	r7, #9
 8005522:	d80f      	bhi.n	8005544 <_strtol_l.isra.0+0xa8>
 8005524:	463c      	mov	r4, r7
 8005526:	42a3      	cmp	r3, r4
 8005528:	dd1b      	ble.n	8005562 <_strtol_l.isra.0+0xc6>
 800552a:	1c57      	adds	r7, r2, #1
 800552c:	d007      	beq.n	800553e <_strtol_l.isra.0+0xa2>
 800552e:	4581      	cmp	r9, r0
 8005530:	d314      	bcc.n	800555c <_strtol_l.isra.0+0xc0>
 8005532:	d101      	bne.n	8005538 <_strtol_l.isra.0+0x9c>
 8005534:	45a2      	cmp	sl, r4
 8005536:	db11      	blt.n	800555c <_strtol_l.isra.0+0xc0>
 8005538:	fb00 4003 	mla	r0, r0, r3, r4
 800553c:	2201      	movs	r2, #1
 800553e:	f815 4b01 	ldrb.w	r4, [r5], #1
 8005542:	e7eb      	b.n	800551c <_strtol_l.isra.0+0x80>
 8005544:	f1a4 0741 	sub.w	r7, r4, #65	@ 0x41
 8005548:	2f19      	cmp	r7, #25
 800554a:	d801      	bhi.n	8005550 <_strtol_l.isra.0+0xb4>
 800554c:	3c37      	subs	r4, #55	@ 0x37
 800554e:	e7ea      	b.n	8005526 <_strtol_l.isra.0+0x8a>
 8005550:	f1a4 0761 	sub.w	r7, r4, #97	@ 0x61
 8005554:	2f19      	cmp	r7, #25
 8005556:	d804      	bhi.n	8005562 <_strtol_l.isra.0+0xc6>
 8005558:	3c57      	subs	r4, #87	@ 0x57
 800555a:	e7e4      	b.n	8005526 <_strtol_l.isra.0+0x8a>
 800555c:	f04f 32ff 	mov.w	r2, #4294967295
 8005560:	e7ed      	b.n	800553e <_strtol_l.isra.0+0xa2>
 8005562:	1c53      	adds	r3, r2, #1
 8005564:	d108      	bne.n	8005578 <_strtol_l.isra.0+0xdc>
 8005566:	2322      	movs	r3, #34	@ 0x22
 8005568:	f8ce 3000 	str.w	r3, [lr]
 800556c:	4660      	mov	r0, ip
 800556e:	f1b8 0f00 	cmp.w	r8, #0
 8005572:	d0a0      	beq.n	80054b6 <_strtol_l.isra.0+0x1a>
 8005574:	1e69      	subs	r1, r5, #1
 8005576:	e006      	b.n	8005586 <_strtol_l.isra.0+0xea>
 8005578:	b106      	cbz	r6, 800557c <_strtol_l.isra.0+0xe0>
 800557a:	4240      	negs	r0, r0
 800557c:	f1b8 0f00 	cmp.w	r8, #0
 8005580:	d099      	beq.n	80054b6 <_strtol_l.isra.0+0x1a>
 8005582:	2a00      	cmp	r2, #0
 8005584:	d1f6      	bne.n	8005574 <_strtol_l.isra.0+0xd8>
 8005586:	f8c8 1000 	str.w	r1, [r8]
 800558a:	e794      	b.n	80054b6 <_strtol_l.isra.0+0x1a>
 800558c:	08006ad5 	.word	0x08006ad5

08005590 <strtol>:
 8005590:	4613      	mov	r3, r2
 8005592:	460a      	mov	r2, r1
 8005594:	4601      	mov	r1, r0
 8005596:	4802      	ldr	r0, [pc, #8]	@ (80055a0 <strtol+0x10>)
 8005598:	6800      	ldr	r0, [r0, #0]
 800559a:	f7ff bf7f 	b.w	800549c <_strtol_l.isra.0>
 800559e:	bf00      	nop
 80055a0:	2000000c 	.word	0x2000000c

080055a4 <sniprintf>:
 80055a4:	b40c      	push	{r2, r3}
 80055a6:	b530      	push	{r4, r5, lr}
 80055a8:	4b18      	ldr	r3, [pc, #96]	@ (800560c <sniprintf+0x68>)
 80055aa:	1e0c      	subs	r4, r1, #0
 80055ac:	681d      	ldr	r5, [r3, #0]
 80055ae:	b09d      	sub	sp, #116	@ 0x74
 80055b0:	da08      	bge.n	80055c4 <sniprintf+0x20>
 80055b2:	238b      	movs	r3, #139	@ 0x8b
 80055b4:	602b      	str	r3, [r5, #0]
 80055b6:	f04f 30ff 	mov.w	r0, #4294967295
 80055ba:	b01d      	add	sp, #116	@ 0x74
 80055bc:	e8bd 4030 	ldmia.w	sp!, {r4, r5, lr}
 80055c0:	b002      	add	sp, #8
 80055c2:	4770      	bx	lr
 80055c4:	f44f 7302 	mov.w	r3, #520	@ 0x208
 80055c8:	f8ad 3014 	strh.w	r3, [sp, #20]
 80055cc:	f04f 0300 	mov.w	r3, #0
 80055d0:	931b      	str	r3, [sp, #108]	@ 0x6c
 80055d2:	bf14      	ite	ne
 80055d4:	f104 33ff 	addne.w	r3, r4, #4294967295
 80055d8:	4623      	moveq	r3, r4
 80055da:	9304      	str	r3, [sp, #16]
 80055dc:	9307      	str	r3, [sp, #28]
 80055de:	f64f 73ff 	movw	r3, #65535	@ 0xffff
 80055e2:	9002      	str	r0, [sp, #8]
 80055e4:	9006      	str	r0, [sp, #24]
 80055e6:	f8ad 3016 	strh.w	r3, [sp, #22]
 80055ea:	9a20      	ldr	r2, [sp, #128]	@ 0x80
 80055ec:	ab21      	add	r3, sp, #132	@ 0x84
 80055ee:	a902      	add	r1, sp, #8
 80055f0:	4628      	mov	r0, r5
 80055f2:	9301      	str	r3, [sp, #4]
 80055f4:	f000 f976 	bl	80058e4 <_svfiprintf_r>
 80055f8:	1c43      	adds	r3, r0, #1
 80055fa:	bfbc      	itt	lt
 80055fc:	238b      	movlt	r3, #139	@ 0x8b
 80055fe:	602b      	strlt	r3, [r5, #0]
 8005600:	2c00      	cmp	r4, #0
 8005602:	d0da      	beq.n	80055ba <sniprintf+0x16>
 8005604:	9b02      	ldr	r3, [sp, #8]
 8005606:	2200      	movs	r2, #0
 8005608:	701a      	strb	r2, [r3, #0]
 800560a:	e7d6      	b.n	80055ba <sniprintf+0x16>
 800560c:	2000000c 	.word	0x2000000c

08005610 <siprintf>:
 8005610:	b40e      	push	{r1, r2, r3}
 8005612:	b510      	push	{r4, lr}
 8005614:	b09d      	sub	sp, #116	@ 0x74
 8005616:	ab1f      	add	r3, sp, #124	@ 0x7c
 8005618:	9002      	str	r0, [sp, #8]
 800561a:	9006      	str	r0, [sp, #24]
 800561c:	f06f 4100 	mvn.w	r1, #2147483648	@ 0x80000000
 8005620:	480a      	ldr	r0, [pc, #40]	@ (800564c <siprintf+0x3c>)
 8005622:	9107      	str	r1, [sp, #28]
 8005624:	9104      	str	r1, [sp, #16]
 8005626:	490a      	ldr	r1, [pc, #40]	@ (8005650 <siprintf+0x40>)
 8005628:	f853 2b04 	ldr.w	r2, [r3], #4
 800562c:	9105      	str	r1, [sp, #20]
 800562e:	2400      	movs	r4, #0
 8005630:	a902      	add	r1, sp, #8
 8005632:	6800      	ldr	r0, [r0, #0]
 8005634:	9301      	str	r3, [sp, #4]
 8005636:	941b      	str	r4, [sp, #108]	@ 0x6c
 8005638:	f000 f954 	bl	80058e4 <_svfiprintf_r>
 800563c:	9b02      	ldr	r3, [sp, #8]
 800563e:	701c      	strb	r4, [r3, #0]
 8005640:	b01d      	add	sp, #116	@ 0x74
 8005642:	e8bd 4010 	ldmia.w	sp!, {r4, lr}
 8005646:	b003      	add	sp, #12
 8005648:	4770      	bx	lr
 800564a:	bf00      	nop
 800564c:	2000000c 	.word	0x2000000c
 8005650:	ffff0208 	.word	0xffff0208

08005654 <memmove>:
 8005654:	4288      	cmp	r0, r1
 8005656:	b510      	push	{r4, lr}
 8005658:	eb01 0402 	add.w	r4, r1, r2
 800565c:	d902      	bls.n	8005664 <memmove+0x10>
 800565e:	4284      	cmp	r4, r0
 8005660:	4623      	mov	r3, r4
 8005662:	d807      	bhi.n	8005674 <memmove+0x20>
 8005664:	1e43      	subs	r3, r0, #1
 8005666:	42a1      	cmp	r1, r4
 8005668:	d008      	beq.n	800567c <memmove+0x28>
 800566a:	f811 2b01 	ldrb.w	r2, [r1], #1
 800566e:	f803 2f01 	strb.w	r2, [r3, #1]!
 8005672:	e7f8      	b.n	8005666 <memmove+0x12>
 8005674:	4402      	add	r2, r0
 8005676:	4601      	mov	r1, r0
 8005678:	428a      	cmp	r2, r1
 800567a:	d100      	bne.n	800567e <memmove+0x2a>
 800567c:	bd10      	pop	{r4, pc}
 800567e:	f813 4d01 	ldrb.w	r4, [r3, #-1]!
 8005682:	f802 4d01 	strb.w	r4, [r2, #-1]!
 8005686:	e7f7      	b.n	8005678 <memmove+0x24>

08005688 <memset>:
 8005688:	4402      	add	r2, r0
 800568a:	4603      	mov	r3, r0
 800568c:	4293      	cmp	r3, r2
 800568e:	d100      	bne.n	8005692 <memset+0xa>
 8005690:	4770      	bx	lr
 8005692:	f803 1b01 	strb.w	r1, [r3], #1
 8005696:	e7f9      	b.n	800568c <memset+0x4>

08005698 <strchr>:
 8005698:	b2c9      	uxtb	r1, r1
 800569a:	4603      	mov	r3, r0
 800569c:	4618      	mov	r0, r3
 800569e:	f813 2b01 	ldrb.w	r2, [r3], #1
 80056a2:	b112      	cbz	r2, 80056aa <strchr+0x12>
 80056a4:	428a      	cmp	r2, r1
 80056a6:	d1f9      	bne.n	800569c <strchr+0x4>
 80056a8:	4770      	bx	lr
 80056aa:	2900      	cmp	r1, #0
 80056ac:	bf18      	it	ne
 80056ae:	2000      	movne	r0, #0
 80056b0:	4770      	bx	lr

080056b2 <strncmp>:
 80056b2:	b510      	push	{r4, lr}
 80056b4:	b16a      	cbz	r2, 80056d2 <strncmp+0x20>
 80056b6:	3901      	subs	r1, #1
 80056b8:	1884      	adds	r4, r0, r2
 80056ba:	f810 2b01 	ldrb.w	r2, [r0], #1
 80056be:	f811 3f01 	ldrb.w	r3, [r1, #1]!
 80056c2:	429a      	cmp	r2, r3
 80056c4:	d103      	bne.n	80056ce <strncmp+0x1c>
 80056c6:	42a0      	cmp	r0, r4
 80056c8:	d001      	beq.n	80056ce <strncmp+0x1c>
 80056ca:	2a00      	cmp	r2, #0
 80056cc:	d1f5      	bne.n	80056ba <strncmp+0x8>
 80056ce:	1ad0      	subs	r0, r2, r3
 80056d0:	bd10      	pop	{r4, pc}
 80056d2:	4610      	mov	r0, r2
 80056d4:	e7fc      	b.n	80056d0 <strncmp+0x1e>

080056d6 <strstr>:
 80056d6:	780a      	ldrb	r2, [r1, #0]
 80056d8:	b570      	push	{r4, r5, r6, lr}
 80056da:	b96a      	cbnz	r2, 80056f8 <strstr+0x22>
 80056dc:	bd70      	pop	{r4, r5, r6, pc}
 80056de:	429a      	cmp	r2, r3
 80056e0:	d109      	bne.n	80056f6 <strstr+0x20>
 80056e2:	460c      	mov	r4, r1
 80056e4:	4605      	mov	r5, r0
 80056e6:	f814 3f01 	ldrb.w	r3, [r4, #1]!
 80056ea:	2b00      	cmp	r3, #0
 80056ec:	d0f6      	beq.n	80056dc <strstr+0x6>
 80056ee:	f815 6f01 	ldrb.w	r6, [r5, #1]!
 80056f2:	429e      	cmp	r6, r3
 80056f4:	d0f7      	beq.n	80056e6 <strstr+0x10>
 80056f6:	3001      	adds	r0, #1
 80056f8:	7803      	ldrb	r3, [r0, #0]
 80056fa:	2b00      	cmp	r3, #0
 80056fc:	d1ef      	bne.n	80056de <strstr+0x8>
 80056fe:	4618      	mov	r0, r3
 8005700:	e7ec      	b.n	80056dc <strstr+0x6>
	...

08005704 <_sbrk_r>:
 8005704:	b538      	push	{r3, r4, r5, lr}
 8005706:	4d06      	ldr	r5, [pc, #24]	@ (8005720 <_sbrk_r+0x1c>)
 8005708:	2300      	movs	r3, #0
 800570a:	4604      	mov	r4, r0
 800570c:	4608      	mov	r0, r1
 800570e:	602b      	str	r3, [r5, #0]
 8005710:	f7fb fd2e 	bl	8001170 <_sbrk>
 8005714:	1c43      	adds	r3, r0, #1
 8005716:	d102      	bne.n	800571e <_sbrk_r+0x1a>
 8005718:	682b      	ldr	r3, [r5, #0]
 800571a:	b103      	cbz	r3, 800571e <_sbrk_r+0x1a>
 800571c:	6023      	str	r3, [r4, #0]
 800571e:	bd38      	pop	{r3, r4, r5, pc}
 8005720:	20002b6c 	.word	0x20002b6c

08005724 <__errno>:
 8005724:	4b01      	ldr	r3, [pc, #4]	@ (800572c <__errno+0x8>)
 8005726:	6818      	ldr	r0, [r3, #0]
 8005728:	4770      	bx	lr
 800572a:	bf00      	nop
 800572c:	2000000c 	.word	0x2000000c

08005730 <__libc_init_array>:
 8005730:	b570      	push	{r4, r5, r6, lr}
 8005732:	4d0d      	ldr	r5, [pc, #52]	@ (8005768 <__libc_init_array+0x38>)
 8005734:	4c0d      	ldr	r4, [pc, #52]	@ (800576c <__libc_init_array+0x3c>)
 8005736:	1b64      	subs	r4, r4, r5
 8005738:	10a4      	asrs	r4, r4, #2
 800573a:	2600      	movs	r6, #0
 800573c:	42a6      	cmp	r6, r4
 800573e:	d109      	bne.n	8005754 <__libc_init_array+0x24>
 8005740:	4d0b      	ldr	r5, [pc, #44]	@ (8005770 <__libc_init_array+0x40>)
 8005742:	4c0c      	ldr	r4, [pc, #48]	@ (8005774 <__libc_init_array+0x44>)
 8005744:	f000 fb8c 	bl	8005e60 <_init>
 8005748:	1b64      	subs	r4, r4, r5
 800574a:	10a4      	asrs	r4, r4, #2
 800574c:	2600      	movs	r6, #0
 800574e:	42a6      	cmp	r6, r4
 8005750:	d105      	bne.n	800575e <__libc_init_array+0x2e>
 8005752:	bd70      	pop	{r4, r5, r6, pc}
 8005754:	f855 3b04 	ldr.w	r3, [r5], #4
 8005758:	4798      	blx	r3
 800575a:	3601      	adds	r6, #1
 800575c:	e7ee      	b.n	800573c <__libc_init_array+0xc>
 800575e:	f855 3b04 	ldr.w	r3, [r5], #4
 8005762:	4798      	blx	r3
 8005764:	3601      	adds	r6, #1
 8005766:	e7f2      	b.n	800574e <__libc_init_array+0x1e>
 8005768:	08006be0 	.word	0x08006be0
 800576c:	08006be0 	.word	0x08006be0
 8005770:	08006be0 	.word	0x08006be0
 8005774:	08006be4 	.word	0x08006be4

08005778 <__retarget_lock_acquire_recursive>:
 8005778:	4770      	bx	lr

0800577a <__retarget_lock_release_recursive>:
 800577a:	4770      	bx	lr

0800577c <memcpy>:
 800577c:	440a      	add	r2, r1
 800577e:	4291      	cmp	r1, r2
 8005780:	f100 33ff 	add.w	r3, r0, #4294967295
 8005784:	d100      	bne.n	8005788 <memcpy+0xc>
 8005786:	4770      	bx	lr
 8005788:	b510      	push	{r4, lr}
 800578a:	f811 4b01 	ldrb.w	r4, [r1], #1
 800578e:	f803 4f01 	strb.w	r4, [r3, #1]!
 8005792:	4291      	cmp	r1, r2
 8005794:	d1f9      	bne.n	800578a <memcpy+0xe>
 8005796:	bd10      	pop	{r4, pc}

08005798 <_free_r>:
 8005798:	b538      	push	{r3, r4, r5, lr}
 800579a:	4605      	mov	r5, r0
 800579c:	2900      	cmp	r1, #0
 800579e:	d041      	beq.n	8005824 <_free_r+0x8c>
 80057a0:	f851 3c04 	ldr.w	r3, [r1, #-4]
 80057a4:	1f0c      	subs	r4, r1, #4
 80057a6:	2b00      	cmp	r3, #0
 80057a8:	bfb8      	it	lt
 80057aa:	18e4      	addlt	r4, r4, r3
 80057ac:	f7ff fe6a 	bl	8005484 <__malloc_lock>
 80057b0:	4a1d      	ldr	r2, [pc, #116]	@ (8005828 <_free_r+0x90>)
 80057b2:	6813      	ldr	r3, [r2, #0]
 80057b4:	b933      	cbnz	r3, 80057c4 <_free_r+0x2c>
 80057b6:	6063      	str	r3, [r4, #4]
 80057b8:	6014      	str	r4, [r2, #0]
 80057ba:	4628      	mov	r0, r5
 80057bc:	e8bd 4038 	ldmia.w	sp!, {r3, r4, r5, lr}
 80057c0:	f7ff be66 	b.w	8005490 <__malloc_unlock>
 80057c4:	42a3      	cmp	r3, r4
 80057c6:	d908      	bls.n	80057da <_free_r+0x42>
 80057c8:	6820      	ldr	r0, [r4, #0]
 80057ca:	1821      	adds	r1, r4, r0
 80057cc:	428b      	cmp	r3, r1
 80057ce:	bf01      	itttt	eq
 80057d0:	6819      	ldreq	r1, [r3, #0]
 80057d2:	685b      	ldreq	r3, [r3, #4]
 80057d4:	1809      	addeq	r1, r1, r0
 80057d6:	6021      	streq	r1, [r4, #0]
 80057d8:	e7ed      	b.n	80057b6 <_free_r+0x1e>
 80057da:	461a      	mov	r2, r3
 80057dc:	685b      	ldr	r3, [r3, #4]
 80057de:	b10b      	cbz	r3, 80057e4 <_free_r+0x4c>
 80057e0:	42a3      	cmp	r3, r4
 80057e2:	d9fa      	bls.n	80057da <_free_r+0x42>
 80057e4:	6811      	ldr	r1, [r2, #0]
 80057e6:	1850      	adds	r0, r2, r1
 80057e8:	42a0      	cmp	r0, r4
 80057ea:	d10b      	bne.n	8005804 <_free_r+0x6c>
 80057ec:	6820      	ldr	r0, [r4, #0]
 80057ee:	4401      	add	r1, r0
 80057f0:	1850      	adds	r0, r2, r1
 80057f2:	4283      	cmp	r3, r0
 80057f4:	6011      	str	r1, [r2, #0]
 80057f6:	d1e0      	bne.n	80057ba <_free_r+0x22>
 80057f8:	6818      	ldr	r0, [r3, #0]
 80057fa:	685b      	ldr	r3, [r3, #4]
 80057fc:	6053      	str	r3, [r2, #4]
 80057fe:	4408      	add	r0, r1
 8005800:	6010      	str	r0, [r2, #0]
 8005802:	e7da      	b.n	80057ba <_free_r+0x22>
 8005804:	d902      	bls.n	800580c <_free_r+0x74>
 8005806:	230c      	movs	r3, #12
 8005808:	602b      	str	r3, [r5, #0]
 800580a:	e7d6      	b.n	80057ba <_free_r+0x22>
 800580c:	6820      	ldr	r0, [r4, #0]
 800580e:	1821      	adds	r1, r4, r0
 8005810:	428b      	cmp	r3, r1
 8005812:	bf04      	itt	eq
 8005814:	6819      	ldreq	r1, [r3, #0]
 8005816:	685b      	ldreq	r3, [r3, #4]
 8005818:	6063      	str	r3, [r4, #4]
 800581a:	bf04      	itt	eq
 800581c:	1809      	addeq	r1, r1, r0
 800581e:	6021      	streq	r1, [r4, #0]
 8005820:	6054      	str	r4, [r2, #4]
 8005822:	e7ca      	b.n	80057ba <_free_r+0x22>
 8005824:	bd38      	pop	{r3, r4, r5, pc}
 8005826:	bf00      	nop
 8005828:	20002a30 	.word	0x20002a30

0800582c <__ssputs_r>:
 800582c:	e92d 47f0 	stmdb	sp!, {r4, r5, r6, r7, r8, r9, sl, lr}
 8005830:	688e      	ldr	r6, [r1, #8]
 8005832:	461f      	mov	r7, r3
 8005834:	42be      	cmp	r6, r7
 8005836:	680b      	ldr	r3, [r1, #0]
 8005838:	4682      	mov	sl, r0
 800583a:	460c      	mov	r4, r1
 800583c:	4690      	mov	r8, r2
 800583e:	d82d      	bhi.n	800589c <__ssputs_r+0x70>
 8005840:	f9b1 200c 	ldrsh.w	r2, [r1, #12]
 8005844:	f412 6f90 	tst.w	r2, #1152	@ 0x480
 8005848:	d026      	beq.n	8005898 <__ssputs_r+0x6c>
 800584a:	6965      	ldr	r5, [r4, #20]
 800584c:	6909      	ldr	r1, [r1, #16]
 800584e:	eb05 0545 	add.w	r5, r5, r5, lsl #1
 8005852:	eba3 0901 	sub.w	r9, r3, r1
 8005856:	eb05 75d5 	add.w	r5, r5, r5, lsr #31
 800585a:	1c7b      	adds	r3, r7, #1
 800585c:	444b      	add	r3, r9
 800585e:	106d      	asrs	r5, r5, #1
 8005860:	429d      	cmp	r5, r3
 8005862:	bf38      	it	cc
 8005864:	461d      	movcc	r5, r3
 8005866:	0553      	lsls	r3, r2, #21
 8005868:	d527      	bpl.n	80058ba <__ssputs_r+0x8e>
 800586a:	4629      	mov	r1, r5
 800586c:	f7ff fd8a 	bl	8005384 <_malloc_r>
 8005870:	4606      	mov	r6, r0
 8005872:	b360      	cbz	r0, 80058ce <__ssputs_r+0xa2>
 8005874:	6921      	ldr	r1, [r4, #16]
 8005876:	464a      	mov	r2, r9
 8005878:	f7ff ff80 	bl	800577c <memcpy>
 800587c:	89a3      	ldrh	r3, [r4, #12]
 800587e:	f423 6390 	bic.w	r3, r3, #1152	@ 0x480
 8005882:	f043 0380 	orr.w	r3, r3, #128	@ 0x80
 8005886:	81a3      	strh	r3, [r4, #12]
 8005888:	6126      	str	r6, [r4, #16]
 800588a:	6165      	str	r5, [r4, #20]
 800588c:	444e      	add	r6, r9
 800588e:	eba5 0509 	sub.w	r5, r5, r9
 8005892:	6026      	str	r6, [r4, #0]
 8005894:	60a5      	str	r5, [r4, #8]
 8005896:	463e      	mov	r6, r7
 8005898:	42be      	cmp	r6, r7
 800589a:	d900      	bls.n	800589e <__ssputs_r+0x72>
 800589c:	463e      	mov	r6, r7
 800589e:	6820      	ldr	r0, [r4, #0]
 80058a0:	4632      	mov	r2, r6
 80058a2:	4641      	mov	r1, r8
 80058a4:	f7ff fed6 	bl	8005654 <memmove>
 80058a8:	68a3      	ldr	r3, [r4, #8]
 80058aa:	1b9b      	subs	r3, r3, r6
 80058ac:	60a3      	str	r3, [r4, #8]
 80058ae:	6823      	ldr	r3, [r4, #0]
 80058b0:	4433      	add	r3, r6
 80058b2:	6023      	str	r3, [r4, #0]
 80058b4:	2000      	movs	r0, #0
 80058b6:	e8bd 87f0 	ldmia.w	sp!, {r4, r5, r6, r7, r8, r9, sl, pc}
 80058ba:	462a      	mov	r2, r5
 80058bc:	f000 fa9a 	bl	8005df4 <_realloc_r>
 80058c0:	4606      	mov	r6, r0
 80058c2:	2800      	cmp	r0, #0
 80058c4:	d1e0      	bne.n	8005888 <__ssputs_r+0x5c>
 80058c6:	6921      	ldr	r1, [r4, #16]
 80058c8:	4650      	mov	r0, sl
 80058ca:	f7ff ff65 	bl	8005798 <_free_r>
 80058ce:	230c      	movs	r3, #12
 80058d0:	f8ca 3000 	str.w	r3, [sl]
 80058d4:	89a3      	ldrh	r3, [r4, #12]
 80058d6:	f043 0340 	orr.w	r3, r3, #64	@ 0x40
 80058da:	81a3      	strh	r3, [r4, #12]
 80058dc:	f04f 30ff 	mov.w	r0, #4294967295
 80058e0:	e7e9      	b.n	80058b6 <__ssputs_r+0x8a>
	...

080058e4 <_svfiprintf_r>:
 80058e4:	e92d 4ff0 	stmdb	sp!, {r4, r5, r6, r7, r8, r9, sl, fp, lr}
 80058e8:	4698      	mov	r8, r3
 80058ea:	898b      	ldrh	r3, [r1, #12]
 80058ec:	061b      	lsls	r3, r3, #24
 80058ee:	b09d      	sub	sp, #116	@ 0x74
 80058f0:	4607      	mov	r7, r0
 80058f2:	460d      	mov	r5, r1
 80058f4:	4614      	mov	r4, r2
 80058f6:	d510      	bpl.n	800591a <_svfiprintf_r+0x36>
 80058f8:	690b      	ldr	r3, [r1, #16]
 80058fa:	b973      	cbnz	r3, 800591a <_svfiprintf_r+0x36>
 80058fc:	2140      	movs	r1, #64	@ 0x40
 80058fe:	f7ff fd41 	bl	8005384 <_malloc_r>
 8005902:	6028      	str	r0, [r5, #0]
 8005904:	6128      	str	r0, [r5, #16]
 8005906:	b930      	cbnz	r0, 8005916 <_svfiprintf_r+0x32>
 8005908:	230c      	movs	r3, #12
 800590a:	603b      	str	r3, [r7, #0]
 800590c:	f04f 30ff 	mov.w	r0, #4294967295
 8005910:	b01d      	add	sp, #116	@ 0x74
 8005912:	e8bd 8ff0 	ldmia.w	sp!, {r4, r5, r6, r7, r8, r9, sl, fp, pc}
 8005916:	2340      	movs	r3, #64	@ 0x40
 8005918:	616b      	str	r3, [r5, #20]
 800591a:	2300      	movs	r3, #0
 800591c:	9309      	str	r3, [sp, #36]	@ 0x24
 800591e:	2320      	movs	r3, #32
 8005920:	f88d 3029 	strb.w	r3, [sp, #41]	@ 0x29
 8005924:	f8cd 800c 	str.w	r8, [sp, #12]
 8005928:	2330      	movs	r3, #48	@ 0x30
 800592a:	f8df 819c 	ldr.w	r8, [pc, #412]	@ 8005ac8 <_svfiprintf_r+0x1e4>
 800592e:	f88d 302a 	strb.w	r3, [sp, #42]	@ 0x2a
 8005932:	f04f 0901 	mov.w	r9, #1
 8005936:	4623      	mov	r3, r4
 8005938:	469a      	mov	sl, r3
 800593a:	f813 2b01 	ldrb.w	r2, [r3], #1
 800593e:	b10a      	cbz	r2, 8005944 <_svfiprintf_r+0x60>
 8005940:	2a25      	cmp	r2, #37	@ 0x25
 8005942:	d1f9      	bne.n	8005938 <_svfiprintf_r+0x54>
 8005944:	ebba 0b04 	subs.w	fp, sl, r4
 8005948:	d00b      	beq.n	8005962 <_svfiprintf_r+0x7e>
 800594a:	465b      	mov	r3, fp
 800594c:	4622      	mov	r2, r4
 800594e:	4629      	mov	r1, r5
 8005950:	4638      	mov	r0, r7
 8005952:	f7ff ff6b 	bl	800582c <__ssputs_r>
 8005956:	3001      	adds	r0, #1
 8005958:	f000 80a7 	beq.w	8005aaa <_svfiprintf_r+0x1c6>
 800595c:	9a09      	ldr	r2, [sp, #36]	@ 0x24
 800595e:	445a      	add	r2, fp
 8005960:	9209      	str	r2, [sp, #36]	@ 0x24
 8005962:	f89a 3000 	ldrb.w	r3, [sl]
 8005966:	2b00      	cmp	r3, #0
 8005968:	f000 809f 	beq.w	8005aaa <_svfiprintf_r+0x1c6>
 800596c:	2300      	movs	r3, #0
 800596e:	f04f 32ff 	mov.w	r2, #4294967295
 8005972:	e9cd 2305 	strd	r2, r3, [sp, #20]
 8005976:	f10a 0a01 	add.w	sl, sl, #1
 800597a:	9304      	str	r3, [sp, #16]
 800597c:	9307      	str	r3, [sp, #28]
 800597e:	f88d 3053 	strb.w	r3, [sp, #83]	@ 0x53
 8005982:	931a      	str	r3, [sp, #104]	@ 0x68
 8005984:	4654      	mov	r4, sl
 8005986:	2205      	movs	r2, #5
 8005988:	f814 1b01 	ldrb.w	r1, [r4], #1
 800598c:	484e      	ldr	r0, [pc, #312]	@ (8005ac8 <_svfiprintf_r+0x1e4>)
 800598e:	f7fa fc6f 	bl	8000270 <memchr>
 8005992:	9a04      	ldr	r2, [sp, #16]
 8005994:	b9d8      	cbnz	r0, 80059ce <_svfiprintf_r+0xea>
 8005996:	06d0      	lsls	r0, r2, #27
 8005998:	bf44      	itt	mi
 800599a:	2320      	movmi	r3, #32
 800599c:	f88d 3053 	strbmi.w	r3, [sp, #83]	@ 0x53
 80059a0:	0711      	lsls	r1, r2, #28
 80059a2:	bf44      	itt	mi
 80059a4:	232b      	movmi	r3, #43	@ 0x2b
 80059a6:	f88d 3053 	strbmi.w	r3, [sp, #83]	@ 0x53
 80059aa:	f89a 3000 	ldrb.w	r3, [sl]
 80059ae:	2b2a      	cmp	r3, #42	@ 0x2a
 80059b0:	d015      	beq.n	80059de <_svfiprintf_r+0xfa>
 80059b2:	9a07      	ldr	r2, [sp, #28]
 80059b4:	4654      	mov	r4, sl
 80059b6:	2000      	movs	r0, #0
 80059b8:	f04f 0c0a 	mov.w	ip, #10
 80059bc:	4621      	mov	r1, r4
 80059be:	f811 3b01 	ldrb.w	r3, [r1], #1
 80059c2:	3b30      	subs	r3, #48	@ 0x30
 80059c4:	2b09      	cmp	r3, #9
 80059c6:	d94b      	bls.n	8005a60 <_svfiprintf_r+0x17c>
 80059c8:	b1b0      	cbz	r0, 80059f8 <_svfiprintf_r+0x114>
 80059ca:	9207      	str	r2, [sp, #28]
 80059cc:	e014      	b.n	80059f8 <_svfiprintf_r+0x114>
 80059ce:	eba0 0308 	sub.w	r3, r0, r8
 80059d2:	fa09 f303 	lsl.w	r3, r9, r3
 80059d6:	4313      	orrs	r3, r2
 80059d8:	9304      	str	r3, [sp, #16]
 80059da:	46a2      	mov	sl, r4
 80059dc:	e7d2      	b.n	8005984 <_svfiprintf_r+0xa0>
 80059de:	9b03      	ldr	r3, [sp, #12]
 80059e0:	1d19      	adds	r1, r3, #4
 80059e2:	681b      	ldr	r3, [r3, #0]
 80059e4:	9103      	str	r1, [sp, #12]
 80059e6:	2b00      	cmp	r3, #0
 80059e8:	bfbb      	ittet	lt
 80059ea:	425b      	neglt	r3, r3
 80059ec:	f042 0202 	orrlt.w	r2, r2, #2
 80059f0:	9307      	strge	r3, [sp, #28]
 80059f2:	9307      	strlt	r3, [sp, #28]
 80059f4:	bfb8      	it	lt
 80059f6:	9204      	strlt	r2, [sp, #16]
 80059f8:	7823      	ldrb	r3, [r4, #0]
 80059fa:	2b2e      	cmp	r3, #46	@ 0x2e
 80059fc:	d10a      	bne.n	8005a14 <_svfiprintf_r+0x130>
 80059fe:	7863      	ldrb	r3, [r4, #1]
 8005a00:	2b2a      	cmp	r3, #42	@ 0x2a
 8005a02:	d132      	bne.n	8005a6a <_svfiprintf_r+0x186>
 8005a04:	9b03      	ldr	r3, [sp, #12]
 8005a06:	1d1a      	adds	r2, r3, #4
 8005a08:	681b      	ldr	r3, [r3, #0]
 8005a0a:	9203      	str	r2, [sp, #12]
 8005a0c:	ea43 73e3 	orr.w	r3, r3, r3, asr #31
 8005a10:	3402      	adds	r4, #2
 8005a12:	9305      	str	r3, [sp, #20]
 8005a14:	f8df a0c0 	ldr.w	sl, [pc, #192]	@ 8005ad8 <_svfiprintf_r+0x1f4>
 8005a18:	7821      	ldrb	r1, [r4, #0]
 8005a1a:	2203      	movs	r2, #3
 8005a1c:	4650      	mov	r0, sl
 8005a1e:	f7fa fc27 	bl	8000270 <memchr>
 8005a22:	b138      	cbz	r0, 8005a34 <_svfiprintf_r+0x150>
 8005a24:	9b04      	ldr	r3, [sp, #16]
 8005a26:	eba0 000a 	sub.w	r0, r0, sl
 8005a2a:	2240      	movs	r2, #64	@ 0x40
 8005a2c:	4082      	lsls	r2, r0
 8005a2e:	4313      	orrs	r3, r2
 8005a30:	3401      	adds	r4, #1
 8005a32:	9304      	str	r3, [sp, #16]
 8005a34:	f814 1b01 	ldrb.w	r1, [r4], #1
 8005a38:	4824      	ldr	r0, [pc, #144]	@ (8005acc <_svfiprintf_r+0x1e8>)
 8005a3a:	f88d 1028 	strb.w	r1, [sp, #40]	@ 0x28
 8005a3e:	2206      	movs	r2, #6
 8005a40:	f7fa fc16 	bl	8000270 <memchr>
 8005a44:	2800      	cmp	r0, #0
 8005a46:	d036      	beq.n	8005ab6 <_svfiprintf_r+0x1d2>
 8005a48:	4b21      	ldr	r3, [pc, #132]	@ (8005ad0 <_svfiprintf_r+0x1ec>)
 8005a4a:	bb1b      	cbnz	r3, 8005a94 <_svfiprintf_r+0x1b0>
 8005a4c:	9b03      	ldr	r3, [sp, #12]
 8005a4e:	3307      	adds	r3, #7
 8005a50:	f023 0307 	bic.w	r3, r3, #7
 8005a54:	3308      	adds	r3, #8
 8005a56:	9303      	str	r3, [sp, #12]
 8005a58:	9b09      	ldr	r3, [sp, #36]	@ 0x24
 8005a5a:	4433      	add	r3, r6
 8005a5c:	9309      	str	r3, [sp, #36]	@ 0x24
 8005a5e:	e76a      	b.n	8005936 <_svfiprintf_r+0x52>
 8005a60:	fb0c 3202 	mla	r2, ip, r2, r3
 8005a64:	460c      	mov	r4, r1
 8005a66:	2001      	movs	r0, #1
 8005a68:	e7a8      	b.n	80059bc <_svfiprintf_r+0xd8>
 8005a6a:	2300      	movs	r3, #0
 8005a6c:	3401      	adds	r4, #1
 8005a6e:	9305      	str	r3, [sp, #20]
 8005a70:	4619      	mov	r1, r3
 8005a72:	f04f 0c0a 	mov.w	ip, #10
 8005a76:	4620      	mov	r0, r4
 8005a78:	f810 2b01 	ldrb.w	r2, [r0], #1
 8005a7c:	3a30      	subs	r2, #48	@ 0x30
 8005a7e:	2a09      	cmp	r2, #9
 8005a80:	d903      	bls.n	8005a8a <_svfiprintf_r+0x1a6>
 8005a82:	2b00      	cmp	r3, #0
 8005a84:	d0c6      	beq.n	8005a14 <_svfiprintf_r+0x130>
 8005a86:	9105      	str	r1, [sp, #20]
 8005a88:	e7c4      	b.n	8005a14 <_svfiprintf_r+0x130>
 8005a8a:	fb0c 2101 	mla	r1, ip, r1, r2
 8005a8e:	4604      	mov	r4, r0
 8005a90:	2301      	movs	r3, #1
 8005a92:	e7f0      	b.n	8005a76 <_svfiprintf_r+0x192>
 8005a94:	ab03      	add	r3, sp, #12
 8005a96:	9300      	str	r3, [sp, #0]
 8005a98:	462a      	mov	r2, r5
 8005a9a:	4b0e      	ldr	r3, [pc, #56]	@ (8005ad4 <_svfiprintf_r+0x1f0>)
 8005a9c:	a904      	add	r1, sp, #16
 8005a9e:	4638      	mov	r0, r7
 8005aa0:	f3af 8000 	nop.w
 8005aa4:	1c42      	adds	r2, r0, #1
 8005aa6:	4606      	mov	r6, r0
 8005aa8:	d1d6      	bne.n	8005a58 <_svfiprintf_r+0x174>
 8005aaa:	89ab      	ldrh	r3, [r5, #12]
 8005aac:	065b      	lsls	r3, r3, #25
 8005aae:	f53f af2d 	bmi.w	800590c <_svfiprintf_r+0x28>
 8005ab2:	9809      	ldr	r0, [sp, #36]	@ 0x24
 8005ab4:	e72c      	b.n	8005910 <_svfiprintf_r+0x2c>
 8005ab6:	ab03      	add	r3, sp, #12
 8005ab8:	9300      	str	r3, [sp, #0]
 8005aba:	462a      	mov	r2, r5
 8005abc:	4b05      	ldr	r3, [pc, #20]	@ (8005ad4 <_svfiprintf_r+0x1f0>)
 8005abe:	a904      	add	r1, sp, #16
 8005ac0:	4638      	mov	r0, r7
 8005ac2:	f000 f879 	bl	8005bb8 <_printf_i>
 8005ac6:	e7ed      	b.n	8005aa4 <_svfiprintf_r+0x1c0>
 8005ac8:	08006418 	.word	0x08006418
 8005acc:	08006422 	.word	0x08006422
 8005ad0:	00000000 	.word	0x00000000
 8005ad4:	0800582d 	.word	0x0800582d
 8005ad8:	0800641e 	.word	0x0800641e

08005adc <_printf_common>:
 8005adc:	e92d 47f0 	stmdb	sp!, {r4, r5, r6, r7, r8, r9, sl, lr}
 8005ae0:	4616      	mov	r6, r2
 8005ae2:	4698      	mov	r8, r3
 8005ae4:	688a      	ldr	r2, [r1, #8]
 8005ae6:	690b      	ldr	r3, [r1, #16]
 8005ae8:	f8dd 9020 	ldr.w	r9, [sp, #32]
 8005aec:	4293      	cmp	r3, r2
 8005aee:	bfb8      	it	lt
 8005af0:	4613      	movlt	r3, r2
 8005af2:	6033      	str	r3, [r6, #0]
 8005af4:	f891 2043 	ldrb.w	r2, [r1, #67]	@ 0x43
 8005af8:	4607      	mov	r7, r0
 8005afa:	460c      	mov	r4, r1
 8005afc:	b10a      	cbz	r2, 8005b02 <_printf_common+0x26>
 8005afe:	3301      	adds	r3, #1
 8005b00:	6033      	str	r3, [r6, #0]
 8005b02:	6823      	ldr	r3, [r4, #0]
 8005b04:	0699      	lsls	r1, r3, #26
 8005b06:	bf42      	ittt	mi
 8005b08:	6833      	ldrmi	r3, [r6, #0]
 8005b0a:	3302      	addmi	r3, #2
 8005b0c:	6033      	strmi	r3, [r6, #0]
 8005b0e:	6825      	ldr	r5, [r4, #0]
 8005b10:	f015 0506 	ands.w	r5, r5, #6
 8005b14:	d106      	bne.n	8005b24 <_printf_common+0x48>
 8005b16:	f104 0a19 	add.w	sl, r4, #25
 8005b1a:	68e3      	ldr	r3, [r4, #12]
 8005b1c:	6832      	ldr	r2, [r6, #0]
 8005b1e:	1a9b      	subs	r3, r3, r2
 8005b20:	42ab      	cmp	r3, r5
 8005b22:	dc26      	bgt.n	8005b72 <_printf_common+0x96>
 8005b24:	f894 3043 	ldrb.w	r3, [r4, #67]	@ 0x43
 8005b28:	6822      	ldr	r2, [r4, #0]
 8005b2a:	3b00      	subs	r3, #0
 8005b2c:	bf18      	it	ne
 8005b2e:	2301      	movne	r3, #1
 8005b30:	0692      	lsls	r2, r2, #26
 8005b32:	d42b      	bmi.n	8005b8c <_printf_common+0xb0>
 8005b34:	f104 0243 	add.w	r2, r4, #67	@ 0x43
 8005b38:	4641      	mov	r1, r8
 8005b3a:	4638      	mov	r0, r7
 8005b3c:	47c8      	blx	r9
 8005b3e:	3001      	adds	r0, #1
 8005b40:	d01e      	beq.n	8005b80 <_printf_common+0xa4>
 8005b42:	6823      	ldr	r3, [r4, #0]
 8005b44:	6922      	ldr	r2, [r4, #16]
 8005b46:	f003 0306 	and.w	r3, r3, #6
 8005b4a:	2b04      	cmp	r3, #4
 8005b4c:	bf02      	ittt	eq
 8005b4e:	68e5      	ldreq	r5, [r4, #12]
 8005b50:	6833      	ldreq	r3, [r6, #0]
 8005b52:	1aed      	subeq	r5, r5, r3
 8005b54:	68a3      	ldr	r3, [r4, #8]
 8005b56:	bf0c      	ite	eq
 8005b58:	ea25 75e5 	biceq.w	r5, r5, r5, asr #31
 8005b5c:	2500      	movne	r5, #0
 8005b5e:	4293      	cmp	r3, r2
 8005b60:	bfc4      	itt	gt
 8005b62:	1a9b      	subgt	r3, r3, r2
 8005b64:	18ed      	addgt	r5, r5, r3
 8005b66:	2600      	movs	r6, #0
 8005b68:	341a      	adds	r4, #26
 8005b6a:	42b5      	cmp	r5, r6
 8005b6c:	d11a      	bne.n	8005ba4 <_printf_common+0xc8>
 8005b6e:	2000      	movs	r0, #0
 8005b70:	e008      	b.n	8005b84 <_printf_common+0xa8>
 8005b72:	2301      	movs	r3, #1
 8005b74:	4652      	mov	r2, sl
 8005b76:	4641      	mov	r1, r8
 8005b78:	4638      	mov	r0, r7
 8005b7a:	47c8      	blx	r9
 8005b7c:	3001      	adds	r0, #1
 8005b7e:	d103      	bne.n	8005b88 <_printf_common+0xac>
 8005b80:	f04f 30ff 	mov.w	r0, #4294967295
 8005b84:	e8bd 87f0 	ldmia.w	sp!, {r4, r5, r6, r7, r8, r9, sl, pc}
 8005b88:	3501      	adds	r5, #1
 8005b8a:	e7c6      	b.n	8005b1a <_printf_common+0x3e>
 8005b8c:	18e1      	adds	r1, r4, r3
 8005b8e:	1c5a      	adds	r2, r3, #1
 8005b90:	2030      	movs	r0, #48	@ 0x30
 8005b92:	f881 0043 	strb.w	r0, [r1, #67]	@ 0x43
 8005b96:	4422      	add	r2, r4
 8005b98:	f894 1045 	ldrb.w	r1, [r4, #69]	@ 0x45
 8005b9c:	f882 1043 	strb.w	r1, [r2, #67]	@ 0x43
 8005ba0:	3302      	adds	r3, #2
 8005ba2:	e7c7      	b.n	8005b34 <_printf_common+0x58>
 8005ba4:	2301      	movs	r3, #1
 8005ba6:	4622      	mov	r2, r4
 8005ba8:	4641      	mov	r1, r8
 8005baa:	4638      	mov	r0, r7
 8005bac:	47c8      	blx	r9
 8005bae:	3001      	adds	r0, #1
 8005bb0:	d0e6      	beq.n	8005b80 <_printf_common+0xa4>
 8005bb2:	3601      	adds	r6, #1
 8005bb4:	e7d9      	b.n	8005b6a <_printf_common+0x8e>
	...

08005bb8 <_printf_i>:
 8005bb8:	e92d 47ff 	stmdb	sp!, {r0, r1, r2, r3, r4, r5, r6, r7, r8, r9, sl, lr}
 8005bbc:	7e0f      	ldrb	r7, [r1, #24]
 8005bbe:	9e0c      	ldr	r6, [sp, #48]	@ 0x30
 8005bc0:	2f78      	cmp	r7, #120	@ 0x78
 8005bc2:	4691      	mov	r9, r2
 8005bc4:	4680      	mov	r8, r0
 8005bc6:	460c      	mov	r4, r1
 8005bc8:	469a      	mov	sl, r3
 8005bca:	f101 0243 	add.w	r2, r1, #67	@ 0x43
 8005bce:	d807      	bhi.n	8005be0 <_printf_i+0x28>
 8005bd0:	2f62      	cmp	r7, #98	@ 0x62
 8005bd2:	d80a      	bhi.n	8005bea <_printf_i+0x32>
 8005bd4:	2f00      	cmp	r7, #0
 8005bd6:	f000 80d1 	beq.w	8005d7c <_printf_i+0x1c4>
 8005bda:	2f58      	cmp	r7, #88	@ 0x58
 8005bdc:	f000 80b8 	beq.w	8005d50 <_printf_i+0x198>
 8005be0:	f104 0642 	add.w	r6, r4, #66	@ 0x42
 8005be4:	f884 7042 	strb.w	r7, [r4, #66]	@ 0x42
 8005be8:	e03a      	b.n	8005c60 <_printf_i+0xa8>
 8005bea:	f1a7 0363 	sub.w	r3, r7, #99	@ 0x63
 8005bee:	2b15      	cmp	r3, #21
 8005bf0:	d8f6      	bhi.n	8005be0 <_printf_i+0x28>
 8005bf2:	a101      	add	r1, pc, #4	@ (adr r1, 8005bf8 <_printf_i+0x40>)
 8005bf4:	f851 f023 	ldr.w	pc, [r1, r3, lsl #2]
 8005bf8:	08005c51 	.word	0x08005c51
 8005bfc:	08005c65 	.word	0x08005c65
 8005c00:	08005be1 	.word	0x08005be1
 8005c04:	08005be1 	.word	0x08005be1
 8005c08:	08005be1 	.word	0x08005be1
 8005c0c:	08005be1 	.word	0x08005be1
 8005c10:	08005c65 	.word	0x08005c65
 8005c14:	08005be1 	.word	0x08005be1
 8005c18:	08005be1 	.word	0x08005be1
 8005c1c:	08005be1 	.word	0x08005be1
 8005c20:	08005be1 	.word	0x08005be1
 8005c24:	08005d63 	.word	0x08005d63
 8005c28:	08005c8f 	.word	0x08005c8f
 8005c2c:	08005d1d 	.word	0x08005d1d
 8005c30:	08005be1 	.word	0x08005be1
 8005c34:	08005be1 	.word	0x08005be1
 8005c38:	08005d85 	.word	0x08005d85
 8005c3c:	08005be1 	.word	0x08005be1
 8005c40:	08005c8f 	.word	0x08005c8f
 8005c44:	08005be1 	.word	0x08005be1
 8005c48:	08005be1 	.word	0x08005be1
 8005c4c:	08005d25 	.word	0x08005d25
 8005c50:	6833      	ldr	r3, [r6, #0]
 8005c52:	1d1a      	adds	r2, r3, #4
 8005c54:	681b      	ldr	r3, [r3, #0]
 8005c56:	6032      	str	r2, [r6, #0]
 8005c58:	f104 0642 	add.w	r6, r4, #66	@ 0x42
 8005c5c:	f884 3042 	strb.w	r3, [r4, #66]	@ 0x42
 8005c60:	2301      	movs	r3, #1
 8005c62:	e09c      	b.n	8005d9e <_printf_i+0x1e6>
 8005c64:	6833      	ldr	r3, [r6, #0]
 8005c66:	6820      	ldr	r0, [r4, #0]
 8005c68:	1d19      	adds	r1, r3, #4
 8005c6a:	6031      	str	r1, [r6, #0]
 8005c6c:	0606      	lsls	r6, r0, #24
 8005c6e:	d501      	bpl.n	8005c74 <_printf_i+0xbc>
 8005c70:	681d      	ldr	r5, [r3, #0]
 8005c72:	e003      	b.n	8005c7c <_printf_i+0xc4>
 8005c74:	0645      	lsls	r5, r0, #25
 8005c76:	d5fb      	bpl.n	8005c70 <_printf_i+0xb8>
 8005c78:	f9b3 5000 	ldrsh.w	r5, [r3]
 8005c7c:	2d00      	cmp	r5, #0
 8005c7e:	da03      	bge.n	8005c88 <_printf_i+0xd0>
 8005c80:	232d      	movs	r3, #45	@ 0x2d
 8005c82:	426d      	negs	r5, r5
 8005c84:	f884 3043 	strb.w	r3, [r4, #67]	@ 0x43
 8005c88:	4858      	ldr	r0, [pc, #352]	@ (8005dec <_printf_i+0x234>)
 8005c8a:	230a      	movs	r3, #10
 8005c8c:	e011      	b.n	8005cb2 <_printf_i+0xfa>
 8005c8e:	6821      	ldr	r1, [r4, #0]
 8005c90:	6833      	ldr	r3, [r6, #0]
 8005c92:	0608      	lsls	r0, r1, #24
 8005c94:	f853 5b04 	ldr.w	r5, [r3], #4
 8005c98:	d402      	bmi.n	8005ca0 <_printf_i+0xe8>
 8005c9a:	0649      	lsls	r1, r1, #25
 8005c9c:	bf48      	it	mi
 8005c9e:	b2ad      	uxthmi	r5, r5
 8005ca0:	2f6f      	cmp	r7, #111	@ 0x6f
 8005ca2:	4852      	ldr	r0, [pc, #328]	@ (8005dec <_printf_i+0x234>)
 8005ca4:	6033      	str	r3, [r6, #0]
 8005ca6:	bf14      	ite	ne
 8005ca8:	230a      	movne	r3, #10
 8005caa:	2308      	moveq	r3, #8
 8005cac:	2100      	movs	r1, #0
 8005cae:	f884 1043 	strb.w	r1, [r4, #67]	@ 0x43
 8005cb2:	6866      	ldr	r6, [r4, #4]
 8005cb4:	60a6      	str	r6, [r4, #8]
 8005cb6:	2e00      	cmp	r6, #0
 8005cb8:	db05      	blt.n	8005cc6 <_printf_i+0x10e>
 8005cba:	6821      	ldr	r1, [r4, #0]
 8005cbc:	432e      	orrs	r6, r5
 8005cbe:	f021 0104 	bic.w	r1, r1, #4
 8005cc2:	6021      	str	r1, [r4, #0]
 8005cc4:	d04b      	beq.n	8005d5e <_printf_i+0x1a6>
 8005cc6:	4616      	mov	r6, r2
 8005cc8:	fbb5 f1f3 	udiv	r1, r5, r3
 8005ccc:	fb03 5711 	mls	r7, r3, r1, r5
 8005cd0:	5dc7      	ldrb	r7, [r0, r7]
 8005cd2:	f806 7d01 	strb.w	r7, [r6, #-1]!
 8005cd6:	462f      	mov	r7, r5
 8005cd8:	42bb      	cmp	r3, r7
 8005cda:	460d      	mov	r5, r1
 8005cdc:	d9f4      	bls.n	8005cc8 <_printf_i+0x110>
 8005cde:	2b08      	cmp	r3, #8
 8005ce0:	d10b      	bne.n	8005cfa <_printf_i+0x142>
 8005ce2:	6823      	ldr	r3, [r4, #0]
 8005ce4:	07df      	lsls	r7, r3, #31
 8005ce6:	d508      	bpl.n	8005cfa <_printf_i+0x142>
 8005ce8:	6923      	ldr	r3, [r4, #16]
 8005cea:	6861      	ldr	r1, [r4, #4]
 8005cec:	4299      	cmp	r1, r3
 8005cee:	bfde      	ittt	le
 8005cf0:	2330      	movle	r3, #48	@ 0x30
 8005cf2:	f806 3c01 	strble.w	r3, [r6, #-1]
 8005cf6:	f106 36ff 	addle.w	r6, r6, #4294967295
 8005cfa:	1b92      	subs	r2, r2, r6
 8005cfc:	6122      	str	r2, [r4, #16]
 8005cfe:	f8cd a000 	str.w	sl, [sp]
 8005d02:	464b      	mov	r3, r9
 8005d04:	aa03      	add	r2, sp, #12
 8005d06:	4621      	mov	r1, r4
 8005d08:	4640      	mov	r0, r8
 8005d0a:	f7ff fee7 	bl	8005adc <_printf_common>
 8005d0e:	3001      	adds	r0, #1
 8005d10:	d14a      	bne.n	8005da8 <_printf_i+0x1f0>
 8005d12:	f04f 30ff 	mov.w	r0, #4294967295
 8005d16:	b004      	add	sp, #16
 8005d18:	e8bd 87f0 	ldmia.w	sp!, {r4, r5, r6, r7, r8, r9, sl, pc}
 8005d1c:	6823      	ldr	r3, [r4, #0]
 8005d1e:	f043 0320 	orr.w	r3, r3, #32
 8005d22:	6023      	str	r3, [r4, #0]
 8005d24:	4832      	ldr	r0, [pc, #200]	@ (8005df0 <_printf_i+0x238>)
 8005d26:	2778      	movs	r7, #120	@ 0x78
 8005d28:	f884 7045 	strb.w	r7, [r4, #69]	@ 0x45
 8005d2c:	6823      	ldr	r3, [r4, #0]
 8005d2e:	6831      	ldr	r1, [r6, #0]
 8005d30:	061f      	lsls	r7, r3, #24
 8005d32:	f851 5b04 	ldr.w	r5, [r1], #4
 8005d36:	d402      	bmi.n	8005d3e <_printf_i+0x186>
 8005d38:	065f      	lsls	r7, r3, #25
 8005d3a:	bf48      	it	mi
 8005d3c:	b2ad      	uxthmi	r5, r5
 8005d3e:	6031      	str	r1, [r6, #0]
 8005d40:	07d9      	lsls	r1, r3, #31
 8005d42:	bf44      	itt	mi
 8005d44:	f043 0320 	orrmi.w	r3, r3, #32
 8005d48:	6023      	strmi	r3, [r4, #0]
 8005d4a:	b11d      	cbz	r5, 8005d54 <_printf_i+0x19c>
 8005d4c:	2310      	movs	r3, #16
 8005d4e:	e7ad      	b.n	8005cac <_printf_i+0xf4>
 8005d50:	4826      	ldr	r0, [pc, #152]	@ (8005dec <_printf_i+0x234>)
 8005d52:	e7e9      	b.n	8005d28 <_printf_i+0x170>
 8005d54:	6823      	ldr	r3, [r4, #0]
 8005d56:	f023 0320 	bic.w	r3, r3, #32
 8005d5a:	6023      	str	r3, [r4, #0]
 8005d5c:	e7f6      	b.n	8005d4c <_printf_i+0x194>
 8005d5e:	4616      	mov	r6, r2
 8005d60:	e7bd      	b.n	8005cde <_printf_i+0x126>
 8005d62:	6833      	ldr	r3, [r6, #0]
 8005d64:	6825      	ldr	r5, [r4, #0]
 8005d66:	6961      	ldr	r1, [r4, #20]
 8005d68:	1d18      	adds	r0, r3, #4
 8005d6a:	6030      	str	r0, [r6, #0]
 8005d6c:	062e      	lsls	r6, r5, #24
 8005d6e:	681b      	ldr	r3, [r3, #0]
 8005d70:	d501      	bpl.n	8005d76 <_printf_i+0x1be>
 8005d72:	6019      	str	r1, [r3, #0]
 8005d74:	e002      	b.n	8005d7c <_printf_i+0x1c4>
 8005d76:	0668      	lsls	r0, r5, #25
 8005d78:	d5fb      	bpl.n	8005d72 <_printf_i+0x1ba>
 8005d7a:	8019      	strh	r1, [r3, #0]
 8005d7c:	2300      	movs	r3, #0
 8005d7e:	6123      	str	r3, [r4, #16]
 8005d80:	4616      	mov	r6, r2
 8005d82:	e7bc      	b.n	8005cfe <_printf_i+0x146>
 8005d84:	6833      	ldr	r3, [r6, #0]
 8005d86:	1d1a      	adds	r2, r3, #4
 8005d88:	6032      	str	r2, [r6, #0]
 8005d8a:	681e      	ldr	r6, [r3, #0]
 8005d8c:	6862      	ldr	r2, [r4, #4]
 8005d8e:	2100      	movs	r1, #0
 8005d90:	4630      	mov	r0, r6
 8005d92:	f7fa fa6d 	bl	8000270 <memchr>
 8005d96:	b108      	cbz	r0, 8005d9c <_printf_i+0x1e4>
 8005d98:	1b80      	subs	r0, r0, r6
 8005d9a:	6060      	str	r0, [r4, #4]
 8005d9c:	6863      	ldr	r3, [r4, #4]
 8005d9e:	6123      	str	r3, [r4, #16]
 8005da0:	2300      	movs	r3, #0
 8005da2:	f884 3043 	strb.w	r3, [r4, #67]	@ 0x43
 8005da6:	e7aa      	b.n	8005cfe <_printf_i+0x146>
 8005da8:	6923      	ldr	r3, [r4, #16]
 8005daa:	4632      	mov	r2, r6
 8005dac:	4649      	mov	r1, r9
 8005dae:	4640      	mov	r0, r8
 8005db0:	47d0      	blx	sl
 8005db2:	3001      	adds	r0, #1
 8005db4:	d0ad      	beq.n	8005d12 <_printf_i+0x15a>
 8005db6:	6823      	ldr	r3, [r4, #0]
 8005db8:	079b      	lsls	r3, r3, #30
 8005dba:	d413      	bmi.n	8005de4 <_printf_i+0x22c>
 8005dbc:	68e0      	ldr	r0, [r4, #12]
 8005dbe:	9b03      	ldr	r3, [sp, #12]
 8005dc0:	4298      	cmp	r0, r3
 8005dc2:	bfb8      	it	lt
 8005dc4:	4618      	movlt	r0, r3
 8005dc6:	e7a6      	b.n	8005d16 <_printf_i+0x15e>
 8005dc8:	2301      	movs	r3, #1
 8005dca:	4632      	mov	r2, r6
 8005dcc:	4649      	mov	r1, r9
 8005dce:	4640      	mov	r0, r8
 8005dd0:	47d0      	blx	sl
 8005dd2:	3001      	adds	r0, #1
 8005dd4:	d09d      	beq.n	8005d12 <_printf_i+0x15a>
 8005dd6:	3501      	adds	r5, #1
 8005dd8:	68e3      	ldr	r3, [r4, #12]
 8005dda:	9903      	ldr	r1, [sp, #12]
 8005ddc:	1a5b      	subs	r3, r3, r1
 8005dde:	42ab      	cmp	r3, r5
 8005de0:	dcf2      	bgt.n	8005dc8 <_printf_i+0x210>
 8005de2:	e7eb      	b.n	8005dbc <_printf_i+0x204>
 8005de4:	2500      	movs	r5, #0
 8005de6:	f104 0619 	add.w	r6, r4, #25
 8005dea:	e7f5      	b.n	8005dd8 <_printf_i+0x220>
 8005dec:	08006429 	.word	0x08006429
 8005df0:	0800643a 	.word	0x0800643a

08005df4 <_realloc_r>:
 8005df4:	e92d 41f0 	stmdb	sp!, {r4, r5, r6, r7, r8, lr}
 8005df8:	4607      	mov	r7, r0
 8005dfa:	4614      	mov	r4, r2
 8005dfc:	460d      	mov	r5, r1
 8005dfe:	b921      	cbnz	r1, 8005e0a <_realloc_r+0x16>
 8005e00:	e8bd 41f0 	ldmia.w	sp!, {r4, r5, r6, r7, r8, lr}
 8005e04:	4611      	mov	r1, r2
 8005e06:	f7ff babd 	b.w	8005384 <_malloc_r>
 8005e0a:	b92a      	cbnz	r2, 8005e18 <_realloc_r+0x24>
 8005e0c:	f7ff fcc4 	bl	8005798 <_free_r>
 8005e10:	4625      	mov	r5, r4
 8005e12:	4628      	mov	r0, r5
 8005e14:	e8bd 81f0 	ldmia.w	sp!, {r4, r5, r6, r7, r8, pc}
 8005e18:	f000 f81a 	bl	8005e50 <_malloc_usable_size_r>
 8005e1c:	4284      	cmp	r4, r0
 8005e1e:	4606      	mov	r6, r0
 8005e20:	d802      	bhi.n	8005e28 <_realloc_r+0x34>
 8005e22:	ebb4 0f50 	cmp.w	r4, r0, lsr #1
 8005e26:	d8f4      	bhi.n	8005e12 <_realloc_r+0x1e>
 8005e28:	4621      	mov	r1, r4
 8005e2a:	4638      	mov	r0, r7
 8005e2c:	f7ff faaa 	bl	8005384 <_malloc_r>
 8005e30:	4680      	mov	r8, r0
 8005e32:	b908      	cbnz	r0, 8005e38 <_realloc_r+0x44>
 8005e34:	4645      	mov	r5, r8
 8005e36:	e7ec      	b.n	8005e12 <_realloc_r+0x1e>
 8005e38:	42b4      	cmp	r4, r6
 8005e3a:	4622      	mov	r2, r4
 8005e3c:	4629      	mov	r1, r5
 8005e3e:	bf28      	it	cs
 8005e40:	4632      	movcs	r2, r6
 8005e42:	f7ff fc9b 	bl	800577c <memcpy>
 8005e46:	4629      	mov	r1, r5
 8005e48:	4638      	mov	r0, r7
 8005e4a:	f7ff fca5 	bl	8005798 <_free_r>
 8005e4e:	e7f1      	b.n	8005e34 <_realloc_r+0x40>

08005e50 <_malloc_usable_size_r>:
 8005e50:	f851 3c04 	ldr.w	r3, [r1, #-4]
 8005e54:	1f18      	subs	r0, r3, #4
 8005e56:	2b00      	cmp	r3, #0
 8005e58:	bfbc      	itt	lt
 8005e5a:	580b      	ldrlt	r3, [r1, r0]
 8005e5c:	18c0      	addlt	r0, r0, r3
 8005e5e:	4770      	bx	lr

08005e60 <_init>:
 8005e60:	b5f8      	push	{r3, r4, r5, r6, r7, lr}
 8005e62:	bf00      	nop
 8005e64:	bcf8      	pop	{r3, r4, r5, r6, r7}
 8005e66:	bc08      	pop	{r3}
 8005e68:	469e      	mov	lr, r3
 8005e6a:	4770      	bx	lr

08005e6c <_fini>:
 8005e6c:	b5f8      	push	{r3, r4, r5, r6, r7, lr}
 8005e6e:	bf00      	nop
 8005e70:	bcf8      	pop	{r3, r4, r5, r6, r7}
 8005e72:	bc08      	pop	{r3}
 8005e74:	469e      	mov	lr, r3
 8005e76:	4770      	bx	lr
